
build/buzzfizz.elf:     file format elf32-littlearm


Disassembly of section .isr_vector:

00000000 <__isr_vector>:
   0:	20006000 	andcs	r6, r0, r0
   4:	000000c1 	andeq	r0, r0, r1, asr #1
   8:	00001971 	andeq	r1, r0, r1, ror r9
   c:	00001973 	andeq	r1, r0, r3, ror r9
	...
  2c:	00001885 	andeq	r1, r0, r5, lsl #17
	...
  38:	000018ad 	andeq	r1, r0, sp, lsr #17
  3c:	00001955 	andeq	r1, r0, r5, asr r9
  40:	0000197d 	andeq	r1, r0, sp, ror r9
  44:	0000197f 	andeq	r1, r0, pc, ror r9
  48:	00001981 	andeq	r1, r0, r1, lsl #19
  4c:	00001983 	andeq	r1, r0, r3, lsl #19
  50:	0000197b 	andeq	r1, r0, fp, ror r9
  54:	00001985 	andeq	r1, r0, r5, lsl #19
  58:	00001987 	andeq	r1, r0, r7, lsl #19
  5c:	00001989 	andeq	r1, r0, r9, lsl #19
  60:	0000198b 	andeq	r1, r0, fp, lsl #19
  64:	0000198d 	andeq	r1, r0, sp, lsl #19
  68:	0000198f 	andeq	r1, r0, pc, lsl #19
  6c:	00001991 	muleq	r0, r1, r9
  70:	00001993 	muleq	r0, r3, r9
  74:	00001995 	muleq	r0, r5, r9
  78:	00001997 	muleq	r0, r7, r9
  7c:	00001999 	muleq	r0, r9, r9
  80:	0000199b 	muleq	r0, fp, r9
  84:	0000199d 	muleq	r0, sp, r9
  88:	0000199f 	muleq	r0, pc, r9	; <UNPREDICTABLE>
  8c:	000019a1 	andeq	r1, r0, r1, lsr #19
  90:	000019a3 	andeq	r1, r0, r3, lsr #19
  94:	000019a5 	andeq	r1, r0, r5, lsr #19
  98:	000019a7 	andeq	r1, r0, r7, lsr #19
  9c:	000019a9 	andeq	r1, r0, r9, lsr #19
  a0:	000019ab 	andeq	r1, r0, fp, lsr #19
  a4:	000019ad 	andeq	r1, r0, sp, lsr #19
  a8:	000019af 	andeq	r1, r0, pc, lsr #19
  ac:	000019b1 			; <UNDEFINED> instruction: 0x000019b1
  b0:	000019b3 			; <UNDEFINED> instruction: 0x000019b3
  b4:	000019b5 			; <UNDEFINED> instruction: 0x000019b5
  b8:	000019b7 			; <UNDEFINED> instruction: 0x000019b7
  bc:	000019b9 			; <UNDEFINED> instruction: 0x000019b9

000000c0 <Reset_Handler>:
  c0:	4907      	ldr	r1, [pc, #28]	; (e0 <.flash_to_ram_loop_end+0xa>)
  c2:	4a08      	ldr	r2, [pc, #32]	; (e4 <.flash_to_ram_loop_end+0xe>)
  c4:	4b08      	ldr	r3, [pc, #32]	; (e8 <.flash_to_ram_loop_end+0x12>)
  c6:	1a9b      	subs	r3, r3, r2
  c8:	dd05      	ble.n	d6 <.flash_to_ram_loop_end>
  ca:	2400      	movs	r4, #0

000000cc <.flash_to_ram_loop>:
  cc:	5908      	ldr	r0, [r1, r4]
  ce:	5110      	str	r0, [r2, r4]
  d0:	3404      	adds	r4, #4
  d2:	429c      	cmp	r4, r3
  d4:	dbfa      	blt.n	cc <.flash_to_ram_loop>

000000d6 <.flash_to_ram_loop_end>:
  d6:	4805      	ldr	r0, [pc, #20]	; (ec <.flash_to_ram_loop_end+0x16>)
  d8:	4780      	blx	r0
  da:	4805      	ldr	r0, [pc, #20]	; (f0 <.flash_to_ram_loop_end+0x1a>)
  dc:	4700      	bx	r0
  de:	1da80000 	stcne	0, cr0, [r8]
  e2:	e0c00000 	sbc	r0, r0, r0
  e6:	e1381fff 	teq	r8, pc	; <illegal shifter operand>
  ea:	04e91fff 	strbteq	r1, [r9], #4095	; 0xfff
  ee:	04710000 	ldrbteq	r0, [r1], #-0
	...

Disassembly of section .flash_protect:

00000400 <kinetis_flash_config>:
 400:	ffffffff 			; <UNDEFINED> instruction: 0xffffffff
 404:	ffffffff 			; <UNDEFINED> instruction: 0xffffffff
 408:	ffffffff 			; <UNDEFINED> instruction: 0xffffffff
 40c:	fffffffe 			; <UNDEFINED> instruction: 0xfffffffe

Disassembly of section .text:

00000410 <__do_global_dtors_aux>:
     410:	b510      	push	{r4, lr}
     412:	4c06      	ldr	r4, [pc, #24]	; (42c <__do_global_dtors_aux+0x1c>)
     414:	7823      	ldrb	r3, [r4, #0]
     416:	2b00      	cmp	r3, #0
     418:	d107      	bne.n	42a <__do_global_dtors_aux+0x1a>
     41a:	4b05      	ldr	r3, [pc, #20]	; (430 <__do_global_dtors_aux+0x20>)
     41c:	2b00      	cmp	r3, #0
     41e:	d002      	beq.n	426 <__do_global_dtors_aux+0x16>
     420:	4804      	ldr	r0, [pc, #16]	; (434 <__do_global_dtors_aux+0x24>)
     422:	e000      	b.n	426 <__do_global_dtors_aux+0x16>
     424:	bf00      	nop
     426:	2301      	movs	r3, #1
     428:	7023      	strb	r3, [r4, #0]
     42a:	bd10      	pop	{r4, pc}
     42c:	1fffe138 	svcne	0x00ffe138
     430:	00000000 	andeq	r0, r0, r0
     434:	00001d9c 	muleq	r0, ip, sp

00000438 <frame_dummy>:
     438:	4b08      	ldr	r3, [pc, #32]	; (45c <frame_dummy+0x24>)
     43a:	b510      	push	{r4, lr}
     43c:	2b00      	cmp	r3, #0
     43e:	d003      	beq.n	448 <frame_dummy+0x10>
     440:	4907      	ldr	r1, [pc, #28]	; (460 <frame_dummy+0x28>)
     442:	4808      	ldr	r0, [pc, #32]	; (464 <frame_dummy+0x2c>)
     444:	e000      	b.n	448 <frame_dummy+0x10>
     446:	bf00      	nop
     448:	4807      	ldr	r0, [pc, #28]	; (468 <frame_dummy+0x30>)
     44a:	6803      	ldr	r3, [r0, #0]
     44c:	2b00      	cmp	r3, #0
     44e:	d100      	bne.n	452 <frame_dummy+0x1a>
     450:	bd10      	pop	{r4, pc}
     452:	4b06      	ldr	r3, [pc, #24]	; (46c <frame_dummy+0x34>)
     454:	2b00      	cmp	r3, #0
     456:	d0fb      	beq.n	450 <frame_dummy+0x18>
     458:	4798      	blx	r3
     45a:	e7f9      	b.n	450 <frame_dummy+0x18>
     45c:	00000000 	andeq	r0, r0, r0
     460:	1fffe13c 	svcne	0x00ffe13c
     464:	00001d9c 	muleq	r0, ip, sp
     468:	1fffe138 	svcne	0x00ffe138
     46c:	00000000 	andeq	r0, r0, r0

00000470 <_mainCRTStartup>:
     470:	4b16      	ldr	r3, [pc, #88]	; (4cc <_mainCRTStartup+0x5c>)
     472:	2b00      	cmp	r3, #0
     474:	d100      	bne.n	478 <_mainCRTStartup+0x8>
     476:	4b14      	ldr	r3, [pc, #80]	; (4c8 <_mainCRTStartup+0x58>)
     478:	469d      	mov	sp, r3
     47a:	2240      	movs	r2, #64	; 0x40
     47c:	0292      	lsls	r2, r2, #10
     47e:	1a9a      	subs	r2, r3, r2
     480:	4692      	mov	sl, r2
     482:	2100      	movs	r1, #0
     484:	468b      	mov	fp, r1
     486:	460f      	mov	r7, r1
     488:	4813      	ldr	r0, [pc, #76]	; (4d8 <_mainCRTStartup+0x68>)
     48a:	4a14      	ldr	r2, [pc, #80]	; (4dc <_mainCRTStartup+0x6c>)
     48c:	1a12      	subs	r2, r2, r0
     48e:	f001 fb7a 	bl	1b86 <memset>
     492:	4b0f      	ldr	r3, [pc, #60]	; (4d0 <_mainCRTStartup+0x60>)
     494:	2b00      	cmp	r3, #0
     496:	d000      	beq.n	49a <_mainCRTStartup+0x2a>
     498:	4798      	blx	r3
     49a:	4b0e      	ldr	r3, [pc, #56]	; (4d4 <_mainCRTStartup+0x64>)
     49c:	2b00      	cmp	r3, #0
     49e:	d000      	beq.n	4a2 <_mainCRTStartup+0x32>
     4a0:	4798      	blx	r3
     4a2:	2000      	movs	r0, #0
     4a4:	2100      	movs	r1, #0
     4a6:	0004      	movs	r4, r0
     4a8:	000d      	movs	r5, r1
     4aa:	480d      	ldr	r0, [pc, #52]	; (4e0 <_mainCRTStartup+0x70>)
     4ac:	2800      	cmp	r0, #0
     4ae:	d002      	beq.n	4b6 <_mainCRTStartup+0x46>
     4b0:	480c      	ldr	r0, [pc, #48]	; (4e4 <_mainCRTStartup+0x74>)
     4b2:	e000      	b.n	4b6 <_mainCRTStartup+0x46>
     4b4:	bf00      	nop
     4b6:	f001 fb23 	bl	1b00 <__libc_init_array>
     4ba:	0020      	movs	r0, r4
     4bc:	0029      	movs	r1, r5
     4be:	f000 f8cf 	bl	660 <main>
     4c2:	f001 fb07 	bl	1ad4 <exit>
     4c6:	46c0      	nop			; (mov r8, r8)
     4c8:	00080000 	andeq	r0, r8, r0
     4cc:	20006000 	andcs	r6, r0, r0
	...
     4d8:	1fffe138 	svcne	0x00ffe138
     4dc:	1fffe3fc 	svcne	0x00ffe3fc
	...

000004e8 <SystemInit>:
     4e8:	2288      	movs	r2, #136	; 0x88
     4ea:	2100      	movs	r1, #0
     4ec:	b510      	push	{r4, lr}
     4ee:	2480      	movs	r4, #128	; 0x80
     4f0:	4b21      	ldr	r3, [pc, #132]	; (578 <SystemInit+0x90>)
     4f2:	4822      	ldr	r0, [pc, #136]	; (57c <SystemInit+0x94>)
     4f4:	0152      	lsls	r2, r2, #5
     4f6:	5099      	str	r1, [r3, r2]
     4f8:	581a      	ldr	r2, [r3, r0]
     4fa:	00a4      	lsls	r4, r4, #2
     4fc:	4322      	orrs	r2, r4
     4fe:	501a      	str	r2, [r3, r0]
     500:	481f      	ldr	r0, [pc, #124]	; (580 <SystemInit+0x98>)
     502:	4a20      	ldr	r2, [pc, #128]	; (584 <SystemInit+0x9c>)
     504:	5098      	str	r0, [r3, r2]
     506:	4b20      	ldr	r3, [pc, #128]	; (588 <SystemInit+0xa0>)
     508:	4a20      	ldr	r2, [pc, #128]	; (58c <SystemInit+0xa4>)
     50a:	6c98      	ldr	r0, [r3, #72]	; 0x48
     50c:	4010      	ands	r0, r2
     50e:	6498      	str	r0, [r3, #72]	; 0x48
     510:	6cd8      	ldr	r0, [r3, #76]	; 0x4c
     512:	4002      	ands	r2, r0
     514:	64da      	str	r2, [r3, #76]	; 0x4c
     516:	2240      	movs	r2, #64	; 0x40
     518:	4b1d      	ldr	r3, [pc, #116]	; (590 <SystemInit+0xa8>)
     51a:	7858      	ldrb	r0, [r3, #1]
     51c:	4002      	ands	r2, r0
     51e:	2024      	movs	r0, #36	; 0x24
     520:	4302      	orrs	r2, r0
     522:	705a      	strb	r2, [r3, #1]
     524:	4a1b      	ldr	r2, [pc, #108]	; (594 <SystemInit+0xac>)
     526:	305c      	adds	r0, #92	; 0x5c
     528:	7010      	strb	r0, [r2, #0]
     52a:	229a      	movs	r2, #154	; 0x9a
     52c:	701a      	strb	r2, [r3, #0]
     52e:	78d8      	ldrb	r0, [r3, #3]
     530:	3a7b      	subs	r2, #123	; 0x7b
     532:	4002      	ands	r2, r0
     534:	70da      	strb	r2, [r3, #3]
     536:	2201      	movs	r2, #1
     538:	711a      	strb	r2, [r3, #4]
     53a:	7159      	strb	r1, [r3, #5]
     53c:	320f      	adds	r2, #15
     53e:	7999      	ldrb	r1, [r3, #6]
     540:	4211      	tst	r1, r2
     542:	d1fc      	bne.n	53e <SystemInit+0x56>
     544:	210c      	movs	r1, #12
     546:	799a      	ldrb	r2, [r3, #6]
     548:	400a      	ands	r2, r1
     54a:	2a08      	cmp	r2, #8
     54c:	d1fb      	bne.n	546 <SystemInit+0x5e>
     54e:	2140      	movs	r1, #64	; 0x40
     550:	4a0f      	ldr	r2, [pc, #60]	; (590 <SystemInit+0xa8>)
     552:	7151      	strb	r1, [r2, #5]
     554:	3934      	subs	r1, #52	; 0x34
     556:	799a      	ldrb	r2, [r3, #6]
     558:	400a      	ands	r2, r1
     55a:	2a08      	cmp	r2, #8
     55c:	d1fb      	bne.n	556 <SystemInit+0x6e>
     55e:	3238      	adds	r2, #56	; 0x38
     560:	7999      	ldrb	r1, [r3, #6]
     562:	4211      	tst	r1, r2
     564:	d0fc      	beq.n	560 <SystemInit+0x78>
     566:	211a      	movs	r1, #26
     568:	4a09      	ldr	r2, [pc, #36]	; (590 <SystemInit+0xa8>)
     56a:	7011      	strb	r1, [r2, #0]
     56c:	390e      	subs	r1, #14
     56e:	799a      	ldrb	r2, [r3, #6]
     570:	400a      	ands	r2, r1
     572:	2a0c      	cmp	r2, #12
     574:	d1fb      	bne.n	56e <SystemInit+0x86>
     576:	bd10      	pop	{r4, pc}
     578:	40047000 	andmi	r7, r4, r0
     57c:	00001038 	andeq	r1, r0, r8, lsr r0
     580:	10010000 	andne	r0, r1, r0
     584:	00001044 	andeq	r1, r0, r4, asr #32
     588:	40049000 	andmi	r9, r4, r0
     58c:	fefff8ff 	mrc2	8, 7, pc, cr15, cr15, {7}
     590:	40064000 	andmi	r4, r6, r0
     594:	40065000 	andmi	r5, r6, r0

00000598 <vBTaskFunction>:
     598:	b537      	push	{r0, r1, r2, r4, r5, lr}
     59a:	2580      	movs	r5, #128	; 0x80
     59c:	05ad      	lsls	r5, r5, #22
     59e:	2201      	movs	r2, #1
     5a0:	480c      	ldr	r0, [pc, #48]	; (5d4 <vBTaskFunction+0x3c>)
     5a2:	a901      	add	r1, sp, #4
     5a4:	2300      	movs	r3, #0
     5a6:	4252      	negs	r2, r2
     5a8:	6800      	ldr	r0, [r0, #0]
     5aa:	f000 fa60 	bl	a6e <xQueueGenericReceive>
     5ae:	9c01      	ldr	r4, [sp, #4]
     5b0:	2103      	movs	r1, #3
     5b2:	0020      	movs	r0, r4
     5b4:	f001 fa88 	bl	1ac8 <__aeabi_uidivmod>
     5b8:	2900      	cmp	r1, #0
     5ba:	d101      	bne.n	5c0 <vBTaskFunction+0x28>
     5bc:	4b06      	ldr	r3, [pc, #24]	; (5d8 <vBTaskFunction+0x40>)
     5be:	60dd      	str	r5, [r3, #12]
     5c0:	2105      	movs	r1, #5
     5c2:	0020      	movs	r0, r4
     5c4:	f001 fa80 	bl	1ac8 <__aeabi_uidivmod>
     5c8:	2900      	cmp	r1, #0
     5ca:	d1e8      	bne.n	59e <vBTaskFunction+0x6>
     5cc:	2220      	movs	r2, #32
     5ce:	4b03      	ldr	r3, [pc, #12]	; (5dc <vBTaskFunction+0x44>)
     5d0:	60da      	str	r2, [r3, #12]
     5d2:	e7e4      	b.n	59e <vBTaskFunction+0x6>
     5d4:	1fffe154 	svcne	0x00ffe154
     5d8:	400ff100 	andmi	pc, pc, r0, lsl #2
     5dc:	400ff0c0 	andmi	pc, pc, r0, asr #1

000005e0 <vATaskFunction>:
     5e0:	2300      	movs	r3, #0
     5e2:	b507      	push	{r0, r1, r2, lr}
     5e4:	9301      	str	r3, [sp, #4]
     5e6:	9b01      	ldr	r3, [sp, #4]
     5e8:	2014      	movs	r0, #20
     5ea:	3301      	adds	r3, #1
     5ec:	9301      	str	r3, [sp, #4]
     5ee:	f000 fd7f 	bl	10f0 <vTaskDelay>
     5f2:	2300      	movs	r3, #0
     5f4:	4803      	ldr	r0, [pc, #12]	; (604 <vATaskFunction+0x24>)
     5f6:	001a      	movs	r2, r3
     5f8:	a901      	add	r1, sp, #4
     5fa:	6800      	ldr	r0, [r0, #0]
     5fc:	f000 f961 	bl	8c2 <xQueueGenericSend>
     600:	e7f1      	b.n	5e6 <vATaskFunction+0x6>
     602:	46c0      	nop			; (mov r8, r8)
     604:	1fffe154 	svcne	0x00ffe154

00000608 <gpio_init>:
     608:	2080      	movs	r0, #128	; 0x80
     60a:	b530      	push	{r4, r5, lr}
     60c:	4a0e      	ldr	r2, [pc, #56]	; (648 <gpio_init+0x40>)
     60e:	4b0f      	ldr	r3, [pc, #60]	; (64c <gpio_init+0x44>)
     610:	0180      	lsls	r0, r0, #6
     612:	58d1      	ldr	r1, [r2, r3]
     614:	2580      	movs	r5, #128	; 0x80
     616:	4301      	orrs	r1, r0
     618:	2080      	movs	r0, #128	; 0x80
     61a:	50d1      	str	r1, [r2, r3]
     61c:	490c      	ldr	r1, [pc, #48]	; (650 <gpio_init+0x48>)
     61e:	0040      	lsls	r0, r0, #1
     620:	4c0c      	ldr	r4, [pc, #48]	; (654 <gpio_init+0x4c>)
     622:	6748      	str	r0, [r1, #116]	; 0x74
     624:	6961      	ldr	r1, [r4, #20]
     626:	05ad      	lsls	r5, r5, #22
     628:	4329      	orrs	r1, r5
     62a:	6161      	str	r1, [r4, #20]
     62c:	2480      	movs	r4, #128	; 0x80
     62e:	58d1      	ldr	r1, [r2, r3]
     630:	0164      	lsls	r4, r4, #5
     632:	4321      	orrs	r1, r4
     634:	50d1      	str	r1, [r2, r3]
     636:	2120      	movs	r1, #32
     638:	4b07      	ldr	r3, [pc, #28]	; (658 <gpio_init+0x50>)
     63a:	4a08      	ldr	r2, [pc, #32]	; (65c <gpio_init+0x54>)
     63c:	6158      	str	r0, [r3, #20]
     63e:	6953      	ldr	r3, [r2, #20]
     640:	430b      	orrs	r3, r1
     642:	6153      	str	r3, [r2, #20]
     644:	bd30      	pop	{r4, r5, pc}
     646:	46c0      	nop			; (mov r8, r8)
     648:	40047000 	andmi	r7, r4, r0
     64c:	00001038 	andeq	r1, r0, r8, lsr r0
     650:	4004d000 	andmi	sp, r4, r0
     654:	400ff100 	andmi	pc, pc, r0, lsl #2
     658:	4004c000 	andmi	ip, r4, r0
     65c:	400ff0c0 	andmi	pc, pc, r0, asr #1

00000660 <main>:
     660:	b51f      	push	{r0, r1, r2, r3, r4, lr}
     662:	f7ff ffd1 	bl	608 <gpio_init>
     666:	2180      	movs	r1, #128	; 0x80
     668:	4a16      	ldr	r2, [pc, #88]	; (6c4 <main+0x64>)
     66a:	0589      	lsls	r1, r1, #22
     66c:	6853      	ldr	r3, [r2, #4]
     66e:	2001      	movs	r0, #1
     670:	430b      	orrs	r3, r1
     672:	2120      	movs	r1, #32
     674:	6053      	str	r3, [r2, #4]
     676:	4a14      	ldr	r2, [pc, #80]	; (6c8 <main+0x68>)
     678:	6853      	ldr	r3, [r2, #4]
     67a:	430b      	orrs	r3, r1
     67c:	6053      	str	r3, [r2, #4]
     67e:	391c      	subs	r1, #28
     680:	2200      	movs	r2, #0
     682:	f000 f8f8 	bl	876 <xQueueGenericCreate>
     686:	4b11      	ldr	r3, [pc, #68]	; (6cc <main+0x6c>)
     688:	6018      	str	r0, [r3, #0]
     68a:	2800      	cmp	r0, #0
     68c:	d018      	beq.n	6c0 <main+0x60>
     68e:	2400      	movs	r4, #0
     690:	2302      	movs	r3, #2
     692:	22c8      	movs	r2, #200	; 0xc8
     694:	9300      	str	r3, [sp, #0]
     696:	490e      	ldr	r1, [pc, #56]	; (6d0 <main+0x70>)
     698:	0023      	movs	r3, r4
     69a:	9403      	str	r4, [sp, #12]
     69c:	9402      	str	r4, [sp, #8]
     69e:	9401      	str	r4, [sp, #4]
     6a0:	480c      	ldr	r0, [pc, #48]	; (6d4 <main+0x74>)
     6a2:	f000 fb23 	bl	cec <xTaskGenericCreate>
     6a6:	2301      	movs	r3, #1
     6a8:	22c8      	movs	r2, #200	; 0xc8
     6aa:	9300      	str	r3, [sp, #0]
     6ac:	490a      	ldr	r1, [pc, #40]	; (6d8 <main+0x78>)
     6ae:	0023      	movs	r3, r4
     6b0:	9403      	str	r4, [sp, #12]
     6b2:	9402      	str	r4, [sp, #8]
     6b4:	9401      	str	r4, [sp, #4]
     6b6:	4809      	ldr	r0, [pc, #36]	; (6dc <main+0x7c>)
     6b8:	f000 fb18 	bl	cec <xTaskGenericCreate>
     6bc:	f000 fbec 	bl	e98 <vTaskStartScheduler>
     6c0:	e7fe      	b.n	6c0 <main+0x60>
     6c2:	46c0      	nop			; (mov r8, r8)
     6c4:	400ff100 	andmi	pc, pc, r0, lsl #2
     6c8:	400ff0c0 	andmi	pc, pc, r0, asr #1
     6cc:	1fffe154 	svcne	0x00ffe154
     6d0:	00001d84 	andeq	r1, r0, r4, lsl #27
     6d4:	000005e1 	andeq	r0, r0, r1, ror #11
     6d8:	00001d87 	andeq	r1, r0, r7, lsl #27
     6dc:	00000599 	muleq	r0, r9, r5

000006e0 <pvPortMalloc>:
     6e0:	b510      	push	{r4, lr}
     6e2:	0004      	movs	r4, r0
     6e4:	f000 fc06 	bl	ef4 <vTaskSuspendAll>
     6e8:	0020      	movs	r0, r4
     6ea:	f001 fa2f 	bl	1b4c <malloc>
     6ee:	0004      	movs	r4, r0
     6f0:	f000 fc96 	bl	1020 <xTaskResumeAll>
     6f4:	0020      	movs	r0, r4
     6f6:	bd10      	pop	{r4, pc}

000006f8 <vPortFree>:
     6f8:	b510      	push	{r4, lr}
     6fa:	1e04      	subs	r4, r0, #0
     6fc:	d006      	beq.n	70c <vPortFree+0x14>
     6fe:	f000 fbf9 	bl	ef4 <vTaskSuspendAll>
     702:	0020      	movs	r0, r4
     704:	f001 fa2c 	bl	1b60 <free>
     708:	f000 fc8a 	bl	1020 <xTaskResumeAll>
     70c:	bd10      	pop	{r4, pc}

0000070e <prvCopyDataToQueue>:
     70e:	b570      	push	{r4, r5, r6, lr}
     710:	0015      	movs	r5, r2
     712:	6c02      	ldr	r2, [r0, #64]	; 0x40
     714:	0004      	movs	r4, r0
     716:	2a00      	cmp	r2, #0
     718:	d107      	bne.n	72a <prvCopyDataToQueue+0x1c>
     71a:	6805      	ldr	r5, [r0, #0]
     71c:	2d00      	cmp	r5, #0
     71e:	d12a      	bne.n	776 <prvCopyDataToQueue+0x68>
     720:	6840      	ldr	r0, [r0, #4]
     722:	f000 fe85 	bl	1430 <xTaskPriorityDisinherit>
     726:	6065      	str	r5, [r4, #4]
     728:	e026      	b.n	778 <prvCopyDataToQueue+0x6a>
     72a:	2d00      	cmp	r5, #0
     72c:	d10d      	bne.n	74a <prvCopyDataToQueue+0x3c>
     72e:	6880      	ldr	r0, [r0, #8]
     730:	f001 fa20 	bl	1b74 <memcpy>
     734:	68a3      	ldr	r3, [r4, #8]
     736:	6c22      	ldr	r2, [r4, #64]	; 0x40
     738:	189b      	adds	r3, r3, r2
     73a:	6862      	ldr	r2, [r4, #4]
     73c:	60a3      	str	r3, [r4, #8]
     73e:	4293      	cmp	r3, r2
     740:	d319      	bcc.n	776 <prvCopyDataToQueue+0x68>
     742:	6823      	ldr	r3, [r4, #0]
     744:	0028      	movs	r0, r5
     746:	60a3      	str	r3, [r4, #8]
     748:	e016      	b.n	778 <prvCopyDataToQueue+0x6a>
     74a:	68c0      	ldr	r0, [r0, #12]
     74c:	f001 fa12 	bl	1b74 <memcpy>
     750:	6c23      	ldr	r3, [r4, #64]	; 0x40
     752:	68e2      	ldr	r2, [r4, #12]
     754:	425b      	negs	r3, r3
     756:	6821      	ldr	r1, [r4, #0]
     758:	18d2      	adds	r2, r2, r3
     75a:	60e2      	str	r2, [r4, #12]
     75c:	428a      	cmp	r2, r1
     75e:	d202      	bcs.n	766 <prvCopyDataToQueue+0x58>
     760:	6862      	ldr	r2, [r4, #4]
     762:	18d3      	adds	r3, r2, r3
     764:	60e3      	str	r3, [r4, #12]
     766:	2d02      	cmp	r5, #2
     768:	d105      	bne.n	776 <prvCopyDataToQueue+0x68>
     76a:	6ba3      	ldr	r3, [r4, #56]	; 0x38
     76c:	2b00      	cmp	r3, #0
     76e:	d002      	beq.n	776 <prvCopyDataToQueue+0x68>
     770:	6ba3      	ldr	r3, [r4, #56]	; 0x38
     772:	3b01      	subs	r3, #1
     774:	63a3      	str	r3, [r4, #56]	; 0x38
     776:	2000      	movs	r0, #0
     778:	6ba3      	ldr	r3, [r4, #56]	; 0x38
     77a:	3301      	adds	r3, #1
     77c:	63a3      	str	r3, [r4, #56]	; 0x38
     77e:	bd70      	pop	{r4, r5, r6, pc}

00000780 <prvCopyDataFromQueue>:
     780:	0003      	movs	r3, r0
     782:	6c1a      	ldr	r2, [r3, #64]	; 0x40
     784:	b510      	push	{r4, lr}
     786:	0008      	movs	r0, r1
     788:	2a00      	cmp	r2, #0
     78a:	d00a      	beq.n	7a2 <prvCopyDataFromQueue+0x22>
     78c:	68d9      	ldr	r1, [r3, #12]
     78e:	685c      	ldr	r4, [r3, #4]
     790:	1889      	adds	r1, r1, r2
     792:	60d9      	str	r1, [r3, #12]
     794:	42a1      	cmp	r1, r4
     796:	d301      	bcc.n	79c <prvCopyDataFromQueue+0x1c>
     798:	6819      	ldr	r1, [r3, #0]
     79a:	60d9      	str	r1, [r3, #12]
     79c:	68d9      	ldr	r1, [r3, #12]
     79e:	f001 f9e9 	bl	1b74 <memcpy>
     7a2:	bd10      	pop	{r4, pc}

000007a4 <prvUnlockQueue>:
     7a4:	b510      	push	{r4, lr}
     7a6:	0004      	movs	r4, r0
     7a8:	f001 f8b6 	bl	1918 <vPortEnterCritical>
     7ac:	6ca3      	ldr	r3, [r4, #72]	; 0x48
     7ae:	2b00      	cmp	r3, #0
     7b0:	dd0e      	ble.n	7d0 <prvUnlockQueue+0x2c>
     7b2:	6a63      	ldr	r3, [r4, #36]	; 0x24
     7b4:	2b00      	cmp	r3, #0
     7b6:	d00b      	beq.n	7d0 <prvUnlockQueue+0x2c>
     7b8:	0020      	movs	r0, r4
     7ba:	3024      	adds	r0, #36	; 0x24
     7bc:	f000 fd6c 	bl	1298 <xTaskRemoveFromEventList>
     7c0:	2800      	cmp	r0, #0
     7c2:	d001      	beq.n	7c8 <prvUnlockQueue+0x24>
     7c4:	f000 fde8 	bl	1398 <vTaskMissedYield>
     7c8:	6ca3      	ldr	r3, [r4, #72]	; 0x48
     7ca:	3b01      	subs	r3, #1
     7cc:	64a3      	str	r3, [r4, #72]	; 0x48
     7ce:	e7ed      	b.n	7ac <prvUnlockQueue+0x8>
     7d0:	2301      	movs	r3, #1
     7d2:	425b      	negs	r3, r3
     7d4:	64a3      	str	r3, [r4, #72]	; 0x48
     7d6:	f001 f8b1 	bl	193c <vPortExitCritical>
     7da:	f001 f89d 	bl	1918 <vPortEnterCritical>
     7de:	6c63      	ldr	r3, [r4, #68]	; 0x44
     7e0:	2b00      	cmp	r3, #0
     7e2:	dd0e      	ble.n	802 <prvUnlockQueue+0x5e>
     7e4:	6923      	ldr	r3, [r4, #16]
     7e6:	2b00      	cmp	r3, #0
     7e8:	d00b      	beq.n	802 <prvUnlockQueue+0x5e>
     7ea:	0020      	movs	r0, r4
     7ec:	3010      	adds	r0, #16
     7ee:	f000 fd53 	bl	1298 <xTaskRemoveFromEventList>
     7f2:	2800      	cmp	r0, #0
     7f4:	d001      	beq.n	7fa <prvUnlockQueue+0x56>
     7f6:	f000 fdcf 	bl	1398 <vTaskMissedYield>
     7fa:	6c63      	ldr	r3, [r4, #68]	; 0x44
     7fc:	3b01      	subs	r3, #1
     7fe:	6463      	str	r3, [r4, #68]	; 0x44
     800:	e7ed      	b.n	7de <prvUnlockQueue+0x3a>
     802:	2301      	movs	r3, #1
     804:	425b      	negs	r3, r3
     806:	6463      	str	r3, [r4, #68]	; 0x44
     808:	f001 f898 	bl	193c <vPortExitCritical>
     80c:	bd10      	pop	{r4, pc}

0000080e <xQueueGenericReset>:
     80e:	b570      	push	{r4, r5, r6, lr}
     810:	0004      	movs	r4, r0
     812:	000d      	movs	r5, r1
     814:	2800      	cmp	r0, #0
     816:	d102      	bne.n	81e <xQueueGenericReset+0x10>
     818:	f001 f86a 	bl	18f0 <ulPortSetInterruptMask>
     81c:	e7fe      	b.n	81c <xQueueGenericReset+0xe>
     81e:	f001 f87b 	bl	1918 <vPortEnterCritical>
     822:	6c21      	ldr	r1, [r4, #64]	; 0x40
     824:	6be3      	ldr	r3, [r4, #60]	; 0x3c
     826:	6822      	ldr	r2, [r4, #0]
     828:	434b      	muls	r3, r1
     82a:	18d0      	adds	r0, r2, r3
     82c:	1a5b      	subs	r3, r3, r1
     82e:	18d3      	adds	r3, r2, r3
     830:	60e3      	str	r3, [r4, #12]
     832:	2301      	movs	r3, #1
     834:	6060      	str	r0, [r4, #4]
     836:	2000      	movs	r0, #0
     838:	425b      	negs	r3, r3
     83a:	63a0      	str	r0, [r4, #56]	; 0x38
     83c:	60a2      	str	r2, [r4, #8]
     83e:	6463      	str	r3, [r4, #68]	; 0x44
     840:	64a3      	str	r3, [r4, #72]	; 0x48
     842:	4285      	cmp	r5, r0
     844:	d10b      	bne.n	85e <xQueueGenericReset+0x50>
     846:	6923      	ldr	r3, [r4, #16]
     848:	4283      	cmp	r3, r0
     84a:	d010      	beq.n	86e <xQueueGenericReset+0x60>
     84c:	0020      	movs	r0, r4
     84e:	3010      	adds	r0, #16
     850:	f000 fd22 	bl	1298 <xTaskRemoveFromEventList>
     854:	2801      	cmp	r0, #1
     856:	d10a      	bne.n	86e <xQueueGenericReset+0x60>
     858:	f000 ffdc 	bl	1814 <vPortYieldFromISR>
     85c:	e007      	b.n	86e <xQueueGenericReset+0x60>
     85e:	0020      	movs	r0, r4
     860:	3010      	adds	r0, #16
     862:	f000 f9c4 	bl	bee <vListInitialise>
     866:	0020      	movs	r0, r4
     868:	3024      	adds	r0, #36	; 0x24
     86a:	f000 f9c0 	bl	bee <vListInitialise>
     86e:	f001 f865 	bl	193c <vPortExitCritical>
     872:	2001      	movs	r0, #1
     874:	bd70      	pop	{r4, r5, r6, pc}

00000876 <xQueueGenericCreate>:
     876:	b570      	push	{r4, r5, r6, lr}
     878:	0006      	movs	r6, r0
     87a:	000d      	movs	r5, r1
     87c:	2800      	cmp	r0, #0
     87e:	d102      	bne.n	886 <xQueueGenericCreate+0x10>
     880:	f001 f836 	bl	18f0 <ulPortSetInterruptMask>
     884:	e7fe      	b.n	884 <xQueueGenericCreate+0xe>
     886:	2000      	movs	r0, #0
     888:	4281      	cmp	r1, r0
     88a:	d002      	beq.n	892 <xQueueGenericCreate+0x1c>
     88c:	0008      	movs	r0, r1
     88e:	4370      	muls	r0, r6
     890:	3001      	adds	r0, #1
     892:	304c      	adds	r0, #76	; 0x4c
     894:	f7ff ff24 	bl	6e0 <pvPortMalloc>
     898:	1e04      	subs	r4, r0, #0
     89a:	d007      	beq.n	8ac <xQueueGenericCreate+0x36>
     89c:	2d00      	cmp	r5, #0
     89e:	d101      	bne.n	8a4 <xQueueGenericCreate+0x2e>
     8a0:	6020      	str	r0, [r4, #0]
     8a2:	e006      	b.n	8b2 <xQueueGenericCreate+0x3c>
     8a4:	0003      	movs	r3, r0
     8a6:	334c      	adds	r3, #76	; 0x4c
     8a8:	6003      	str	r3, [r0, #0]
     8aa:	e002      	b.n	8b2 <xQueueGenericCreate+0x3c>
     8ac:	f001 f820 	bl	18f0 <ulPortSetInterruptMask>
     8b0:	e7fe      	b.n	8b0 <xQueueGenericCreate+0x3a>
     8b2:	63e6      	str	r6, [r4, #60]	; 0x3c
     8b4:	6425      	str	r5, [r4, #64]	; 0x40
     8b6:	2101      	movs	r1, #1
     8b8:	0020      	movs	r0, r4
     8ba:	f7ff ffa8 	bl	80e <xQueueGenericReset>
     8be:	0020      	movs	r0, r4
     8c0:	bd70      	pop	{r4, r5, r6, pc}

000008c2 <xQueueGenericSend>:
     8c2:	b5f0      	push	{r4, r5, r6, r7, lr}
     8c4:	b085      	sub	sp, #20
     8c6:	0004      	movs	r4, r0
     8c8:	9100      	str	r1, [sp, #0]
     8ca:	9201      	str	r2, [sp, #4]
     8cc:	001d      	movs	r5, r3
     8ce:	2800      	cmp	r0, #0
     8d0:	d102      	bne.n	8d8 <xQueueGenericSend+0x16>
     8d2:	f001 f80d 	bl	18f0 <ulPortSetInterruptMask>
     8d6:	e7fe      	b.n	8d6 <xQueueGenericSend+0x14>
     8d8:	9b00      	ldr	r3, [sp, #0]
     8da:	2b00      	cmp	r3, #0
     8dc:	d105      	bne.n	8ea <xQueueGenericSend+0x28>
     8de:	6c03      	ldr	r3, [r0, #64]	; 0x40
     8e0:	2b00      	cmp	r3, #0
     8e2:	d002      	beq.n	8ea <xQueueGenericSend+0x28>
     8e4:	f001 f804 	bl	18f0 <ulPortSetInterruptMask>
     8e8:	e7fe      	b.n	8e8 <xQueueGenericSend+0x26>
     8ea:	2d02      	cmp	r5, #2
     8ec:	d105      	bne.n	8fa <xQueueGenericSend+0x38>
     8ee:	6be3      	ldr	r3, [r4, #60]	; 0x3c
     8f0:	2b01      	cmp	r3, #1
     8f2:	d002      	beq.n	8fa <xQueueGenericSend+0x38>
     8f4:	f000 fffc 	bl	18f0 <ulPortSetInterruptMask>
     8f8:	e7fe      	b.n	8f8 <xQueueGenericSend+0x36>
     8fa:	f000 fd53 	bl	13a4 <xTaskGetSchedulerState>
     8fe:	2700      	movs	r7, #0
     900:	2800      	cmp	r0, #0
     902:	d135      	bne.n	970 <xQueueGenericSend+0xae>
     904:	9f01      	ldr	r7, [sp, #4]
     906:	2f00      	cmp	r7, #0
     908:	d032      	beq.n	970 <xQueueGenericSend+0xae>
     90a:	e067      	b.n	9dc <xQueueGenericSend+0x11a>
     90c:	2f00      	cmp	r7, #0
     90e:	d102      	bne.n	916 <xQueueGenericSend+0x54>
     910:	a802      	add	r0, sp, #8
     912:	f000 fcfd 	bl	1310 <vTaskSetTimeOutState>
     916:	f001 f811 	bl	193c <vPortExitCritical>
     91a:	f000 faeb 	bl	ef4 <vTaskSuspendAll>
     91e:	f000 fffb 	bl	1918 <vPortEnterCritical>
     922:	6c63      	ldr	r3, [r4, #68]	; 0x44
     924:	3301      	adds	r3, #1
     926:	d101      	bne.n	92c <xQueueGenericSend+0x6a>
     928:	2300      	movs	r3, #0
     92a:	6463      	str	r3, [r4, #68]	; 0x44
     92c:	6ca3      	ldr	r3, [r4, #72]	; 0x48
     92e:	3301      	adds	r3, #1
     930:	d101      	bne.n	936 <xQueueGenericSend+0x74>
     932:	2300      	movs	r3, #0
     934:	64a3      	str	r3, [r4, #72]	; 0x48
     936:	f001 f801 	bl	193c <vPortExitCritical>
     93a:	a901      	add	r1, sp, #4
     93c:	a802      	add	r0, sp, #8
     93e:	f000 fcf9 	bl	1334 <xTaskCheckForTimeOut>
     942:	2800      	cmp	r0, #0
     944:	d143      	bne.n	9ce <xQueueGenericSend+0x10c>
     946:	f000 ffe7 	bl	1918 <vPortEnterCritical>
     94a:	6ba7      	ldr	r7, [r4, #56]	; 0x38
     94c:	6be6      	ldr	r6, [r4, #60]	; 0x3c
     94e:	f000 fff5 	bl	193c <vPortExitCritical>
     952:	42b7      	cmp	r7, r6
     954:	d135      	bne.n	9c2 <xQueueGenericSend+0x100>
     956:	0020      	movs	r0, r4
     958:	9901      	ldr	r1, [sp, #4]
     95a:	3010      	adds	r0, #16
     95c:	f000 fc5e 	bl	121c <vTaskPlaceOnEventList>
     960:	0020      	movs	r0, r4
     962:	f7ff ff1f 	bl	7a4 <prvUnlockQueue>
     966:	f000 fb5b 	bl	1020 <xTaskResumeAll>
     96a:	2800      	cmp	r0, #0
     96c:	d026      	beq.n	9bc <xQueueGenericSend+0xfa>
     96e:	2701      	movs	r7, #1
     970:	f000 ffd2 	bl	1918 <vPortEnterCritical>
     974:	6ba3      	ldr	r3, [r4, #56]	; 0x38
     976:	6be2      	ldr	r2, [r4, #60]	; 0x3c
     978:	4293      	cmp	r3, r2
     97a:	d301      	bcc.n	980 <xQueueGenericSend+0xbe>
     97c:	2d02      	cmp	r5, #2
     97e:	d116      	bne.n	9ae <xQueueGenericSend+0xec>
     980:	002a      	movs	r2, r5
     982:	9900      	ldr	r1, [sp, #0]
     984:	0020      	movs	r0, r4
     986:	f7ff fec2 	bl	70e <prvCopyDataToQueue>
     98a:	6a63      	ldr	r3, [r4, #36]	; 0x24
     98c:	2b00      	cmp	r3, #0
     98e:	d008      	beq.n	9a2 <xQueueGenericSend+0xe0>
     990:	0020      	movs	r0, r4
     992:	3024      	adds	r0, #36	; 0x24
     994:	f000 fc80 	bl	1298 <xTaskRemoveFromEventList>
     998:	2801      	cmp	r0, #1
     99a:	d104      	bne.n	9a6 <xQueueGenericSend+0xe4>
     99c:	f000 ff3a 	bl	1814 <vPortYieldFromISR>
     9a0:	e001      	b.n	9a6 <xQueueGenericSend+0xe4>
     9a2:	2800      	cmp	r0, #0
     9a4:	d1fa      	bne.n	99c <xQueueGenericSend+0xda>
     9a6:	f000 ffc9 	bl	193c <vPortExitCritical>
     9aa:	2001      	movs	r0, #1
     9ac:	e019      	b.n	9e2 <xQueueGenericSend+0x120>
     9ae:	9e01      	ldr	r6, [sp, #4]
     9b0:	2e00      	cmp	r6, #0
     9b2:	d1ab      	bne.n	90c <xQueueGenericSend+0x4a>
     9b4:	f000 ffc2 	bl	193c <vPortExitCritical>
     9b8:	0030      	movs	r0, r6
     9ba:	e012      	b.n	9e2 <xQueueGenericSend+0x120>
     9bc:	f000 ff2a 	bl	1814 <vPortYieldFromISR>
     9c0:	e7d5      	b.n	96e <xQueueGenericSend+0xac>
     9c2:	0020      	movs	r0, r4
     9c4:	f7ff feee 	bl	7a4 <prvUnlockQueue>
     9c8:	f000 fb2a 	bl	1020 <xTaskResumeAll>
     9cc:	e7cf      	b.n	96e <xQueueGenericSend+0xac>
     9ce:	0020      	movs	r0, r4
     9d0:	f7ff fee8 	bl	7a4 <prvUnlockQueue>
     9d4:	f000 fb24 	bl	1020 <xTaskResumeAll>
     9d8:	2000      	movs	r0, #0
     9da:	e002      	b.n	9e2 <xQueueGenericSend+0x120>
     9dc:	f000 ff88 	bl	18f0 <ulPortSetInterruptMask>
     9e0:	e7fe      	b.n	9e0 <xQueueGenericSend+0x11e>
     9e2:	b005      	add	sp, #20
     9e4:	bdf0      	pop	{r4, r5, r6, r7, pc}

000009e6 <xQueueGenericSendFromISR>:
     9e6:	b5f7      	push	{r0, r1, r2, r4, r5, r6, r7, lr}
     9e8:	0004      	movs	r4, r0
     9ea:	9100      	str	r1, [sp, #0]
     9ec:	0017      	movs	r7, r2
     9ee:	001e      	movs	r6, r3
     9f0:	2800      	cmp	r0, #0
     9f2:	d102      	bne.n	9fa <xQueueGenericSendFromISR+0x14>
     9f4:	f000 ff7c 	bl	18f0 <ulPortSetInterruptMask>
     9f8:	e7fe      	b.n	9f8 <xQueueGenericSendFromISR+0x12>
     9fa:	9b00      	ldr	r3, [sp, #0]
     9fc:	2b00      	cmp	r3, #0
     9fe:	d105      	bne.n	a0c <xQueueGenericSendFromISR+0x26>
     a00:	6c03      	ldr	r3, [r0, #64]	; 0x40
     a02:	2b00      	cmp	r3, #0
     a04:	d002      	beq.n	a0c <xQueueGenericSendFromISR+0x26>
     a06:	f000 ff73 	bl	18f0 <ulPortSetInterruptMask>
     a0a:	e7fe      	b.n	a0a <xQueueGenericSendFromISR+0x24>
     a0c:	2e02      	cmp	r6, #2
     a0e:	d105      	bne.n	a1c <xQueueGenericSendFromISR+0x36>
     a10:	6be3      	ldr	r3, [r4, #60]	; 0x3c
     a12:	2b01      	cmp	r3, #1
     a14:	d002      	beq.n	a1c <xQueueGenericSendFromISR+0x36>
     a16:	f000 ff6b 	bl	18f0 <ulPortSetInterruptMask>
     a1a:	e7fe      	b.n	a1a <xQueueGenericSendFromISR+0x34>
     a1c:	f000 ff68 	bl	18f0 <ulPortSetInterruptMask>
     a20:	6ba3      	ldr	r3, [r4, #56]	; 0x38
     a22:	6be2      	ldr	r2, [r4, #60]	; 0x3c
     a24:	9001      	str	r0, [sp, #4]
     a26:	4293      	cmp	r3, r2
     a28:	d302      	bcc.n	a30 <xQueueGenericSendFromISR+0x4a>
     a2a:	2500      	movs	r5, #0
     a2c:	2e02      	cmp	r6, #2
     a2e:	d119      	bne.n	a64 <xQueueGenericSendFromISR+0x7e>
     a30:	0032      	movs	r2, r6
     a32:	9900      	ldr	r1, [sp, #0]
     a34:	0020      	movs	r0, r4
     a36:	f7ff fe6a 	bl	70e <prvCopyDataToQueue>
     a3a:	6ca3      	ldr	r3, [r4, #72]	; 0x48
     a3c:	3301      	adds	r3, #1
     a3e:	d10d      	bne.n	a5c <xQueueGenericSendFromISR+0x76>
     a40:	6a63      	ldr	r3, [r4, #36]	; 0x24
     a42:	2b00      	cmp	r3, #0
     a44:	d00d      	beq.n	a62 <xQueueGenericSendFromISR+0x7c>
     a46:	0020      	movs	r0, r4
     a48:	3024      	adds	r0, #36	; 0x24
     a4a:	f000 fc25 	bl	1298 <xTaskRemoveFromEventList>
     a4e:	2800      	cmp	r0, #0
     a50:	d007      	beq.n	a62 <xQueueGenericSendFromISR+0x7c>
     a52:	2f00      	cmp	r7, #0
     a54:	d005      	beq.n	a62 <xQueueGenericSendFromISR+0x7c>
     a56:	2501      	movs	r5, #1
     a58:	603d      	str	r5, [r7, #0]
     a5a:	e003      	b.n	a64 <xQueueGenericSendFromISR+0x7e>
     a5c:	6ca3      	ldr	r3, [r4, #72]	; 0x48
     a5e:	3301      	adds	r3, #1
     a60:	64a3      	str	r3, [r4, #72]	; 0x48
     a62:	2501      	movs	r5, #1
     a64:	9801      	ldr	r0, [sp, #4]
     a66:	f000 ff65 	bl	1934 <vPortClearInterruptMask>
     a6a:	0028      	movs	r0, r5
     a6c:	bdfe      	pop	{r1, r2, r3, r4, r5, r6, r7, pc}

00000a6e <xQueueGenericReceive>:
     a6e:	b5f0      	push	{r4, r5, r6, r7, lr}
     a70:	b085      	sub	sp, #20
     a72:	0004      	movs	r4, r0
     a74:	000f      	movs	r7, r1
     a76:	9201      	str	r2, [sp, #4]
     a78:	9300      	str	r3, [sp, #0]
     a7a:	2800      	cmp	r0, #0
     a7c:	d102      	bne.n	a84 <xQueueGenericReceive+0x16>
     a7e:	f000 ff37 	bl	18f0 <ulPortSetInterruptMask>
     a82:	e7fe      	b.n	a82 <xQueueGenericReceive+0x14>
     a84:	2900      	cmp	r1, #0
     a86:	d105      	bne.n	a94 <xQueueGenericReceive+0x26>
     a88:	6c03      	ldr	r3, [r0, #64]	; 0x40
     a8a:	2b00      	cmp	r3, #0
     a8c:	d002      	beq.n	a94 <xQueueGenericReceive+0x26>
     a8e:	f000 ff2f 	bl	18f0 <ulPortSetInterruptMask>
     a92:	e7fe      	b.n	a92 <xQueueGenericReceive+0x24>
     a94:	f000 fc86 	bl	13a4 <xTaskGetSchedulerState>
     a98:	2600      	movs	r6, #0
     a9a:	2800      	cmp	r0, #0
     a9c:	d13e      	bne.n	b1c <xQueueGenericReceive+0xae>
     a9e:	9e01      	ldr	r6, [sp, #4]
     aa0:	2e00      	cmp	r6, #0
     aa2:	d03b      	beq.n	b1c <xQueueGenericReceive+0xae>
     aa4:	e081      	b.n	baa <xQueueGenericReceive+0x13c>
     aa6:	2e00      	cmp	r6, #0
     aa8:	d102      	bne.n	ab0 <xQueueGenericReceive+0x42>
     aaa:	a802      	add	r0, sp, #8
     aac:	f000 fc30 	bl	1310 <vTaskSetTimeOutState>
     ab0:	f000 ff44 	bl	193c <vPortExitCritical>
     ab4:	f000 fa1e 	bl	ef4 <vTaskSuspendAll>
     ab8:	f000 ff2e 	bl	1918 <vPortEnterCritical>
     abc:	6c63      	ldr	r3, [r4, #68]	; 0x44
     abe:	3301      	adds	r3, #1
     ac0:	d101      	bne.n	ac6 <xQueueGenericReceive+0x58>
     ac2:	2300      	movs	r3, #0
     ac4:	6463      	str	r3, [r4, #68]	; 0x44
     ac6:	6ca3      	ldr	r3, [r4, #72]	; 0x48
     ac8:	3301      	adds	r3, #1
     aca:	d101      	bne.n	ad0 <xQueueGenericReceive+0x62>
     acc:	2300      	movs	r3, #0
     ace:	64a3      	str	r3, [r4, #72]	; 0x48
     ad0:	f000 ff34 	bl	193c <vPortExitCritical>
     ad4:	a901      	add	r1, sp, #4
     ad6:	a802      	add	r0, sp, #8
     ad8:	f000 fc2c 	bl	1334 <xTaskCheckForTimeOut>
     adc:	2800      	cmp	r0, #0
     ade:	d15d      	bne.n	b9c <xQueueGenericReceive+0x12e>
     ae0:	f000 ff1a 	bl	1918 <vPortEnterCritical>
     ae4:	6ba5      	ldr	r5, [r4, #56]	; 0x38
     ae6:	f000 ff29 	bl	193c <vPortExitCritical>
     aea:	2d00      	cmp	r5, #0
     aec:	d150      	bne.n	b90 <xQueueGenericReceive+0x122>
     aee:	6823      	ldr	r3, [r4, #0]
     af0:	2b00      	cmp	r3, #0
     af2:	d106      	bne.n	b02 <xQueueGenericReceive+0x94>
     af4:	f000 ff10 	bl	1918 <vPortEnterCritical>
     af8:	6860      	ldr	r0, [r4, #4]
     afa:	f000 fc63 	bl	13c4 <vTaskPriorityInherit>
     afe:	f000 ff1d 	bl	193c <vPortExitCritical>
     b02:	0020      	movs	r0, r4
     b04:	9901      	ldr	r1, [sp, #4]
     b06:	3024      	adds	r0, #36	; 0x24
     b08:	f000 fb88 	bl	121c <vTaskPlaceOnEventList>
     b0c:	0020      	movs	r0, r4
     b0e:	f7ff fe49 	bl	7a4 <prvUnlockQueue>
     b12:	f000 fa85 	bl	1020 <xTaskResumeAll>
     b16:	2800      	cmp	r0, #0
     b18:	d037      	beq.n	b8a <xQueueGenericReceive+0x11c>
     b1a:	2601      	movs	r6, #1
     b1c:	f000 fefc 	bl	1918 <vPortEnterCritical>
     b20:	6ba3      	ldr	r3, [r4, #56]	; 0x38
     b22:	2b00      	cmp	r3, #0
     b24:	d02a      	beq.n	b7c <xQueueGenericReceive+0x10e>
     b26:	0039      	movs	r1, r7
     b28:	0020      	movs	r0, r4
     b2a:	68e5      	ldr	r5, [r4, #12]
     b2c:	f7ff fe28 	bl	780 <prvCopyDataFromQueue>
     b30:	9b00      	ldr	r3, [sp, #0]
     b32:	2b00      	cmp	r3, #0
     b34:	d114      	bne.n	b60 <xQueueGenericReceive+0xf2>
     b36:	6ba3      	ldr	r3, [r4, #56]	; 0x38
     b38:	3b01      	subs	r3, #1
     b3a:	63a3      	str	r3, [r4, #56]	; 0x38
     b3c:	6823      	ldr	r3, [r4, #0]
     b3e:	2b00      	cmp	r3, #0
     b40:	d102      	bne.n	b48 <xQueueGenericReceive+0xda>
     b42:	f000 fca3 	bl	148c <pvTaskIncrementMutexHeldCount>
     b46:	6060      	str	r0, [r4, #4]
     b48:	6923      	ldr	r3, [r4, #16]
     b4a:	2b00      	cmp	r3, #0
     b4c:	d012      	beq.n	b74 <xQueueGenericReceive+0x106>
     b4e:	0020      	movs	r0, r4
     b50:	3010      	adds	r0, #16
     b52:	f000 fba1 	bl	1298 <xTaskRemoveFromEventList>
     b56:	2801      	cmp	r0, #1
     b58:	d10c      	bne.n	b74 <xQueueGenericReceive+0x106>
     b5a:	f000 fe5b 	bl	1814 <vPortYieldFromISR>
     b5e:	e009      	b.n	b74 <xQueueGenericReceive+0x106>
     b60:	6a63      	ldr	r3, [r4, #36]	; 0x24
     b62:	60e5      	str	r5, [r4, #12]
     b64:	2b00      	cmp	r3, #0
     b66:	d005      	beq.n	b74 <xQueueGenericReceive+0x106>
     b68:	0020      	movs	r0, r4
     b6a:	3024      	adds	r0, #36	; 0x24
     b6c:	f000 fb94 	bl	1298 <xTaskRemoveFromEventList>
     b70:	2800      	cmp	r0, #0
     b72:	d1f2      	bne.n	b5a <xQueueGenericReceive+0xec>
     b74:	f000 fee2 	bl	193c <vPortExitCritical>
     b78:	2001      	movs	r0, #1
     b7a:	e019      	b.n	bb0 <xQueueGenericReceive+0x142>
     b7c:	9d01      	ldr	r5, [sp, #4]
     b7e:	2d00      	cmp	r5, #0
     b80:	d191      	bne.n	aa6 <xQueueGenericReceive+0x38>
     b82:	f000 fedb 	bl	193c <vPortExitCritical>
     b86:	0028      	movs	r0, r5
     b88:	e012      	b.n	bb0 <xQueueGenericReceive+0x142>
     b8a:	f000 fe43 	bl	1814 <vPortYieldFromISR>
     b8e:	e7c4      	b.n	b1a <xQueueGenericReceive+0xac>
     b90:	0020      	movs	r0, r4
     b92:	f7ff fe07 	bl	7a4 <prvUnlockQueue>
     b96:	f000 fa43 	bl	1020 <xTaskResumeAll>
     b9a:	e7be      	b.n	b1a <xQueueGenericReceive+0xac>
     b9c:	0020      	movs	r0, r4
     b9e:	f7ff fe01 	bl	7a4 <prvUnlockQueue>
     ba2:	f000 fa3d 	bl	1020 <xTaskResumeAll>
     ba6:	2000      	movs	r0, #0
     ba8:	e002      	b.n	bb0 <xQueueGenericReceive+0x142>
     baa:	f000 fea1 	bl	18f0 <ulPortSetInterruptMask>
     bae:	e7fe      	b.n	bae <xQueueGenericReceive+0x140>
     bb0:	b005      	add	sp, #20
     bb2:	bdf0      	pop	{r4, r5, r6, r7, pc}

00000bb4 <vQueueWaitForMessageRestricted>:
     bb4:	b570      	push	{r4, r5, r6, lr}
     bb6:	0004      	movs	r4, r0
     bb8:	000d      	movs	r5, r1
     bba:	f000 fead 	bl	1918 <vPortEnterCritical>
     bbe:	6c63      	ldr	r3, [r4, #68]	; 0x44
     bc0:	3301      	adds	r3, #1
     bc2:	d101      	bne.n	bc8 <vQueueWaitForMessageRestricted+0x14>
     bc4:	2300      	movs	r3, #0
     bc6:	6463      	str	r3, [r4, #68]	; 0x44
     bc8:	6ca3      	ldr	r3, [r4, #72]	; 0x48
     bca:	3301      	adds	r3, #1
     bcc:	d101      	bne.n	bd2 <vQueueWaitForMessageRestricted+0x1e>
     bce:	2300      	movs	r3, #0
     bd0:	64a3      	str	r3, [r4, #72]	; 0x48
     bd2:	f000 feb3 	bl	193c <vPortExitCritical>
     bd6:	6ba3      	ldr	r3, [r4, #56]	; 0x38
     bd8:	2b00      	cmp	r3, #0
     bda:	d104      	bne.n	be6 <vQueueWaitForMessageRestricted+0x32>
     bdc:	0020      	movs	r0, r4
     bde:	0029      	movs	r1, r5
     be0:	3024      	adds	r0, #36	; 0x24
     be2:	f000 fb3f 	bl	1264 <vTaskPlaceOnEventListRestricted>
     be6:	0020      	movs	r0, r4
     be8:	f7ff fddc 	bl	7a4 <prvUnlockQueue>
     bec:	bd70      	pop	{r4, r5, r6, pc}

00000bee <vListInitialise>:
     bee:	0003      	movs	r3, r0
     bf0:	2201      	movs	r2, #1
     bf2:	3308      	adds	r3, #8
     bf4:	6043      	str	r3, [r0, #4]
     bf6:	60c3      	str	r3, [r0, #12]
     bf8:	6103      	str	r3, [r0, #16]
     bfa:	2300      	movs	r3, #0
     bfc:	4252      	negs	r2, r2
     bfe:	6082      	str	r2, [r0, #8]
     c00:	6003      	str	r3, [r0, #0]
     c02:	4770      	bx	lr

00000c04 <vListInitialiseItem>:
     c04:	2300      	movs	r3, #0
     c06:	6103      	str	r3, [r0, #16]
     c08:	4770      	bx	lr

00000c0a <vListInsertEnd>:
     c0a:	6843      	ldr	r3, [r0, #4]
     c0c:	604b      	str	r3, [r1, #4]
     c0e:	689a      	ldr	r2, [r3, #8]
     c10:	608a      	str	r2, [r1, #8]
     c12:	689a      	ldr	r2, [r3, #8]
     c14:	6051      	str	r1, [r2, #4]
     c16:	6099      	str	r1, [r3, #8]
     c18:	6108      	str	r0, [r1, #16]
     c1a:	6803      	ldr	r3, [r0, #0]
     c1c:	3301      	adds	r3, #1
     c1e:	6003      	str	r3, [r0, #0]
     c20:	4770      	bx	lr

00000c22 <vListInsert>:
     c22:	0003      	movs	r3, r0
     c24:	680a      	ldr	r2, [r1, #0]
     c26:	b530      	push	{r4, r5, lr}
     c28:	3308      	adds	r3, #8
     c2a:	1c54      	adds	r4, r2, #1
     c2c:	d101      	bne.n	c32 <vListInsert+0x10>
     c2e:	6903      	ldr	r3, [r0, #16]
     c30:	e005      	b.n	c3e <vListInsert+0x1c>
     c32:	685c      	ldr	r4, [r3, #4]
     c34:	6825      	ldr	r5, [r4, #0]
     c36:	42aa      	cmp	r2, r5
     c38:	d301      	bcc.n	c3e <vListInsert+0x1c>
     c3a:	0023      	movs	r3, r4
     c3c:	e7f9      	b.n	c32 <vListInsert+0x10>
     c3e:	685a      	ldr	r2, [r3, #4]
     c40:	604a      	str	r2, [r1, #4]
     c42:	6091      	str	r1, [r2, #8]
     c44:	608b      	str	r3, [r1, #8]
     c46:	6059      	str	r1, [r3, #4]
     c48:	6108      	str	r0, [r1, #16]
     c4a:	6803      	ldr	r3, [r0, #0]
     c4c:	3301      	adds	r3, #1
     c4e:	6003      	str	r3, [r0, #0]
     c50:	bd30      	pop	{r4, r5, pc}

00000c52 <uxListRemove>:
     c52:	6842      	ldr	r2, [r0, #4]
     c54:	6881      	ldr	r1, [r0, #8]
     c56:	6903      	ldr	r3, [r0, #16]
     c58:	6091      	str	r1, [r2, #8]
     c5a:	6882      	ldr	r2, [r0, #8]
     c5c:	6841      	ldr	r1, [r0, #4]
     c5e:	6051      	str	r1, [r2, #4]
     c60:	685a      	ldr	r2, [r3, #4]
     c62:	4290      	cmp	r0, r2
     c64:	d101      	bne.n	c6a <uxListRemove+0x18>
     c66:	6882      	ldr	r2, [r0, #8]
     c68:	605a      	str	r2, [r3, #4]
     c6a:	2200      	movs	r2, #0
     c6c:	6102      	str	r2, [r0, #16]
     c6e:	681a      	ldr	r2, [r3, #0]
     c70:	1e50      	subs	r0, r2, #1
     c72:	6018      	str	r0, [r3, #0]
     c74:	4770      	bx	lr
	...

00000c78 <prvResetNextTaskUnblockTime>:
     c78:	4a07      	ldr	r2, [pc, #28]	; (c98 <prvResetNextTaskUnblockTime+0x20>)
     c7a:	6813      	ldr	r3, [r2, #0]
     c7c:	6819      	ldr	r1, [r3, #0]
     c7e:	4b07      	ldr	r3, [pc, #28]	; (c9c <prvResetNextTaskUnblockTime+0x24>)
     c80:	2900      	cmp	r1, #0
     c82:	d102      	bne.n	c8a <prvResetNextTaskUnblockTime+0x12>
     c84:	2201      	movs	r2, #1
     c86:	4252      	negs	r2, r2
     c88:	e003      	b.n	c92 <prvResetNextTaskUnblockTime+0x1a>
     c8a:	6812      	ldr	r2, [r2, #0]
     c8c:	68d2      	ldr	r2, [r2, #12]
     c8e:	68d2      	ldr	r2, [r2, #12]
     c90:	6852      	ldr	r2, [r2, #4]
     c92:	601a      	str	r2, [r3, #0]
     c94:	4770      	bx	lr
     c96:	46c0      	nop			; (mov r8, r8)
     c98:	1fffe15c 	svcne	0x00ffe15c
     c9c:	1fffe0c4 	svcne	0x00ffe0c4

00000ca0 <prvAddCurrentTaskToDelayedList>:
     ca0:	b510      	push	{r4, lr}
     ca2:	4b0d      	ldr	r3, [pc, #52]	; (cd8 <prvAddCurrentTaskToDelayedList+0x38>)
     ca4:	0004      	movs	r4, r0
     ca6:	681a      	ldr	r2, [r3, #0]
     ca8:	6050      	str	r0, [r2, #4]
     caa:	4a0c      	ldr	r2, [pc, #48]	; (cdc <prvAddCurrentTaskToDelayedList+0x3c>)
     cac:	6812      	ldr	r2, [r2, #0]
     cae:	4290      	cmp	r0, r2
     cb0:	d206      	bcs.n	cc0 <prvAddCurrentTaskToDelayedList+0x20>
     cb2:	4a0b      	ldr	r2, [pc, #44]	; (ce0 <prvAddCurrentTaskToDelayedList+0x40>)
     cb4:	6810      	ldr	r0, [r2, #0]
     cb6:	6819      	ldr	r1, [r3, #0]
     cb8:	3104      	adds	r1, #4
     cba:	f7ff ffb2 	bl	c22 <vListInsert>
     cbe:	e00a      	b.n	cd6 <prvAddCurrentTaskToDelayedList+0x36>
     cc0:	4a08      	ldr	r2, [pc, #32]	; (ce4 <prvAddCurrentTaskToDelayedList+0x44>)
     cc2:	6810      	ldr	r0, [r2, #0]
     cc4:	6819      	ldr	r1, [r3, #0]
     cc6:	3104      	adds	r1, #4
     cc8:	f7ff ffab 	bl	c22 <vListInsert>
     ccc:	4b06      	ldr	r3, [pc, #24]	; (ce8 <prvAddCurrentTaskToDelayedList+0x48>)
     cce:	681a      	ldr	r2, [r3, #0]
     cd0:	4294      	cmp	r4, r2
     cd2:	d200      	bcs.n	cd6 <prvAddCurrentTaskToDelayedList+0x36>
     cd4:	601c      	str	r4, [r3, #0]
     cd6:	bd10      	pop	{r4, pc}
     cd8:	1fffe310 	svcne	0x00ffe310
     cdc:	1fffe32c 	svcne	0x00ffe32c
     ce0:	1fffe330 	svcne	0x00ffe330
     ce4:	1fffe15c 	svcne	0x00ffe15c
     ce8:	1fffe0c4 	svcne	0x00ffe0c4

00000cec <xTaskGenericCreate>:
     cec:	b5f7      	push	{r0, r1, r2, r4, r5, r6, r7, lr}
     cee:	0006      	movs	r6, r0
     cf0:	9100      	str	r1, [sp, #0]
     cf2:	0017      	movs	r7, r2
     cf4:	9301      	str	r3, [sp, #4]
     cf6:	2800      	cmp	r0, #0
     cf8:	d102      	bne.n	d00 <xTaskGenericCreate+0x14>
     cfa:	f000 fdf9 	bl	18f0 <ulPortSetInterruptMask>
     cfe:	e7fe      	b.n	cfe <xTaskGenericCreate+0x12>
     d00:	9b08      	ldr	r3, [sp, #32]
     d02:	2b11      	cmp	r3, #17
     d04:	d902      	bls.n	d0c <xTaskGenericCreate+0x20>
     d06:	f000 fdf3 	bl	18f0 <ulPortSetInterruptMask>
     d0a:	e7fe      	b.n	d0a <xTaskGenericCreate+0x1e>
     d0c:	9d0a      	ldr	r5, [sp, #40]	; 0x28
     d0e:	2d00      	cmp	r5, #0
     d10:	d105      	bne.n	d1e <xTaskGenericCreate+0x32>
     d12:	0090      	lsls	r0, r2, #2
     d14:	f7ff fce4 	bl	6e0 <pvPortMalloc>
     d18:	1e05      	subs	r5, r0, #0
     d1a:	d100      	bne.n	d1e <xTaskGenericCreate+0x32>
     d1c:	e09e      	b.n	e5c <xTaskGenericCreate+0x170>
     d1e:	2050      	movs	r0, #80	; 0x50
     d20:	f7ff fcde 	bl	6e0 <pvPortMalloc>
     d24:	1e04      	subs	r4, r0, #0
     d26:	d00d      	beq.n	d44 <xTaskGenericCreate+0x58>
     d28:	00bf      	lsls	r7, r7, #2
     d2a:	6305      	str	r5, [r0, #48]	; 0x30
     d2c:	003a      	movs	r2, r7
     d2e:	21a5      	movs	r1, #165	; 0xa5
     d30:	0028      	movs	r0, r5
     d32:	f000 ff28 	bl	1b86 <memset>
     d36:	6b23      	ldr	r3, [r4, #48]	; 0x30
     d38:	3f04      	subs	r7, #4
     d3a:	19df      	adds	r7, r3, r7
     d3c:	2307      	movs	r3, #7
     d3e:	439f      	bics	r7, r3
     d40:	2300      	movs	r3, #0
     d42:	e006      	b.n	d52 <xTaskGenericCreate+0x66>
     d44:	0028      	movs	r0, r5
     d46:	f7ff fcd7 	bl	6f8 <vPortFree>
     d4a:	e087      	b.n	e5c <xTaskGenericCreate+0x170>
     d4c:	3301      	adds	r3, #1
     d4e:	2b0c      	cmp	r3, #12
     d50:	d008      	beq.n	d64 <xTaskGenericCreate+0x78>
     d52:	9a00      	ldr	r2, [sp, #0]
     d54:	5cd1      	ldrb	r1, [r2, r3]
     d56:	001a      	movs	r2, r3
     d58:	3234      	adds	r2, #52	; 0x34
     d5a:	54a1      	strb	r1, [r4, r2]
     d5c:	9a00      	ldr	r2, [sp, #0]
     d5e:	5cd2      	ldrb	r2, [r2, r3]
     d60:	2a00      	cmp	r2, #0
     d62:	d1f3      	bne.n	d4c <xTaskGenericCreate+0x60>
     d64:	0023      	movs	r3, r4
     d66:	2500      	movs	r5, #0
     d68:	333f      	adds	r3, #63	; 0x3f
     d6a:	701d      	strb	r5, [r3, #0]
     d6c:	9b08      	ldr	r3, [sp, #32]
     d6e:	6465      	str	r5, [r4, #68]	; 0x44
     d70:	62e3      	str	r3, [r4, #44]	; 0x2c
     d72:	6423      	str	r3, [r4, #64]	; 0x40
     d74:	1d23      	adds	r3, r4, #4
     d76:	0018      	movs	r0, r3
     d78:	9300      	str	r3, [sp, #0]
     d7a:	f7ff ff43 	bl	c04 <vListInitialiseItem>
     d7e:	0020      	movs	r0, r4
     d80:	3018      	adds	r0, #24
     d82:	f7ff ff3f 	bl	c04 <vListInitialiseItem>
     d86:	2312      	movs	r3, #18
     d88:	9a08      	ldr	r2, [sp, #32]
     d8a:	6124      	str	r4, [r4, #16]
     d8c:	1a9b      	subs	r3, r3, r2
     d8e:	61a3      	str	r3, [r4, #24]
     d90:	0023      	movs	r3, r4
     d92:	334c      	adds	r3, #76	; 0x4c
     d94:	6264      	str	r4, [r4, #36]	; 0x24
     d96:	64a5      	str	r5, [r4, #72]	; 0x48
     d98:	9a01      	ldr	r2, [sp, #4]
     d9a:	701d      	strb	r5, [r3, #0]
     d9c:	0031      	movs	r1, r6
     d9e:	0038      	movs	r0, r7
     da0:	f000 fd08 	bl	17b4 <pxPortInitialiseStack>
     da4:	9b09      	ldr	r3, [sp, #36]	; 0x24
     da6:	6020      	str	r0, [r4, #0]
     da8:	42ab      	cmp	r3, r5
     daa:	d000      	beq.n	dae <xTaskGenericCreate+0xc2>
     dac:	601c      	str	r4, [r3, #0]
     dae:	f000 fdb3 	bl	1918 <vPortEnterCritical>
     db2:	4b2c      	ldr	r3, [pc, #176]	; (e64 <xTaskGenericCreate+0x178>)
     db4:	4d2c      	ldr	r5, [pc, #176]	; (e68 <xTaskGenericCreate+0x17c>)
     db6:	681a      	ldr	r2, [r3, #0]
     db8:	3201      	adds	r2, #1
     dba:	601a      	str	r2, [r3, #0]
     dbc:	682e      	ldr	r6, [r5, #0]
     dbe:	2e00      	cmp	r6, #0
     dc0:	d122      	bne.n	e08 <xTaskGenericCreate+0x11c>
     dc2:	602c      	str	r4, [r5, #0]
     dc4:	681b      	ldr	r3, [r3, #0]
     dc6:	2b01      	cmp	r3, #1
     dc8:	d128      	bne.n	e1c <xTaskGenericCreate+0x130>
     dca:	27b4      	movs	r7, #180	; 0xb4
     dcc:	007f      	lsls	r7, r7, #1
     dce:	4b27      	ldr	r3, [pc, #156]	; (e6c <xTaskGenericCreate+0x180>)
     dd0:	1998      	adds	r0, r3, r6
     dd2:	3614      	adds	r6, #20
     dd4:	f7ff ff0b 	bl	bee <vListInitialise>
     dd8:	42be      	cmp	r6, r7
     dda:	d1f8      	bne.n	dce <xTaskGenericCreate+0xe2>
     ddc:	4f24      	ldr	r7, [pc, #144]	; (e70 <xTaskGenericCreate+0x184>)
     dde:	0038      	movs	r0, r7
     de0:	f7ff ff05 	bl	bee <vListInitialise>
     de4:	4e23      	ldr	r6, [pc, #140]	; (e74 <xTaskGenericCreate+0x188>)
     de6:	0030      	movs	r0, r6
     de8:	f7ff ff01 	bl	bee <vListInitialise>
     dec:	4822      	ldr	r0, [pc, #136]	; (e78 <xTaskGenericCreate+0x18c>)
     dee:	f7ff fefe 	bl	bee <vListInitialise>
     df2:	4822      	ldr	r0, [pc, #136]	; (e7c <xTaskGenericCreate+0x190>)
     df4:	f7ff fefb 	bl	bee <vListInitialise>
     df8:	4821      	ldr	r0, [pc, #132]	; (e80 <xTaskGenericCreate+0x194>)
     dfa:	f7ff fef8 	bl	bee <vListInitialise>
     dfe:	4b21      	ldr	r3, [pc, #132]	; (e84 <xTaskGenericCreate+0x198>)
     e00:	601f      	str	r7, [r3, #0]
     e02:	4b21      	ldr	r3, [pc, #132]	; (e88 <xTaskGenericCreate+0x19c>)
     e04:	601e      	str	r6, [r3, #0]
     e06:	e009      	b.n	e1c <xTaskGenericCreate+0x130>
     e08:	4b20      	ldr	r3, [pc, #128]	; (e8c <xTaskGenericCreate+0x1a0>)
     e0a:	681b      	ldr	r3, [r3, #0]
     e0c:	2b00      	cmp	r3, #0
     e0e:	d105      	bne.n	e1c <xTaskGenericCreate+0x130>
     e10:	682b      	ldr	r3, [r5, #0]
     e12:	9a08      	ldr	r2, [sp, #32]
     e14:	6adb      	ldr	r3, [r3, #44]	; 0x2c
     e16:	429a      	cmp	r2, r3
     e18:	d300      	bcc.n	e1c <xTaskGenericCreate+0x130>
     e1a:	602c      	str	r4, [r5, #0]
     e1c:	4a1c      	ldr	r2, [pc, #112]	; (e90 <xTaskGenericCreate+0x1a4>)
     e1e:	6ae0      	ldr	r0, [r4, #44]	; 0x2c
     e20:	6813      	ldr	r3, [r2, #0]
     e22:	3301      	adds	r3, #1
     e24:	6013      	str	r3, [r2, #0]
     e26:	4b1b      	ldr	r3, [pc, #108]	; (e94 <xTaskGenericCreate+0x1a8>)
     e28:	681a      	ldr	r2, [r3, #0]
     e2a:	4290      	cmp	r0, r2
     e2c:	d900      	bls.n	e30 <xTaskGenericCreate+0x144>
     e2e:	6018      	str	r0, [r3, #0]
     e30:	2314      	movs	r3, #20
     e32:	4358      	muls	r0, r3
     e34:	4b0d      	ldr	r3, [pc, #52]	; (e6c <xTaskGenericCreate+0x180>)
     e36:	9900      	ldr	r1, [sp, #0]
     e38:	1818      	adds	r0, r3, r0
     e3a:	f7ff fee6 	bl	c0a <vListInsertEnd>
     e3e:	f000 fd7d 	bl	193c <vPortExitCritical>
     e42:	4b12      	ldr	r3, [pc, #72]	; (e8c <xTaskGenericCreate+0x1a0>)
     e44:	2401      	movs	r4, #1
     e46:	681b      	ldr	r3, [r3, #0]
     e48:	2b00      	cmp	r3, #0
     e4a:	d009      	beq.n	e60 <xTaskGenericCreate+0x174>
     e4c:	682b      	ldr	r3, [r5, #0]
     e4e:	9a08      	ldr	r2, [sp, #32]
     e50:	6adb      	ldr	r3, [r3, #44]	; 0x2c
     e52:	429a      	cmp	r2, r3
     e54:	d904      	bls.n	e60 <xTaskGenericCreate+0x174>
     e56:	f000 fcdd 	bl	1814 <vPortYieldFromISR>
     e5a:	e001      	b.n	e60 <xTaskGenericCreate+0x174>
     e5c:	2401      	movs	r4, #1
     e5e:	4264      	negs	r4, r4
     e60:	0020      	movs	r0, r4
     e62:	bdfe      	pop	{r1, r2, r3, r4, r5, r6, r7, pc}
     e64:	1fffe338 	svcne	0x00ffe338
     e68:	1fffe310 	svcne	0x00ffe310
     e6c:	1fffe194 	svcne	0x00ffe194
     e70:	1fffe168 	svcne	0x00ffe168
     e74:	1fffe17c 	svcne	0x00ffe17c
     e78:	1fffe314 	svcne	0x00ffe314
     e7c:	1fffe2fc 	svcne	0x00ffe2fc
     e80:	1fffe33c 	svcne	0x00ffe33c
     e84:	1fffe15c 	svcne	0x00ffe15c
     e88:	1fffe330 	svcne	0x00ffe330
     e8c:	1fffe160 	svcne	0x00ffe160
     e90:	1fffe334 	svcne	0x00ffe334
     e94:	1fffe350 	svcne	0x00ffe350

00000e98 <vTaskStartScheduler>:
     e98:	b530      	push	{r4, r5, lr}
     e9a:	2400      	movs	r4, #0
     e9c:	b085      	sub	sp, #20
     e9e:	9403      	str	r4, [sp, #12]
     ea0:	9402      	str	r4, [sp, #8]
     ea2:	9401      	str	r4, [sp, #4]
     ea4:	9400      	str	r4, [sp, #0]
     ea6:	0023      	movs	r3, r4
     ea8:	22c8      	movs	r2, #200	; 0xc8
     eaa:	490e      	ldr	r1, [pc, #56]	; (ee4 <vTaskStartScheduler+0x4c>)
     eac:	480e      	ldr	r0, [pc, #56]	; (ee8 <vTaskStartScheduler+0x50>)
     eae:	f7ff ff1d 	bl	cec <xTaskGenericCreate>
     eb2:	0005      	movs	r5, r0
     eb4:	2801      	cmp	r0, #1
     eb6:	d10d      	bne.n	ed4 <vTaskStartScheduler+0x3c>
     eb8:	f000 fb3e 	bl	1538 <xTimerCreateTimerTask>
     ebc:	0005      	movs	r5, r0
     ebe:	2801      	cmp	r0, #1
     ec0:	d108      	bne.n	ed4 <vTaskStartScheduler+0x3c>
     ec2:	f000 fd15 	bl	18f0 <ulPortSetInterruptMask>
     ec6:	4b09      	ldr	r3, [pc, #36]	; (eec <vTaskStartScheduler+0x54>)
     ec8:	601d      	str	r5, [r3, #0]
     eca:	4b09      	ldr	r3, [pc, #36]	; (ef0 <vTaskStartScheduler+0x58>)
     ecc:	601c      	str	r4, [r3, #0]
     ece:	f000 fcb9 	bl	1844 <xPortStartScheduler>
     ed2:	e004      	b.n	ede <vTaskStartScheduler+0x46>
     ed4:	2d00      	cmp	r5, #0
     ed6:	d102      	bne.n	ede <vTaskStartScheduler+0x46>
     ed8:	f000 fd0a 	bl	18f0 <ulPortSetInterruptMask>
     edc:	e7fe      	b.n	edc <vTaskStartScheduler+0x44>
     ede:	b005      	add	sp, #20
     ee0:	bd30      	pop	{r4, r5, pc}
     ee2:	46c0      	nop			; (mov r8, r8)
     ee4:	00001d8a 	andeq	r1, r0, sl, lsl #27
     ee8:	0000113d 	andeq	r1, r0, sp, lsr r1
     eec:	1fffe160 	svcne	0x00ffe160
     ef0:	1fffe32c 	svcne	0x00ffe32c

00000ef4 <vTaskSuspendAll>:
     ef4:	4a02      	ldr	r2, [pc, #8]	; (f00 <vTaskSuspendAll+0xc>)
     ef6:	6813      	ldr	r3, [r2, #0]
     ef8:	3301      	adds	r3, #1
     efa:	6013      	str	r3, [r2, #0]
     efc:	4770      	bx	lr
     efe:	46c0      	nop			; (mov r8, r8)
     f00:	1fffe328 	svcne	0x00ffe328

00000f04 <xTaskGetTickCount>:
     f04:	b510      	push	{r4, lr}
     f06:	f000 fd07 	bl	1918 <vPortEnterCritical>
     f0a:	4b03      	ldr	r3, [pc, #12]	; (f18 <xTaskGetTickCount+0x14>)
     f0c:	681c      	ldr	r4, [r3, #0]
     f0e:	f000 fd15 	bl	193c <vPortExitCritical>
     f12:	0020      	movs	r0, r4
     f14:	bd10      	pop	{r4, pc}
     f16:	46c0      	nop			; (mov r8, r8)
     f18:	1fffe32c 	svcne	0x00ffe32c

00000f1c <xTaskIncrementTick>:
     f1c:	b5f7      	push	{r0, r1, r2, r4, r5, r6, r7, lr}
     f1e:	4b35      	ldr	r3, [pc, #212]	; (ff4 <xTaskIncrementTick+0xd8>)
     f20:	681b      	ldr	r3, [r3, #0]
     f22:	2b00      	cmp	r3, #0
     f24:	d138      	bne.n	f98 <xTaskIncrementTick+0x7c>
     f26:	4b34      	ldr	r3, [pc, #208]	; (ff8 <xTaskIncrementTick+0xdc>)
     f28:	681a      	ldr	r2, [r3, #0]
     f2a:	3201      	adds	r2, #1
     f2c:	601a      	str	r2, [r3, #0]
     f2e:	681f      	ldr	r7, [r3, #0]
     f30:	2f00      	cmp	r7, #0
     f32:	d112      	bne.n	f5a <xTaskIncrementTick+0x3e>
     f34:	4b31      	ldr	r3, [pc, #196]	; (ffc <xTaskIncrementTick+0xe0>)
     f36:	681a      	ldr	r2, [r3, #0]
     f38:	6812      	ldr	r2, [r2, #0]
     f3a:	2a00      	cmp	r2, #0
     f3c:	d002      	beq.n	f44 <xTaskIncrementTick+0x28>
     f3e:	f000 fcd7 	bl	18f0 <ulPortSetInterruptMask>
     f42:	e7fe      	b.n	f42 <xTaskIncrementTick+0x26>
     f44:	4a2e      	ldr	r2, [pc, #184]	; (1000 <xTaskIncrementTick+0xe4>)
     f46:	6819      	ldr	r1, [r3, #0]
     f48:	6810      	ldr	r0, [r2, #0]
     f4a:	6018      	str	r0, [r3, #0]
     f4c:	6011      	str	r1, [r2, #0]
     f4e:	4a2d      	ldr	r2, [pc, #180]	; (1004 <xTaskIncrementTick+0xe8>)
     f50:	6813      	ldr	r3, [r2, #0]
     f52:	3301      	adds	r3, #1
     f54:	6013      	str	r3, [r2, #0]
     f56:	f7ff fe8f 	bl	c78 <prvResetNextTaskUnblockTime>
     f5a:	4e2b      	ldr	r6, [pc, #172]	; (1008 <xTaskIncrementTick+0xec>)
     f5c:	2500      	movs	r5, #0
     f5e:	6833      	ldr	r3, [r6, #0]
     f60:	429f      	cmp	r7, r3
     f62:	d30e      	bcc.n	f82 <xTaskIncrementTick+0x66>
     f64:	4b25      	ldr	r3, [pc, #148]	; (ffc <xTaskIncrementTick+0xe0>)
     f66:	681a      	ldr	r2, [r3, #0]
     f68:	6812      	ldr	r2, [r2, #0]
     f6a:	2a00      	cmp	r2, #0
     f6c:	d102      	bne.n	f74 <xTaskIncrementTick+0x58>
     f6e:	2301      	movs	r3, #1
     f70:	425b      	negs	r3, r3
     f72:	e005      	b.n	f80 <xTaskIncrementTick+0x64>
     f74:	681b      	ldr	r3, [r3, #0]
     f76:	68db      	ldr	r3, [r3, #12]
     f78:	68dc      	ldr	r4, [r3, #12]
     f7a:	6863      	ldr	r3, [r4, #4]
     f7c:	429f      	cmp	r7, r3
     f7e:	d216      	bcs.n	fae <xTaskIncrementTick+0x92>
     f80:	6033      	str	r3, [r6, #0]
     f82:	4b22      	ldr	r3, [pc, #136]	; (100c <xTaskIncrementTick+0xf0>)
     f84:	681b      	ldr	r3, [r3, #0]
     f86:	6ada      	ldr	r2, [r3, #44]	; 0x2c
     f88:	2314      	movs	r3, #20
     f8a:	4353      	muls	r3, r2
     f8c:	4a20      	ldr	r2, [pc, #128]	; (1010 <xTaskIncrementTick+0xf4>)
     f8e:	58d3      	ldr	r3, [r2, r3]
     f90:	2b01      	cmp	r3, #1
     f92:	d906      	bls.n	fa2 <xTaskIncrementTick+0x86>
     f94:	2501      	movs	r5, #1
     f96:	e004      	b.n	fa2 <xTaskIncrementTick+0x86>
     f98:	2500      	movs	r5, #0
     f9a:	4a1e      	ldr	r2, [pc, #120]	; (1014 <xTaskIncrementTick+0xf8>)
     f9c:	6813      	ldr	r3, [r2, #0]
     f9e:	3301      	adds	r3, #1
     fa0:	6013      	str	r3, [r2, #0]
     fa2:	4b1d      	ldr	r3, [pc, #116]	; (1018 <xTaskIncrementTick+0xfc>)
     fa4:	681b      	ldr	r3, [r3, #0]
     fa6:	2b00      	cmp	r3, #0
     fa8:	d022      	beq.n	ff0 <xTaskIncrementTick+0xd4>
     faa:	2501      	movs	r5, #1
     fac:	e020      	b.n	ff0 <xTaskIncrementTick+0xd4>
     fae:	1d23      	adds	r3, r4, #4
     fb0:	0018      	movs	r0, r3
     fb2:	9301      	str	r3, [sp, #4]
     fb4:	f7ff fe4d 	bl	c52 <uxListRemove>
     fb8:	6aa3      	ldr	r3, [r4, #40]	; 0x28
     fba:	2b00      	cmp	r3, #0
     fbc:	d003      	beq.n	fc6 <xTaskIncrementTick+0xaa>
     fbe:	0020      	movs	r0, r4
     fc0:	3018      	adds	r0, #24
     fc2:	f7ff fe46 	bl	c52 <uxListRemove>
     fc6:	4b15      	ldr	r3, [pc, #84]	; (101c <xTaskIncrementTick+0x100>)
     fc8:	6ae0      	ldr	r0, [r4, #44]	; 0x2c
     fca:	681a      	ldr	r2, [r3, #0]
     fcc:	4290      	cmp	r0, r2
     fce:	d900      	bls.n	fd2 <xTaskIncrementTick+0xb6>
     fd0:	6018      	str	r0, [r3, #0]
     fd2:	2314      	movs	r3, #20
     fd4:	4358      	muls	r0, r3
     fd6:	4b0e      	ldr	r3, [pc, #56]	; (1010 <xTaskIncrementTick+0xf4>)
     fd8:	1d21      	adds	r1, r4, #4
     fda:	1818      	adds	r0, r3, r0
     fdc:	f7ff fe15 	bl	c0a <vListInsertEnd>
     fe0:	4b0a      	ldr	r3, [pc, #40]	; (100c <xTaskIncrementTick+0xf0>)
     fe2:	6ae2      	ldr	r2, [r4, #44]	; 0x2c
     fe4:	681b      	ldr	r3, [r3, #0]
     fe6:	6adb      	ldr	r3, [r3, #44]	; 0x2c
     fe8:	429a      	cmp	r2, r3
     fea:	d3bb      	bcc.n	f64 <xTaskIncrementTick+0x48>
     fec:	2501      	movs	r5, #1
     fee:	e7b9      	b.n	f64 <xTaskIncrementTick+0x48>
     ff0:	0028      	movs	r0, r5
     ff2:	bdfe      	pop	{r1, r2, r3, r4, r5, r6, r7, pc}
     ff4:	1fffe328 	svcne	0x00ffe328
     ff8:	1fffe32c 	svcne	0x00ffe32c
     ffc:	1fffe15c 	svcne	0x00ffe15c
    1000:	1fffe330 	svcne	0x00ffe330
    1004:	1fffe158 	svcne	0x00ffe158
    1008:	1fffe0c4 	svcne	0x00ffe0c4
    100c:	1fffe310 	svcne	0x00ffe310
    1010:	1fffe194 	svcne	0x00ffe194
    1014:	1fffe190 	svcne	0x00ffe190
    1018:	1fffe354 	svcne	0x00ffe354
    101c:	1fffe350 	svcne	0x00ffe350

00001020 <xTaskResumeAll>:
    1020:	b5f8      	push	{r3, r4, r5, r6, r7, lr}
    1022:	4c2b      	ldr	r4, [pc, #172]	; (10d0 <xTaskResumeAll+0xb0>)
    1024:	6823      	ldr	r3, [r4, #0]
    1026:	2b00      	cmp	r3, #0
    1028:	d102      	bne.n	1030 <xTaskResumeAll+0x10>
    102a:	f000 fc61 	bl	18f0 <ulPortSetInterruptMask>
    102e:	e7fe      	b.n	102e <xTaskResumeAll+0xe>
    1030:	f000 fc72 	bl	1918 <vPortEnterCritical>
    1034:	6823      	ldr	r3, [r4, #0]
    1036:	3b01      	subs	r3, #1
    1038:	6023      	str	r3, [r4, #0]
    103a:	6823      	ldr	r3, [r4, #0]
    103c:	2b00      	cmp	r3, #0
    103e:	d001      	beq.n	1044 <xTaskResumeAll+0x24>
    1040:	2400      	movs	r4, #0
    1042:	e041      	b.n	10c8 <xTaskResumeAll+0xa8>
    1044:	4b23      	ldr	r3, [pc, #140]	; (10d4 <xTaskResumeAll+0xb4>)
    1046:	681b      	ldr	r3, [r3, #0]
    1048:	2b00      	cmp	r3, #0
    104a:	d0f9      	beq.n	1040 <xTaskResumeAll+0x20>
    104c:	2614      	movs	r6, #20
    104e:	2701      	movs	r7, #1
    1050:	4b21      	ldr	r3, [pc, #132]	; (10d8 <xTaskResumeAll+0xb8>)
    1052:	681a      	ldr	r2, [r3, #0]
    1054:	2a00      	cmp	r2, #0
    1056:	d01e      	beq.n	1096 <xTaskResumeAll+0x76>
    1058:	68db      	ldr	r3, [r3, #12]
    105a:	68dc      	ldr	r4, [r3, #12]
    105c:	0020      	movs	r0, r4
    105e:	1d25      	adds	r5, r4, #4
    1060:	3018      	adds	r0, #24
    1062:	f7ff fdf6 	bl	c52 <uxListRemove>
    1066:	0028      	movs	r0, r5
    1068:	f7ff fdf3 	bl	c52 <uxListRemove>
    106c:	4b1b      	ldr	r3, [pc, #108]	; (10dc <xTaskResumeAll+0xbc>)
    106e:	6ae0      	ldr	r0, [r4, #44]	; 0x2c
    1070:	681a      	ldr	r2, [r3, #0]
    1072:	4290      	cmp	r0, r2
    1074:	d900      	bls.n	1078 <xTaskResumeAll+0x58>
    1076:	6018      	str	r0, [r3, #0]
    1078:	4370      	muls	r0, r6
    107a:	4b19      	ldr	r3, [pc, #100]	; (10e0 <xTaskResumeAll+0xc0>)
    107c:	0029      	movs	r1, r5
    107e:	1818      	adds	r0, r3, r0
    1080:	f7ff fdc3 	bl	c0a <vListInsertEnd>
    1084:	4b17      	ldr	r3, [pc, #92]	; (10e4 <xTaskResumeAll+0xc4>)
    1086:	6ae2      	ldr	r2, [r4, #44]	; 0x2c
    1088:	681b      	ldr	r3, [r3, #0]
    108a:	6adb      	ldr	r3, [r3, #44]	; 0x2c
    108c:	429a      	cmp	r2, r3
    108e:	d3df      	bcc.n	1050 <xTaskResumeAll+0x30>
    1090:	4b15      	ldr	r3, [pc, #84]	; (10e8 <xTaskResumeAll+0xc8>)
    1092:	601f      	str	r7, [r3, #0]
    1094:	e7dc      	b.n	1050 <xTaskResumeAll+0x30>
    1096:	4c15      	ldr	r4, [pc, #84]	; (10ec <xTaskResumeAll+0xcc>)
    1098:	6823      	ldr	r3, [r4, #0]
    109a:	2b00      	cmp	r3, #0
    109c:	d106      	bne.n	10ac <xTaskResumeAll+0x8c>
    109e:	4b12      	ldr	r3, [pc, #72]	; (10e8 <xTaskResumeAll+0xc8>)
    10a0:	681c      	ldr	r4, [r3, #0]
    10a2:	2c01      	cmp	r4, #1
    10a4:	d1cc      	bne.n	1040 <xTaskResumeAll+0x20>
    10a6:	f000 fbb5 	bl	1814 <vPortYieldFromISR>
    10aa:	e00d      	b.n	10c8 <xTaskResumeAll+0xa8>
    10ac:	2501      	movs	r5, #1
    10ae:	6823      	ldr	r3, [r4, #0]
    10b0:	2b00      	cmp	r3, #0
    10b2:	d0f4      	beq.n	109e <xTaskResumeAll+0x7e>
    10b4:	f7ff ff32 	bl	f1c <xTaskIncrementTick>
    10b8:	2800      	cmp	r0, #0
    10ba:	d001      	beq.n	10c0 <xTaskResumeAll+0xa0>
    10bc:	4b0a      	ldr	r3, [pc, #40]	; (10e8 <xTaskResumeAll+0xc8>)
    10be:	601d      	str	r5, [r3, #0]
    10c0:	6823      	ldr	r3, [r4, #0]
    10c2:	3b01      	subs	r3, #1
    10c4:	6023      	str	r3, [r4, #0]
    10c6:	e7f2      	b.n	10ae <xTaskResumeAll+0x8e>
    10c8:	f000 fc38 	bl	193c <vPortExitCritical>
    10cc:	0020      	movs	r0, r4
    10ce:	bdf8      	pop	{r3, r4, r5, r6, r7, pc}
    10d0:	1fffe328 	svcne	0x00ffe328
    10d4:	1fffe338 	svcne	0x00ffe338
    10d8:	1fffe314 	svcne	0x00ffe314
    10dc:	1fffe350 	svcne	0x00ffe350
    10e0:	1fffe194 	svcne	0x00ffe194
    10e4:	1fffe310 	svcne	0x00ffe310
    10e8:	1fffe354 	svcne	0x00ffe354
    10ec:	1fffe190 	svcne	0x00ffe190

000010f0 <vTaskDelay>:
    10f0:	b510      	push	{r4, lr}
    10f2:	1e04      	subs	r4, r0, #0
    10f4:	d102      	bne.n	10fc <vTaskDelay+0xc>
    10f6:	f000 fb8d 	bl	1814 <vPortYieldFromISR>
    10fa:	e017      	b.n	112c <vTaskDelay+0x3c>
    10fc:	4b0c      	ldr	r3, [pc, #48]	; (1130 <vTaskDelay+0x40>)
    10fe:	681b      	ldr	r3, [r3, #0]
    1100:	2b00      	cmp	r3, #0
    1102:	d002      	beq.n	110a <vTaskDelay+0x1a>
    1104:	f000 fbf4 	bl	18f0 <ulPortSetInterruptMask>
    1108:	e7fe      	b.n	1108 <vTaskDelay+0x18>
    110a:	f7ff fef3 	bl	ef4 <vTaskSuspendAll>
    110e:	4b09      	ldr	r3, [pc, #36]	; (1134 <vTaskDelay+0x44>)
    1110:	681b      	ldr	r3, [r3, #0]
    1112:	18e4      	adds	r4, r4, r3
    1114:	4b08      	ldr	r3, [pc, #32]	; (1138 <vTaskDelay+0x48>)
    1116:	6818      	ldr	r0, [r3, #0]
    1118:	3004      	adds	r0, #4
    111a:	f7ff fd9a 	bl	c52 <uxListRemove>
    111e:	0020      	movs	r0, r4
    1120:	f7ff fdbe 	bl	ca0 <prvAddCurrentTaskToDelayedList>
    1124:	f7ff ff7c 	bl	1020 <xTaskResumeAll>
    1128:	2800      	cmp	r0, #0
    112a:	d0e4      	beq.n	10f6 <vTaskDelay+0x6>
    112c:	bd10      	pop	{r4, pc}
    112e:	46c0      	nop			; (mov r8, r8)
    1130:	1fffe328 	svcne	0x00ffe328
    1134:	1fffe32c 	svcne	0x00ffe32c
    1138:	1fffe310 	svcne	0x00ffe310

0000113c <prvIdleTask>:
    113c:	b570      	push	{r4, r5, r6, lr}
    113e:	4c15      	ldr	r4, [pc, #84]	; (1194 <prvIdleTask+0x58>)
    1140:	6823      	ldr	r3, [r4, #0]
    1142:	2b00      	cmp	r3, #0
    1144:	d01e      	beq.n	1184 <prvIdleTask+0x48>
    1146:	f7ff fed5 	bl	ef4 <vTaskSuspendAll>
    114a:	4d13      	ldr	r5, [pc, #76]	; (1198 <prvIdleTask+0x5c>)
    114c:	682e      	ldr	r6, [r5, #0]
    114e:	f7ff ff67 	bl	1020 <xTaskResumeAll>
    1152:	2e00      	cmp	r6, #0
    1154:	d0f3      	beq.n	113e <prvIdleTask+0x2>
    1156:	f000 fbdf 	bl	1918 <vPortEnterCritical>
    115a:	68eb      	ldr	r3, [r5, #12]
    115c:	68dd      	ldr	r5, [r3, #12]
    115e:	1d28      	adds	r0, r5, #4
    1160:	f7ff fd77 	bl	c52 <uxListRemove>
    1164:	4a0d      	ldr	r2, [pc, #52]	; (119c <prvIdleTask+0x60>)
    1166:	6813      	ldr	r3, [r2, #0]
    1168:	3b01      	subs	r3, #1
    116a:	6013      	str	r3, [r2, #0]
    116c:	6823      	ldr	r3, [r4, #0]
    116e:	3b01      	subs	r3, #1
    1170:	6023      	str	r3, [r4, #0]
    1172:	f000 fbe3 	bl	193c <vPortExitCritical>
    1176:	6b28      	ldr	r0, [r5, #48]	; 0x30
    1178:	f7ff fabe 	bl	6f8 <vPortFree>
    117c:	0028      	movs	r0, r5
    117e:	f7ff fabb 	bl	6f8 <vPortFree>
    1182:	e7dc      	b.n	113e <prvIdleTask+0x2>
    1184:	4b06      	ldr	r3, [pc, #24]	; (11a0 <prvIdleTask+0x64>)
    1186:	681b      	ldr	r3, [r3, #0]
    1188:	2b01      	cmp	r3, #1
    118a:	d9d8      	bls.n	113e <prvIdleTask+0x2>
    118c:	f000 fb42 	bl	1814 <vPortYieldFromISR>
    1190:	e7d5      	b.n	113e <prvIdleTask+0x2>
    1192:	46c0      	nop			; (mov r8, r8)
    1194:	1fffe164 	svcne	0x00ffe164
    1198:	1fffe2fc 	svcne	0x00ffe2fc
    119c:	1fffe338 	svcne	0x00ffe338
    11a0:	1fffe194 	svcne	0x00ffe194

000011a4 <vTaskSwitchContext>:
    11a4:	b510      	push	{r4, lr}
    11a6:	4b18      	ldr	r3, [pc, #96]	; (1208 <vTaskSwitchContext+0x64>)
    11a8:	681a      	ldr	r2, [r3, #0]
    11aa:	4b18      	ldr	r3, [pc, #96]	; (120c <vTaskSwitchContext+0x68>)
    11ac:	2a00      	cmp	r2, #0
    11ae:	d001      	beq.n	11b4 <vTaskSwitchContext+0x10>
    11b0:	2201      	movs	r2, #1
    11b2:	e027      	b.n	1204 <vTaskSwitchContext+0x60>
    11b4:	2414      	movs	r4, #20
    11b6:	601a      	str	r2, [r3, #0]
    11b8:	4815      	ldr	r0, [pc, #84]	; (1210 <vTaskSwitchContext+0x6c>)
    11ba:	4a16      	ldr	r2, [pc, #88]	; (1214 <vTaskSwitchContext+0x70>)
    11bc:	6813      	ldr	r3, [r2, #0]
    11be:	0001      	movs	r1, r0
    11c0:	4363      	muls	r3, r4
    11c2:	581b      	ldr	r3, [r3, r0]
    11c4:	2b00      	cmp	r3, #0
    11c6:	d109      	bne.n	11dc <vTaskSwitchContext+0x38>
    11c8:	6813      	ldr	r3, [r2, #0]
    11ca:	2b00      	cmp	r3, #0
    11cc:	d102      	bne.n	11d4 <vTaskSwitchContext+0x30>
    11ce:	f000 fb8f 	bl	18f0 <ulPortSetInterruptMask>
    11d2:	e7fe      	b.n	11d2 <vTaskSwitchContext+0x2e>
    11d4:	6813      	ldr	r3, [r2, #0]
    11d6:	3b01      	subs	r3, #1
    11d8:	6013      	str	r3, [r2, #0]
    11da:	e7ef      	b.n	11bc <vTaskSwitchContext+0x18>
    11dc:	2314      	movs	r3, #20
    11de:	6814      	ldr	r4, [r2, #0]
    11e0:	4363      	muls	r3, r4
    11e2:	18c2      	adds	r2, r0, r3
    11e4:	6850      	ldr	r0, [r2, #4]
    11e6:	3308      	adds	r3, #8
    11e8:	6840      	ldr	r0, [r0, #4]
    11ea:	18cb      	adds	r3, r1, r3
    11ec:	6050      	str	r0, [r2, #4]
    11ee:	4298      	cmp	r0, r3
    11f0:	d101      	bne.n	11f6 <vTaskSwitchContext+0x52>
    11f2:	6843      	ldr	r3, [r0, #4]
    11f4:	6053      	str	r3, [r2, #4]
    11f6:	2214      	movs	r2, #20
    11f8:	0013      	movs	r3, r2
    11fa:	4363      	muls	r3, r4
    11fc:	18cb      	adds	r3, r1, r3
    11fe:	685b      	ldr	r3, [r3, #4]
    1200:	68da      	ldr	r2, [r3, #12]
    1202:	4b05      	ldr	r3, [pc, #20]	; (1218 <vTaskSwitchContext+0x74>)
    1204:	601a      	str	r2, [r3, #0]
    1206:	bd10      	pop	{r4, pc}
    1208:	1fffe328 	svcne	0x00ffe328
    120c:	1fffe354 	svcne	0x00ffe354
    1210:	1fffe194 	svcne	0x00ffe194
    1214:	1fffe350 	svcne	0x00ffe350
    1218:	1fffe310 	svcne	0x00ffe310

0000121c <vTaskPlaceOnEventList>:
    121c:	b570      	push	{r4, r5, r6, lr}
    121e:	000d      	movs	r5, r1
    1220:	2800      	cmp	r0, #0
    1222:	d102      	bne.n	122a <vTaskPlaceOnEventList+0xe>
    1224:	f000 fb64 	bl	18f0 <ulPortSetInterruptMask>
    1228:	e7fe      	b.n	1228 <vTaskPlaceOnEventList+0xc>
    122a:	4c0b      	ldr	r4, [pc, #44]	; (1258 <vTaskPlaceOnEventList+0x3c>)
    122c:	6821      	ldr	r1, [r4, #0]
    122e:	3118      	adds	r1, #24
    1230:	f7ff fcf7 	bl	c22 <vListInsert>
    1234:	6820      	ldr	r0, [r4, #0]
    1236:	3004      	adds	r0, #4
    1238:	f7ff fd0b 	bl	c52 <uxListRemove>
    123c:	1c6b      	adds	r3, r5, #1
    123e:	d105      	bne.n	124c <vTaskPlaceOnEventList+0x30>
    1240:	6821      	ldr	r1, [r4, #0]
    1242:	4806      	ldr	r0, [pc, #24]	; (125c <vTaskPlaceOnEventList+0x40>)
    1244:	3104      	adds	r1, #4
    1246:	f7ff fce0 	bl	c0a <vListInsertEnd>
    124a:	e004      	b.n	1256 <vTaskPlaceOnEventList+0x3a>
    124c:	4b04      	ldr	r3, [pc, #16]	; (1260 <vTaskPlaceOnEventList+0x44>)
    124e:	6818      	ldr	r0, [r3, #0]
    1250:	1828      	adds	r0, r5, r0
    1252:	f7ff fd25 	bl	ca0 <prvAddCurrentTaskToDelayedList>
    1256:	bd70      	pop	{r4, r5, r6, pc}
    1258:	1fffe310 	svcne	0x00ffe310
    125c:	1fffe33c 	svcne	0x00ffe33c
    1260:	1fffe32c 	svcne	0x00ffe32c

00001264 <vTaskPlaceOnEventListRestricted>:
    1264:	b570      	push	{r4, r5, r6, lr}
    1266:	000c      	movs	r4, r1
    1268:	2800      	cmp	r0, #0
    126a:	d102      	bne.n	1272 <vTaskPlaceOnEventListRestricted+0xe>
    126c:	f000 fb40 	bl	18f0 <ulPortSetInterruptMask>
    1270:	e7fe      	b.n	1270 <vTaskPlaceOnEventListRestricted+0xc>
    1272:	4d07      	ldr	r5, [pc, #28]	; (1290 <vTaskPlaceOnEventListRestricted+0x2c>)
    1274:	6829      	ldr	r1, [r5, #0]
    1276:	3118      	adds	r1, #24
    1278:	f7ff fcc7 	bl	c0a <vListInsertEnd>
    127c:	6828      	ldr	r0, [r5, #0]
    127e:	3004      	adds	r0, #4
    1280:	f7ff fce7 	bl	c52 <uxListRemove>
    1284:	4b03      	ldr	r3, [pc, #12]	; (1294 <vTaskPlaceOnEventListRestricted+0x30>)
    1286:	6818      	ldr	r0, [r3, #0]
    1288:	1900      	adds	r0, r0, r4
    128a:	f7ff fd09 	bl	ca0 <prvAddCurrentTaskToDelayedList>
    128e:	bd70      	pop	{r4, r5, r6, pc}
    1290:	1fffe310 	svcne	0x00ffe310
    1294:	1fffe32c 	svcne	0x00ffe32c

00001298 <xTaskRemoveFromEventList>:
    1298:	b570      	push	{r4, r5, r6, lr}
    129a:	68c3      	ldr	r3, [r0, #12]
    129c:	68dc      	ldr	r4, [r3, #12]
    129e:	2c00      	cmp	r4, #0
    12a0:	d102      	bne.n	12a8 <xTaskRemoveFromEventList+0x10>
    12a2:	f000 fb25 	bl	18f0 <ulPortSetInterruptMask>
    12a6:	e7fe      	b.n	12a6 <xTaskRemoveFromEventList+0xe>
    12a8:	0025      	movs	r5, r4
    12aa:	3518      	adds	r5, #24
    12ac:	0028      	movs	r0, r5
    12ae:	f7ff fcd0 	bl	c52 <uxListRemove>
    12b2:	4b11      	ldr	r3, [pc, #68]	; (12f8 <xTaskRemoveFromEventList+0x60>)
    12b4:	681b      	ldr	r3, [r3, #0]
    12b6:	2b00      	cmp	r3, #0
    12b8:	d10f      	bne.n	12da <xTaskRemoveFromEventList+0x42>
    12ba:	1d25      	adds	r5, r4, #4
    12bc:	0028      	movs	r0, r5
    12be:	f7ff fcc8 	bl	c52 <uxListRemove>
    12c2:	4b0e      	ldr	r3, [pc, #56]	; (12fc <xTaskRemoveFromEventList+0x64>)
    12c4:	6ae0      	ldr	r0, [r4, #44]	; 0x2c
    12c6:	681a      	ldr	r2, [r3, #0]
    12c8:	4290      	cmp	r0, r2
    12ca:	d900      	bls.n	12ce <xTaskRemoveFromEventList+0x36>
    12cc:	6018      	str	r0, [r3, #0]
    12ce:	2314      	movs	r3, #20
    12d0:	4358      	muls	r0, r3
    12d2:	4b0b      	ldr	r3, [pc, #44]	; (1300 <xTaskRemoveFromEventList+0x68>)
    12d4:	0029      	movs	r1, r5
    12d6:	1818      	adds	r0, r3, r0
    12d8:	e001      	b.n	12de <xTaskRemoveFromEventList+0x46>
    12da:	0029      	movs	r1, r5
    12dc:	4809      	ldr	r0, [pc, #36]	; (1304 <xTaskRemoveFromEventList+0x6c>)
    12de:	f7ff fc94 	bl	c0a <vListInsertEnd>
    12e2:	4b09      	ldr	r3, [pc, #36]	; (1308 <xTaskRemoveFromEventList+0x70>)
    12e4:	6ae2      	ldr	r2, [r4, #44]	; 0x2c
    12e6:	681b      	ldr	r3, [r3, #0]
    12e8:	2000      	movs	r0, #0
    12ea:	6adb      	ldr	r3, [r3, #44]	; 0x2c
    12ec:	429a      	cmp	r2, r3
    12ee:	d902      	bls.n	12f6 <xTaskRemoveFromEventList+0x5e>
    12f0:	4b06      	ldr	r3, [pc, #24]	; (130c <xTaskRemoveFromEventList+0x74>)
    12f2:	3001      	adds	r0, #1
    12f4:	6018      	str	r0, [r3, #0]
    12f6:	bd70      	pop	{r4, r5, r6, pc}
    12f8:	1fffe328 	svcne	0x00ffe328
    12fc:	1fffe350 	svcne	0x00ffe350
    1300:	1fffe194 	svcne	0x00ffe194
    1304:	1fffe314 	svcne	0x00ffe314
    1308:	1fffe310 	svcne	0x00ffe310
    130c:	1fffe354 	svcne	0x00ffe354

00001310 <vTaskSetTimeOutState>:
    1310:	b510      	push	{r4, lr}
    1312:	2800      	cmp	r0, #0
    1314:	d102      	bne.n	131c <vTaskSetTimeOutState+0xc>
    1316:	f000 faeb 	bl	18f0 <ulPortSetInterruptMask>
    131a:	e7fe      	b.n	131a <vTaskSetTimeOutState+0xa>
    131c:	4b03      	ldr	r3, [pc, #12]	; (132c <vTaskSetTimeOutState+0x1c>)
    131e:	681b      	ldr	r3, [r3, #0]
    1320:	6003      	str	r3, [r0, #0]
    1322:	4b03      	ldr	r3, [pc, #12]	; (1330 <vTaskSetTimeOutState+0x20>)
    1324:	681b      	ldr	r3, [r3, #0]
    1326:	6043      	str	r3, [r0, #4]
    1328:	bd10      	pop	{r4, pc}
    132a:	46c0      	nop			; (mov r8, r8)
    132c:	1fffe158 	svcne	0x00ffe158
    1330:	1fffe32c 	svcne	0x00ffe32c

00001334 <xTaskCheckForTimeOut>:
    1334:	b570      	push	{r4, r5, r6, lr}
    1336:	0004      	movs	r4, r0
    1338:	000d      	movs	r5, r1
    133a:	2800      	cmp	r0, #0
    133c:	d102      	bne.n	1344 <xTaskCheckForTimeOut+0x10>
    133e:	f000 fad7 	bl	18f0 <ulPortSetInterruptMask>
    1342:	e7fe      	b.n	1342 <xTaskCheckForTimeOut+0xe>
    1344:	2900      	cmp	r1, #0
    1346:	d102      	bne.n	134e <xTaskCheckForTimeOut+0x1a>
    1348:	f000 fad2 	bl	18f0 <ulPortSetInterruptMask>
    134c:	e7fe      	b.n	134c <xTaskCheckForTimeOut+0x18>
    134e:	f000 fae3 	bl	1918 <vPortEnterCritical>
    1352:	4b0f      	ldr	r3, [pc, #60]	; (1390 <xTaskCheckForTimeOut+0x5c>)
    1354:	2600      	movs	r6, #0
    1356:	6819      	ldr	r1, [r3, #0]
    1358:	682b      	ldr	r3, [r5, #0]
    135a:	1c5a      	adds	r2, r3, #1
    135c:	d013      	beq.n	1386 <xTaskCheckForTimeOut+0x52>
    135e:	4a0d      	ldr	r2, [pc, #52]	; (1394 <xTaskCheckForTimeOut+0x60>)
    1360:	6826      	ldr	r6, [r4, #0]
    1362:	6810      	ldr	r0, [r2, #0]
    1364:	6862      	ldr	r2, [r4, #4]
    1366:	4286      	cmp	r6, r0
    1368:	d002      	beq.n	1370 <xTaskCheckForTimeOut+0x3c>
    136a:	2601      	movs	r6, #1
    136c:	4291      	cmp	r1, r2
    136e:	d20a      	bcs.n	1386 <xTaskCheckForTimeOut+0x52>
    1370:	1a88      	subs	r0, r1, r2
    1372:	2601      	movs	r6, #1
    1374:	4283      	cmp	r3, r0
    1376:	d906      	bls.n	1386 <xTaskCheckForTimeOut+0x52>
    1378:	1a52      	subs	r2, r2, r1
    137a:	18d3      	adds	r3, r2, r3
    137c:	602b      	str	r3, [r5, #0]
    137e:	0020      	movs	r0, r4
    1380:	f7ff ffc6 	bl	1310 <vTaskSetTimeOutState>
    1384:	2600      	movs	r6, #0
    1386:	f000 fad9 	bl	193c <vPortExitCritical>
    138a:	0030      	movs	r0, r6
    138c:	bd70      	pop	{r4, r5, r6, pc}
    138e:	46c0      	nop			; (mov r8, r8)
    1390:	1fffe32c 	svcne	0x00ffe32c
    1394:	1fffe158 	svcne	0x00ffe158

00001398 <vTaskMissedYield>:
    1398:	2201      	movs	r2, #1
    139a:	4b01      	ldr	r3, [pc, #4]	; (13a0 <vTaskMissedYield+0x8>)
    139c:	601a      	str	r2, [r3, #0]
    139e:	4770      	bx	lr
    13a0:	1fffe354 	svcne	0x00ffe354

000013a4 <xTaskGetSchedulerState>:
    13a4:	4b05      	ldr	r3, [pc, #20]	; (13bc <xTaskGetSchedulerState+0x18>)
    13a6:	2001      	movs	r0, #1
    13a8:	681b      	ldr	r3, [r3, #0]
    13aa:	2b00      	cmp	r3, #0
    13ac:	d004      	beq.n	13b8 <xTaskGetSchedulerState+0x14>
    13ae:	4b04      	ldr	r3, [pc, #16]	; (13c0 <xTaskGetSchedulerState+0x1c>)
    13b0:	6818      	ldr	r0, [r3, #0]
    13b2:	4243      	negs	r3, r0
    13b4:	4158      	adcs	r0, r3
    13b6:	0040      	lsls	r0, r0, #1
    13b8:	4770      	bx	lr
    13ba:	46c0      	nop			; (mov r8, r8)
    13bc:	1fffe160 	svcne	0x00ffe160
    13c0:	1fffe328 	svcne	0x00ffe328

000013c4 <vTaskPriorityInherit>:
    13c4:	b5f8      	push	{r3, r4, r5, r6, r7, lr}
    13c6:	1e04      	subs	r4, r0, #0
    13c8:	d02b      	beq.n	1422 <vTaskPriorityInherit+0x5e>
    13ca:	4d16      	ldr	r5, [pc, #88]	; (1424 <vTaskPriorityInherit+0x60>)
    13cc:	6ac1      	ldr	r1, [r0, #44]	; 0x2c
    13ce:	682b      	ldr	r3, [r5, #0]
    13d0:	6adb      	ldr	r3, [r3, #44]	; 0x2c
    13d2:	4299      	cmp	r1, r3
    13d4:	d225      	bcs.n	1422 <vTaskPriorityInherit+0x5e>
    13d6:	6983      	ldr	r3, [r0, #24]
    13d8:	2b00      	cmp	r3, #0
    13da:	db04      	blt.n	13e6 <vTaskPriorityInherit+0x22>
    13dc:	2212      	movs	r2, #18
    13de:	682b      	ldr	r3, [r5, #0]
    13e0:	6adb      	ldr	r3, [r3, #44]	; 0x2c
    13e2:	1ad2      	subs	r2, r2, r3
    13e4:	6182      	str	r2, [r0, #24]
    13e6:	2314      	movs	r3, #20
    13e8:	434b      	muls	r3, r1
    13ea:	480f      	ldr	r0, [pc, #60]	; (1428 <vTaskPriorityInherit+0x64>)
    13ec:	6962      	ldr	r2, [r4, #20]
    13ee:	18c3      	adds	r3, r0, r3
    13f0:	0007      	movs	r7, r0
    13f2:	429a      	cmp	r2, r3
    13f4:	d112      	bne.n	141c <vTaskPriorityInherit+0x58>
    13f6:	1d26      	adds	r6, r4, #4
    13f8:	0030      	movs	r0, r6
    13fa:	f7ff fc2a 	bl	c52 <uxListRemove>
    13fe:	682b      	ldr	r3, [r5, #0]
    1400:	6ad8      	ldr	r0, [r3, #44]	; 0x2c
    1402:	4b0a      	ldr	r3, [pc, #40]	; (142c <vTaskPriorityInherit+0x68>)
    1404:	62e0      	str	r0, [r4, #44]	; 0x2c
    1406:	681a      	ldr	r2, [r3, #0]
    1408:	4290      	cmp	r0, r2
    140a:	d900      	bls.n	140e <vTaskPriorityInherit+0x4a>
    140c:	6018      	str	r0, [r3, #0]
    140e:	2314      	movs	r3, #20
    1410:	4358      	muls	r0, r3
    1412:	0031      	movs	r1, r6
    1414:	1838      	adds	r0, r7, r0
    1416:	f7ff fbf8 	bl	c0a <vListInsertEnd>
    141a:	e002      	b.n	1422 <vTaskPriorityInherit+0x5e>
    141c:	682b      	ldr	r3, [r5, #0]
    141e:	6adb      	ldr	r3, [r3, #44]	; 0x2c
    1420:	62e3      	str	r3, [r4, #44]	; 0x2c
    1422:	bdf8      	pop	{r3, r4, r5, r6, r7, pc}
    1424:	1fffe310 	svcne	0x00ffe310
    1428:	1fffe194 	svcne	0x00ffe194
    142c:	1fffe350 	svcne	0x00ffe350

00001430 <xTaskPriorityDisinherit>:
    1430:	b570      	push	{r4, r5, r6, lr}
    1432:	1e04      	subs	r4, r0, #0
    1434:	d101      	bne.n	143a <xTaskPriorityDisinherit+0xa>
    1436:	2000      	movs	r0, #0
    1438:	e023      	b.n	1482 <xTaskPriorityDisinherit+0x52>
    143a:	6c43      	ldr	r3, [r0, #68]	; 0x44
    143c:	2b00      	cmp	r3, #0
    143e:	d102      	bne.n	1446 <xTaskPriorityDisinherit+0x16>
    1440:	f000 fa56 	bl	18f0 <ulPortSetInterruptMask>
    1444:	e7fe      	b.n	1444 <xTaskPriorityDisinherit+0x14>
    1446:	6ac2      	ldr	r2, [r0, #44]	; 0x2c
    1448:	6c01      	ldr	r1, [r0, #64]	; 0x40
    144a:	3b01      	subs	r3, #1
    144c:	6443      	str	r3, [r0, #68]	; 0x44
    144e:	428a      	cmp	r2, r1
    1450:	d0f1      	beq.n	1436 <xTaskPriorityDisinherit+0x6>
    1452:	2b00      	cmp	r3, #0
    1454:	d1ef      	bne.n	1436 <xTaskPriorityDisinherit+0x6>
    1456:	1d05      	adds	r5, r0, #4
    1458:	0028      	movs	r0, r5
    145a:	f7ff fbfa 	bl	c52 <uxListRemove>
    145e:	2312      	movs	r3, #18
    1460:	6c20      	ldr	r0, [r4, #64]	; 0x40
    1462:	1a1b      	subs	r3, r3, r0
    1464:	61a3      	str	r3, [r4, #24]
    1466:	4b07      	ldr	r3, [pc, #28]	; (1484 <xTaskPriorityDisinherit+0x54>)
    1468:	62e0      	str	r0, [r4, #44]	; 0x2c
    146a:	681a      	ldr	r2, [r3, #0]
    146c:	4290      	cmp	r0, r2
    146e:	d900      	bls.n	1472 <xTaskPriorityDisinherit+0x42>
    1470:	6018      	str	r0, [r3, #0]
    1472:	2314      	movs	r3, #20
    1474:	4358      	muls	r0, r3
    1476:	4b04      	ldr	r3, [pc, #16]	; (1488 <xTaskPriorityDisinherit+0x58>)
    1478:	0029      	movs	r1, r5
    147a:	1818      	adds	r0, r3, r0
    147c:	f7ff fbc5 	bl	c0a <vListInsertEnd>
    1480:	2001      	movs	r0, #1
    1482:	bd70      	pop	{r4, r5, r6, pc}
    1484:	1fffe350 	svcne	0x00ffe350
    1488:	1fffe194 	svcne	0x00ffe194

0000148c <pvTaskIncrementMutexHeldCount>:
    148c:	4b04      	ldr	r3, [pc, #16]	; (14a0 <pvTaskIncrementMutexHeldCount+0x14>)
    148e:	681a      	ldr	r2, [r3, #0]
    1490:	2a00      	cmp	r2, #0
    1492:	d003      	beq.n	149c <pvTaskIncrementMutexHeldCount+0x10>
    1494:	6819      	ldr	r1, [r3, #0]
    1496:	6c4a      	ldr	r2, [r1, #68]	; 0x44
    1498:	3201      	adds	r2, #1
    149a:	644a      	str	r2, [r1, #68]	; 0x44
    149c:	6818      	ldr	r0, [r3, #0]
    149e:	4770      	bx	lr
    14a0:	1fffe310 	svcne	0x00ffe310

000014a4 <prvCheckForValidListAndQueue>:
    14a4:	b5f8      	push	{r3, r4, r5, r6, r7, lr}
    14a6:	f000 fa37 	bl	1918 <vPortEnterCritical>
    14aa:	4c0f      	ldr	r4, [pc, #60]	; (14e8 <prvCheckForValidListAndQueue+0x44>)
    14ac:	6825      	ldr	r5, [r4, #0]
    14ae:	2d00      	cmp	r5, #0
    14b0:	d116      	bne.n	14e0 <prvCheckForValidListAndQueue+0x3c>
    14b2:	4f0e      	ldr	r7, [pc, #56]	; (14ec <prvCheckForValidListAndQueue+0x48>)
    14b4:	0038      	movs	r0, r7
    14b6:	f7ff fb9a 	bl	bee <vListInitialise>
    14ba:	4e0d      	ldr	r6, [pc, #52]	; (14f0 <prvCheckForValidListAndQueue+0x4c>)
    14bc:	0030      	movs	r0, r6
    14be:	f7ff fb96 	bl	bee <vListInitialise>
    14c2:	4b0c      	ldr	r3, [pc, #48]	; (14f4 <prvCheckForValidListAndQueue+0x50>)
    14c4:	002a      	movs	r2, r5
    14c6:	601f      	str	r7, [r3, #0]
    14c8:	4b0b      	ldr	r3, [pc, #44]	; (14f8 <prvCheckForValidListAndQueue+0x54>)
    14ca:	2110      	movs	r1, #16
    14cc:	200a      	movs	r0, #10
    14ce:	601e      	str	r6, [r3, #0]
    14d0:	f7ff f9d1 	bl	876 <xQueueGenericCreate>
    14d4:	6020      	str	r0, [r4, #0]
    14d6:	2800      	cmp	r0, #0
    14d8:	d102      	bne.n	14e0 <prvCheckForValidListAndQueue+0x3c>
    14da:	f000 fa09 	bl	18f0 <ulPortSetInterruptMask>
    14de:	e7fe      	b.n	14de <prvCheckForValidListAndQueue+0x3a>
    14e0:	f000 fa2c 	bl	193c <vPortExitCritical>
    14e4:	bdf8      	pop	{r3, r4, r5, r6, r7, pc}
    14e6:	46c0      	nop			; (mov r8, r8)
    14e8:	1fffe388 	svcne	0x00ffe388
    14ec:	1fffe35c 	svcne	0x00ffe35c
    14f0:	1fffe370 	svcne	0x00ffe370
    14f4:	1fffe358 	svcne	0x00ffe358
    14f8:	1fffe38c 	svcne	0x00ffe38c

000014fc <prvInsertTimerInActiveList>:
    14fc:	b510      	push	{r4, lr}
    14fe:	6041      	str	r1, [r0, #4]
    1500:	6100      	str	r0, [r0, #16]
    1502:	4291      	cmp	r1, r2
    1504:	d807      	bhi.n	1516 <prvInsertTimerInActiveList+0x1a>
    1506:	1ad2      	subs	r2, r2, r3
    1508:	6983      	ldr	r3, [r0, #24]
    150a:	2401      	movs	r4, #1
    150c:	429a      	cmp	r2, r3
    150e:	d20d      	bcs.n	152c <prvInsertTimerInActiveList+0x30>
    1510:	1d01      	adds	r1, r0, #4
    1512:	4b07      	ldr	r3, [pc, #28]	; (1530 <prvInsertTimerInActiveList+0x34>)
    1514:	e006      	b.n	1524 <prvInsertTimerInActiveList+0x28>
    1516:	429a      	cmp	r2, r3
    1518:	d202      	bcs.n	1520 <prvInsertTimerInActiveList+0x24>
    151a:	2401      	movs	r4, #1
    151c:	4299      	cmp	r1, r3
    151e:	d205      	bcs.n	152c <prvInsertTimerInActiveList+0x30>
    1520:	4b04      	ldr	r3, [pc, #16]	; (1534 <prvInsertTimerInActiveList+0x38>)
    1522:	1d01      	adds	r1, r0, #4
    1524:	6818      	ldr	r0, [r3, #0]
    1526:	f7ff fb7c 	bl	c22 <vListInsert>
    152a:	2400      	movs	r4, #0
    152c:	0020      	movs	r0, r4
    152e:	bd10      	pop	{r4, pc}
    1530:	1fffe38c 	svcne	0x00ffe38c
    1534:	1fffe358 	svcne	0x00ffe358

00001538 <xTimerCreateTimerTask>:
    1538:	b51f      	push	{r0, r1, r2, r3, r4, lr}
    153a:	f7ff ffb3 	bl	14a4 <prvCheckForValidListAndQueue>
    153e:	4b0c      	ldr	r3, [pc, #48]	; (1570 <xTimerCreateTimerTask+0x38>)
    1540:	681b      	ldr	r3, [r3, #0]
    1542:	2b00      	cmp	r3, #0
    1544:	d102      	bne.n	154c <xTimerCreateTimerTask+0x14>
    1546:	f000 f9d3 	bl	18f0 <ulPortSetInterruptMask>
    154a:	e00f      	b.n	156c <xTimerCreateTimerTask+0x34>
    154c:	2211      	movs	r2, #17
    154e:	2300      	movs	r3, #0
    1550:	9200      	str	r2, [sp, #0]
    1552:	3280      	adds	r2, #128	; 0x80
    1554:	9303      	str	r3, [sp, #12]
    1556:	9302      	str	r3, [sp, #8]
    1558:	9301      	str	r3, [sp, #4]
    155a:	32ff      	adds	r2, #255	; 0xff
    155c:	4905      	ldr	r1, [pc, #20]	; (1574 <xTimerCreateTimerTask+0x3c>)
    155e:	4806      	ldr	r0, [pc, #24]	; (1578 <xTimerCreateTimerTask+0x40>)
    1560:	f7ff fbc4 	bl	cec <xTaskGenericCreate>
    1564:	2800      	cmp	r0, #0
    1566:	d0ee      	beq.n	1546 <xTimerCreateTimerTask+0xe>
    1568:	b005      	add	sp, #20
    156a:	bd00      	pop	{pc}
    156c:	e7fe      	b.n	156c <xTimerCreateTimerTask+0x34>
    156e:	46c0      	nop			; (mov r8, r8)
    1570:	1fffe388 	svcne	0x00ffe388
    1574:	00001d8f 	andeq	r1, r0, pc, lsl #27
    1578:	0000162d 	andeq	r1, r0, sp, lsr #12

0000157c <xTimerGenericCommand>:
    157c:	b5f0      	push	{r4, r5, r6, r7, lr}
    157e:	4d10      	ldr	r5, [pc, #64]	; (15c0 <xTimerGenericCommand+0x44>)
    1580:	0006      	movs	r6, r0
    1582:	682c      	ldr	r4, [r5, #0]
    1584:	0017      	movs	r7, r2
    1586:	b085      	sub	sp, #20
    1588:	001a      	movs	r2, r3
    158a:	1e20      	subs	r0, r4, #0
    158c:	d015      	beq.n	15ba <xTimerGenericCommand+0x3e>
    158e:	9100      	str	r1, [sp, #0]
    1590:	9701      	str	r7, [sp, #4]
    1592:	9602      	str	r6, [sp, #8]
    1594:	2905      	cmp	r1, #5
    1596:	dc0b      	bgt.n	15b0 <xTimerGenericCommand+0x34>
    1598:	f7ff ff04 	bl	13a4 <xTaskGetSchedulerState>
    159c:	2300      	movs	r3, #0
    159e:	9a0a      	ldr	r2, [sp, #40]	; 0x28
    15a0:	2802      	cmp	r0, #2
    15a2:	d000      	beq.n	15a6 <xTimerGenericCommand+0x2a>
    15a4:	001a      	movs	r2, r3
    15a6:	4669      	mov	r1, sp
    15a8:	6828      	ldr	r0, [r5, #0]
    15aa:	f7ff f98a 	bl	8c2 <xQueueGenericSend>
    15ae:	e004      	b.n	15ba <xTimerGenericCommand+0x3e>
    15b0:	2300      	movs	r3, #0
    15b2:	4669      	mov	r1, sp
    15b4:	0020      	movs	r0, r4
    15b6:	f7ff fa16 	bl	9e6 <xQueueGenericSendFromISR>
    15ba:	b005      	add	sp, #20
    15bc:	bdf0      	pop	{r4, r5, r6, r7, pc}
    15be:	46c0      	nop			; (mov r8, r8)
    15c0:	1fffe388 	svcne	0x00ffe388

000015c4 <prvSwitchTimerLists>:
    15c4:	b5f7      	push	{r0, r1, r2, r4, r5, r6, r7, lr}
    15c6:	4d17      	ldr	r5, [pc, #92]	; (1624 <prvSwitchTimerLists+0x60>)
    15c8:	682b      	ldr	r3, [r5, #0]
    15ca:	681a      	ldr	r2, [r3, #0]
    15cc:	2a00      	cmp	r2, #0
    15ce:	d023      	beq.n	1618 <prvSwitchTimerLists+0x54>
    15d0:	68db      	ldr	r3, [r3, #12]
    15d2:	68dc      	ldr	r4, [r3, #12]
    15d4:	681e      	ldr	r6, [r3, #0]
    15d6:	1d27      	adds	r7, r4, #4
    15d8:	0038      	movs	r0, r7
    15da:	f7ff fb3a 	bl	c52 <uxListRemove>
    15de:	6a63      	ldr	r3, [r4, #36]	; 0x24
    15e0:	0020      	movs	r0, r4
    15e2:	4798      	blx	r3
    15e4:	69e3      	ldr	r3, [r4, #28]
    15e6:	2b01      	cmp	r3, #1
    15e8:	d1ed      	bne.n	15c6 <prvSwitchTimerLists+0x2>
    15ea:	69a3      	ldr	r3, [r4, #24]
    15ec:	18f3      	adds	r3, r6, r3
    15ee:	429e      	cmp	r6, r3
    15f0:	d206      	bcs.n	1600 <prvSwitchTimerLists+0x3c>
    15f2:	6063      	str	r3, [r4, #4]
    15f4:	6124      	str	r4, [r4, #16]
    15f6:	0039      	movs	r1, r7
    15f8:	6828      	ldr	r0, [r5, #0]
    15fa:	f7ff fb12 	bl	c22 <vListInsert>
    15fe:	e7e2      	b.n	15c6 <prvSwitchTimerLists+0x2>
    1600:	2100      	movs	r1, #0
    1602:	0032      	movs	r2, r6
    1604:	9100      	str	r1, [sp, #0]
    1606:	000b      	movs	r3, r1
    1608:	0020      	movs	r0, r4
    160a:	f7ff ffb7 	bl	157c <xTimerGenericCommand>
    160e:	2800      	cmp	r0, #0
    1610:	d1d9      	bne.n	15c6 <prvSwitchTimerLists+0x2>
    1612:	f000 f96d 	bl	18f0 <ulPortSetInterruptMask>
    1616:	e7fe      	b.n	1616 <prvSwitchTimerLists+0x52>
    1618:	4a03      	ldr	r2, [pc, #12]	; (1628 <prvSwitchTimerLists+0x64>)
    161a:	6811      	ldr	r1, [r2, #0]
    161c:	6013      	str	r3, [r2, #0]
    161e:	6029      	str	r1, [r5, #0]
    1620:	bdf7      	pop	{r0, r1, r2, r4, r5, r6, r7, pc}
    1622:	46c0      	nop			; (mov r8, r8)
    1624:	1fffe358 	svcne	0x00ffe358
    1628:	1fffe38c 	svcne	0x00ffe38c

0000162c <prvTimerTask>:
    162c:	b5f0      	push	{r4, r5, r6, r7, lr}
    162e:	b089      	sub	sp, #36	; 0x24
    1630:	2400      	movs	r4, #0
    1632:	4b5d      	ldr	r3, [pc, #372]	; (17a8 <prvTimerTask+0x17c>)
    1634:	681b      	ldr	r3, [r3, #0]
    1636:	681a      	ldr	r2, [r3, #0]
    1638:	9203      	str	r2, [sp, #12]
    163a:	42a2      	cmp	r2, r4
    163c:	d001      	beq.n	1642 <prvTimerTask+0x16>
    163e:	68db      	ldr	r3, [r3, #12]
    1640:	681c      	ldr	r4, [r3, #0]
    1642:	f7ff fc57 	bl	ef4 <vTaskSuspendAll>
    1646:	f7ff fc5d 	bl	f04 <xTaskGetTickCount>
    164a:	4e58      	ldr	r6, [pc, #352]	; (17ac <prvTimerTask+0x180>)
    164c:	0005      	movs	r5, r0
    164e:	6833      	ldr	r3, [r6, #0]
    1650:	2700      	movs	r7, #0
    1652:	4298      	cmp	r0, r3
    1654:	d202      	bcs.n	165c <prvTimerTask+0x30>
    1656:	f7ff ffb5 	bl	15c4 <prvSwitchTimerLists>
    165a:	3701      	adds	r7, #1
    165c:	6035      	str	r5, [r6, #0]
    165e:	2f00      	cmp	r7, #0
    1660:	d137      	bne.n	16d2 <prvTimerTask+0xa6>
    1662:	9b03      	ldr	r3, [sp, #12]
    1664:	2b00      	cmp	r3, #0
    1666:	d028      	beq.n	16ba <prvTimerTask+0x8e>
    1668:	42a5      	cmp	r5, r4
    166a:	d326      	bcc.n	16ba <prvTimerTask+0x8e>
    166c:	f7ff fcd8 	bl	1020 <xTaskResumeAll>
    1670:	4b4d      	ldr	r3, [pc, #308]	; (17a8 <prvTimerTask+0x17c>)
    1672:	681b      	ldr	r3, [r3, #0]
    1674:	68db      	ldr	r3, [r3, #12]
    1676:	68de      	ldr	r6, [r3, #12]
    1678:	1d30      	adds	r0, r6, #4
    167a:	f7ff faea 	bl	c52 <uxListRemove>
    167e:	69f3      	ldr	r3, [r6, #28]
    1680:	2b01      	cmp	r3, #1
    1682:	d114      	bne.n	16ae <prvTimerTask+0x82>
    1684:	69b3      	ldr	r3, [r6, #24]
    1686:	002a      	movs	r2, r5
    1688:	18e1      	adds	r1, r4, r3
    168a:	0030      	movs	r0, r6
    168c:	0023      	movs	r3, r4
    168e:	f7ff ff35 	bl	14fc <prvInsertTimerInActiveList>
    1692:	2801      	cmp	r0, #1
    1694:	d10b      	bne.n	16ae <prvTimerTask+0x82>
    1696:	9700      	str	r7, [sp, #0]
    1698:	003b      	movs	r3, r7
    169a:	0022      	movs	r2, r4
    169c:	0039      	movs	r1, r7
    169e:	0030      	movs	r0, r6
    16a0:	f7ff ff6c 	bl	157c <xTimerGenericCommand>
    16a4:	2800      	cmp	r0, #0
    16a6:	d102      	bne.n	16ae <prvTimerTask+0x82>
    16a8:	f000 f922 	bl	18f0 <ulPortSetInterruptMask>
    16ac:	e7fe      	b.n	16ac <prvTimerTask+0x80>
    16ae:	6a73      	ldr	r3, [r6, #36]	; 0x24
    16b0:	0030      	movs	r0, r6
    16b2:	4798      	blx	r3
    16b4:	2784      	movs	r7, #132	; 0x84
    16b6:	00bf      	lsls	r7, r7, #2
    16b8:	e01a      	b.n	16f0 <prvTimerTask+0xc4>
    16ba:	4b3d      	ldr	r3, [pc, #244]	; (17b0 <prvTimerTask+0x184>)
    16bc:	1b61      	subs	r1, r4, r5
    16be:	6818      	ldr	r0, [r3, #0]
    16c0:	f7ff fa78 	bl	bb4 <vQueueWaitForMessageRestricted>
    16c4:	f7ff fcac 	bl	1020 <xTaskResumeAll>
    16c8:	2800      	cmp	r0, #0
    16ca:	d1f3      	bne.n	16b4 <prvTimerTask+0x88>
    16cc:	f000 f8a2 	bl	1814 <vPortYieldFromISR>
    16d0:	e7f0      	b.n	16b4 <prvTimerTask+0x88>
    16d2:	f7ff fca5 	bl	1020 <xTaskResumeAll>
    16d6:	e7ed      	b.n	16b4 <prvTimerTask+0x88>
    16d8:	9b04      	ldr	r3, [sp, #16]
    16da:	2b00      	cmp	r3, #0
    16dc:	da04      	bge.n	16e8 <prvTimerTask+0xbc>
    16de:	9b05      	ldr	r3, [sp, #20]
    16e0:	9907      	ldr	r1, [sp, #28]
    16e2:	9806      	ldr	r0, [sp, #24]
    16e4:	9303      	str	r3, [sp, #12]
    16e6:	4798      	blx	r3
    16e8:	9b04      	ldr	r3, [sp, #16]
    16ea:	9303      	str	r3, [sp, #12]
    16ec:	2b00      	cmp	r3, #0
    16ee:	da09      	bge.n	1704 <prvTimerTask+0xd8>
    16f0:	2300      	movs	r3, #0
    16f2:	482f      	ldr	r0, [pc, #188]	; (17b0 <prvTimerTask+0x184>)
    16f4:	001a      	movs	r2, r3
    16f6:	a904      	add	r1, sp, #16
    16f8:	6800      	ldr	r0, [r0, #0]
    16fa:	f7ff f9b8 	bl	a6e <xQueueGenericReceive>
    16fe:	2800      	cmp	r0, #0
    1700:	d1ea      	bne.n	16d8 <prvTimerTask+0xac>
    1702:	e795      	b.n	1630 <prvTimerTask+0x4>
    1704:	9c06      	ldr	r4, [sp, #24]
    1706:	6963      	ldr	r3, [r4, #20]
    1708:	2b00      	cmp	r3, #0
    170a:	d002      	beq.n	1712 <prvTimerTask+0xe6>
    170c:	1d20      	adds	r0, r4, #4
    170e:	f7ff faa0 	bl	c52 <uxListRemove>
    1712:	f7ff fbf7 	bl	f04 <xTaskGetTickCount>
    1716:	4b25      	ldr	r3, [pc, #148]	; (17ac <prvTimerTask+0x180>)
    1718:	0005      	movs	r5, r0
    171a:	681b      	ldr	r3, [r3, #0]
    171c:	9303      	str	r3, [sp, #12]
    171e:	4298      	cmp	r0, r3
    1720:	d201      	bcs.n	1726 <prvTimerTask+0xfa>
    1722:	f7ff ff4f 	bl	15c4 <prvSwitchTimerLists>
    1726:	4b21      	ldr	r3, [pc, #132]	; (17ac <prvTimerTask+0x180>)
    1728:	601d      	str	r5, [r3, #0]
    172a:	9b04      	ldr	r3, [sp, #16]
    172c:	2b09      	cmp	r3, #9
    172e:	d8df      	bhi.n	16f0 <prvTimerTask+0xc4>
    1730:	2201      	movs	r2, #1
    1732:	409a      	lsls	r2, r3
    1734:	0016      	movs	r6, r2
    1736:	0013      	movs	r3, r2
    1738:	403e      	ands	r6, r7
    173a:	d126      	bne.n	178a <prvTimerTask+0x15e>
    173c:	22c7      	movs	r2, #199	; 0xc7
    173e:	4213      	tst	r3, r2
    1740:	d105      	bne.n	174e <prvTimerTask+0x122>
    1742:	069b      	lsls	r3, r3, #26
    1744:	d5d4      	bpl.n	16f0 <prvTimerTask+0xc4>
    1746:	0020      	movs	r0, r4
    1748:	f7fe ffd6 	bl	6f8 <vPortFree>
    174c:	e7d0      	b.n	16f0 <prvTimerTask+0xc4>
    174e:	9b05      	ldr	r3, [sp, #20]
    1750:	69a2      	ldr	r2, [r4, #24]
    1752:	0020      	movs	r0, r4
    1754:	1899      	adds	r1, r3, r2
    1756:	002a      	movs	r2, r5
    1758:	9303      	str	r3, [sp, #12]
    175a:	f7ff fecf 	bl	14fc <prvInsertTimerInActiveList>
    175e:	2801      	cmp	r0, #1
    1760:	d1c6      	bne.n	16f0 <prvTimerTask+0xc4>
    1762:	6a63      	ldr	r3, [r4, #36]	; 0x24
    1764:	0020      	movs	r0, r4
    1766:	4798      	blx	r3
    1768:	69e3      	ldr	r3, [r4, #28]
    176a:	2b01      	cmp	r3, #1
    176c:	d1c0      	bne.n	16f0 <prvTimerTask+0xc4>
    176e:	69a3      	ldr	r3, [r4, #24]
    1770:	9a05      	ldr	r2, [sp, #20]
    1772:	9600      	str	r6, [sp, #0]
    1774:	18d2      	adds	r2, r2, r3
    1776:	0031      	movs	r1, r6
    1778:	0033      	movs	r3, r6
    177a:	0020      	movs	r0, r4
    177c:	f7ff fefe 	bl	157c <xTimerGenericCommand>
    1780:	2800      	cmp	r0, #0
    1782:	d1b5      	bne.n	16f0 <prvTimerTask+0xc4>
    1784:	f000 f8b4 	bl	18f0 <ulPortSetInterruptMask>
    1788:	e7fe      	b.n	1788 <prvTimerTask+0x15c>
    178a:	9905      	ldr	r1, [sp, #20]
    178c:	61a1      	str	r1, [r4, #24]
    178e:	2900      	cmp	r1, #0
    1790:	d102      	bne.n	1798 <prvTimerTask+0x16c>
    1792:	f000 f8ad 	bl	18f0 <ulPortSetInterruptMask>
    1796:	e7fe      	b.n	1796 <prvTimerTask+0x16a>
    1798:	1949      	adds	r1, r1, r5
    179a:	002b      	movs	r3, r5
    179c:	002a      	movs	r2, r5
    179e:	0020      	movs	r0, r4
    17a0:	f7ff feac 	bl	14fc <prvInsertTimerInActiveList>
    17a4:	e7a4      	b.n	16f0 <prvTimerTask+0xc4>
    17a6:	46c0      	nop			; (mov r8, r8)
    17a8:	1fffe358 	svcne	0x00ffe358
    17ac:	1fffe384 	svcne	0x00ffe384
    17b0:	1fffe388 	svcne	0x00ffe388

000017b4 <pxPortInitialiseStack>:
    17b4:	b510      	push	{r4, lr}
    17b6:	2480      	movs	r4, #128	; 0x80
    17b8:	1f03      	subs	r3, r0, #4
    17ba:	0464      	lsls	r4, r4, #17
    17bc:	601c      	str	r4, [r3, #0]
    17be:	3b04      	subs	r3, #4
    17c0:	6019      	str	r1, [r3, #0]
    17c2:	4903      	ldr	r1, [pc, #12]	; (17d0 <pxPortInitialiseStack+0x1c>)
    17c4:	3b04      	subs	r3, #4
    17c6:	6019      	str	r1, [r3, #0]
    17c8:	3b14      	subs	r3, #20
    17ca:	3840      	subs	r0, #64	; 0x40
    17cc:	601a      	str	r2, [r3, #0]
    17ce:	bd10      	pop	{r4, pc}
    17d0:	000018fd 	strdeq	r1, [r0], -sp

000017d4 <vPortInitTickTimer>:
    17d4:	21c0      	movs	r1, #192	; 0xc0
    17d6:	b510      	push	{r4, lr}
    17d8:	4a09      	ldr	r2, [pc, #36]	; (1800 <vPortInitTickTimer+0x2c>)
    17da:	0609      	lsls	r1, r1, #24
    17dc:	6813      	ldr	r3, [r2, #0]
    17de:	430b      	orrs	r3, r1
    17e0:	6013      	str	r3, [r2, #0]
    17e2:	4b08      	ldr	r3, [pc, #32]	; (1804 <vPortInitTickTimer+0x30>)
    17e4:	21c8      	movs	r1, #200	; 0xc8
    17e6:	6818      	ldr	r0, [r3, #0]
    17e8:	f000 f8e8 	bl	19bc <__aeabi_uidiv>
    17ec:	2200      	movs	r2, #0
    17ee:	4b06      	ldr	r3, [pc, #24]	; (1808 <vPortInitTickTimer+0x34>)
    17f0:	3801      	subs	r0, #1
    17f2:	6018      	str	r0, [r3, #0]
    17f4:	4b05      	ldr	r3, [pc, #20]	; (180c <vPortInitTickTimer+0x38>)
    17f6:	601a      	str	r2, [r3, #0]
    17f8:	4b05      	ldr	r3, [pc, #20]	; (1810 <vPortInitTickTimer+0x3c>)
    17fa:	3207      	adds	r2, #7
    17fc:	601a      	str	r2, [r3, #0]
    17fe:	bd10      	pop	{r4, pc}
    1800:	e000ed20 	and	lr, r0, r0, lsr #26
    1804:	1fffe0c0 	svcne	0x00ffe0c0
    1808:	e000e014 	and	lr, r0, r4, lsl r0
    180c:	e000e018 	and	lr, r0, r8, lsl r0
    1810:	e000e010 	and	lr, r0, r0, lsl r0

00001814 <vPortYieldFromISR>:
    1814:	2280      	movs	r2, #128	; 0x80
    1816:	4b04      	ldr	r3, [pc, #16]	; (1828 <vPortYieldFromISR+0x14>)
    1818:	0552      	lsls	r2, r2, #21
    181a:	601a      	str	r2, [r3, #0]
    181c:	f3bf 8f4f 	dsb	sy
    1820:	f3bf 8f6f 	isb	sy
    1824:	4770      	bx	lr
    1826:	46c0      	nop			; (mov r8, r8)
    1828:	e000ed04 	and	lr, r0, r4, lsl #26

0000182c <vPortStartFirstTask>:
    182c:	4804      	ldr	r0, [pc, #16]	; (1840 <vPortStartFirstTask+0x14>)
    182e:	6800      	ldr	r0, [r0, #0]
    1830:	6800      	ldr	r0, [r0, #0]
    1832:	f380 8808 	msr	MSP, r0
    1836:	b662      	cpsie	i
    1838:	df00      	svc	0
    183a:	46c0      	nop			; (mov r8, r8)
    183c:	4770      	bx	lr
    183e:	ed080000 	stc	0, cr0, [r8, #-0]
    1842:	21c0e000 	biccs	lr, r0, r0

00001844 <xPortStartScheduler>:
    1844:	21c0      	movs	r1, #192	; 0xc0
    1846:	b510      	push	{r4, lr}
    1848:	4a0a      	ldr	r2, [pc, #40]	; (1874 <xPortStartScheduler+0x30>)
    184a:	0409      	lsls	r1, r1, #16
    184c:	6813      	ldr	r3, [r2, #0]
    184e:	430b      	orrs	r3, r1
    1850:	6013      	str	r3, [r2, #0]
    1852:	2200      	movs	r2, #0
    1854:	4b08      	ldr	r3, [pc, #32]	; (1878 <xPortStartScheduler+0x34>)
    1856:	601a      	str	r2, [r3, #0]
    1858:	f7ff ffbc 	bl	17d4 <vPortInitTickTimer>
    185c:	2207      	movs	r2, #7
    185e:	4b07      	ldr	r3, [pc, #28]	; (187c <xPortStartScheduler+0x38>)
    1860:	4807      	ldr	r0, [pc, #28]	; (1880 <xPortStartScheduler+0x3c>)
    1862:	601a      	str	r2, [r3, #0]
    1864:	f000 fa56 	bl	1d14 <setjmp>
    1868:	2800      	cmp	r0, #0
    186a:	d101      	bne.n	1870 <xPortStartScheduler+0x2c>
    186c:	f7ff ffde 	bl	182c <vPortStartFirstTask>
    1870:	2000      	movs	r0, #0
    1872:	bd10      	pop	{r4, pc}
    1874:	e000ed20 	and	lr, r0, r0, lsr #26
    1878:	1fffe0c8 	svcne	0x00ffe0c8
    187c:	e000e010 	and	lr, r0, r0, lsl r0
    1880:	1fffe390 	svcne	0x00ffe390

00001884 <SVC_Handler>:
    1884:	4b08      	ldr	r3, [pc, #32]	; (18a8 <pxCurrentTCBConst2>)
    1886:	6819      	ldr	r1, [r3, #0]
    1888:	6808      	ldr	r0, [r1, #0]
    188a:	3010      	adds	r0, #16
    188c:	c8f0      	ldmia	r0!, {r4, r5, r6, r7}
    188e:	46a0      	mov	r8, r4
    1890:	46a9      	mov	r9, r5
    1892:	46b2      	mov	sl, r6
    1894:	46bb      	mov	fp, r7
    1896:	f380 8809 	msr	PSP, r0
    189a:	3820      	subs	r0, #32
    189c:	c8f0      	ldmia	r0!, {r4, r5, r6, r7}
    189e:	4671      	mov	r1, lr
    18a0:	200d      	movs	r0, #13
    18a2:	4301      	orrs	r1, r0
    18a4:	4708      	bx	r1
    18a6:	46c0      	nop			; (mov r8, r8)

000018a8 <pxCurrentTCBConst2>:
    18a8:	1fffe310 	svcne	0x00ffe310

000018ac <PendSV_Handler>:
    18ac:	f3ef 8009 	mrs	r0, PSP
    18b0:	4b0e      	ldr	r3, [pc, #56]	; (18ec <pxCurrentTCBConst>)
    18b2:	681a      	ldr	r2, [r3, #0]
    18b4:	3820      	subs	r0, #32
    18b6:	6010      	str	r0, [r2, #0]
    18b8:	c0f0      	stmia	r0!, {r4, r5, r6, r7}
    18ba:	4644      	mov	r4, r8
    18bc:	464d      	mov	r5, r9
    18be:	4656      	mov	r6, sl
    18c0:	465f      	mov	r7, fp
    18c2:	c0f0      	stmia	r0!, {r4, r5, r6, r7}
    18c4:	b508      	push	{r3, lr}
    18c6:	b672      	cpsid	i
    18c8:	f7ff fc6c 	bl	11a4 <vTaskSwitchContext>
    18cc:	b662      	cpsie	i
    18ce:	bc0c      	pop	{r2, r3}
    18d0:	6811      	ldr	r1, [r2, #0]
    18d2:	6808      	ldr	r0, [r1, #0]
    18d4:	3010      	adds	r0, #16
    18d6:	c8f0      	ldmia	r0!, {r4, r5, r6, r7}
    18d8:	46a0      	mov	r8, r4
    18da:	46a9      	mov	r9, r5
    18dc:	46b2      	mov	sl, r6
    18de:	46bb      	mov	fp, r7
    18e0:	f380 8809 	msr	PSP, r0
    18e4:	3820      	subs	r0, #32
    18e6:	c8f0      	ldmia	r0!, {r4, r5, r6, r7}
    18e8:	4718      	bx	r3
    18ea:	46c0      	nop			; (mov r8, r8)

000018ec <pxCurrentTCBConst>:
    18ec:	1fffe310 	svcne	0x00ffe310

000018f0 <ulPortSetInterruptMask>:
    18f0:	f3ef 8010 	mrs	r0, PRIMASK
    18f4:	b672      	cpsid	i
    18f6:	4770      	bx	lr
    18f8:	2000      	movs	r0, #0
	...

000018fc <prvTaskExitError>:
    18fc:	b510      	push	{r4, lr}
    18fe:	4b05      	ldr	r3, [pc, #20]	; (1914 <prvTaskExitError+0x18>)
    1900:	681b      	ldr	r3, [r3, #0]
    1902:	3301      	adds	r3, #1
    1904:	d002      	beq.n	190c <prvTaskExitError+0x10>
    1906:	f7ff fff3 	bl	18f0 <ulPortSetInterruptMask>
    190a:	e7fe      	b.n	190a <prvTaskExitError+0xe>
    190c:	f7ff fff0 	bl	18f0 <ulPortSetInterruptMask>
    1910:	e7fe      	b.n	1910 <prvTaskExitError+0x14>
    1912:	46c0      	nop			; (mov r8, r8)
    1914:	1fffe0c8 	svcne	0x00ffe0c8

00001918 <vPortEnterCritical>:
    1918:	b510      	push	{r4, lr}
    191a:	f7ff ffe9 	bl	18f0 <ulPortSetInterruptMask>
    191e:	4a04      	ldr	r2, [pc, #16]	; (1930 <vPortEnterCritical+0x18>)
    1920:	6813      	ldr	r3, [r2, #0]
    1922:	3301      	adds	r3, #1
    1924:	6013      	str	r3, [r2, #0]
    1926:	f3bf 8f4f 	dsb	sy
    192a:	f3bf 8f6f 	isb	sy
    192e:	bd10      	pop	{r4, pc}
    1930:	1fffe0c8 	svcne	0x00ffe0c8

00001934 <vPortClearInterruptMask>:
    1934:	f380 8810 	msr	PRIMASK, r0
    1938:	4770      	bx	lr
	...

0000193c <vPortExitCritical>:
    193c:	b510      	push	{r4, lr}
    193e:	4b04      	ldr	r3, [pc, #16]	; (1950 <vPortExitCritical+0x14>)
    1940:	681a      	ldr	r2, [r3, #0]
    1942:	1e50      	subs	r0, r2, #1
    1944:	6018      	str	r0, [r3, #0]
    1946:	2800      	cmp	r0, #0
    1948:	d101      	bne.n	194e <vPortExitCritical+0x12>
    194a:	f7ff fff3 	bl	1934 <vPortClearInterruptMask>
    194e:	bd10      	pop	{r4, pc}
    1950:	1fffe0c8 	svcne	0x00ffe0c8

00001954 <SysTick_Handler>:
    1954:	b510      	push	{r4, lr}
    1956:	f7ff ffcb 	bl	18f0 <ulPortSetInterruptMask>
    195a:	f7ff fadf 	bl	f1c <xTaskIncrementTick>
    195e:	2800      	cmp	r0, #0
    1960:	d001      	beq.n	1966 <SysTick_Handler+0x12>
    1962:	f7ff ff57 	bl	1814 <vPortYieldFromISR>
    1966:	2000      	movs	r0, #0
    1968:	f7ff ffe4 	bl	1934 <vPortClearInterruptMask>
    196c:	bd10      	pop	{r4, pc}
	...

00001970 <NMI_Handler>:
    1970:	e7fe      	b.n	1970 <NMI_Handler>

00001972 <HardFault_Handler>:
    1972:	e7fe      	b.n	1972 <HardFault_Handler>
    1974:	e7fe      	b.n	1974 <HardFault_Handler+0x2>
    1976:	e7fe      	b.n	1976 <HardFault_Handler+0x4>
    1978:	e7fe      	b.n	1978 <HardFault_Handler+0x6>

0000197a <DEF_IRQHandler>:
    197a:	e7fe      	b.n	197a <DEF_IRQHandler>

0000197c <DMA0_IRQHandler>:
    197c:	e7fe      	b.n	197c <DMA0_IRQHandler>

0000197e <DMA1_IRQHandler>:
    197e:	e7fe      	b.n	197e <DMA1_IRQHandler>

00001980 <DMA2_IRQHandler>:
    1980:	e7fe      	b.n	1980 <DMA2_IRQHandler>

00001982 <DMA3_IRQHandler>:
    1982:	e7fe      	b.n	1982 <DMA3_IRQHandler>

00001984 <FTFA_IRQHandler>:
    1984:	e7fe      	b.n	1984 <FTFA_IRQHandler>

00001986 <LVD_LVW_IRQHandler>:
    1986:	e7fe      	b.n	1986 <LVD_LVW_IRQHandler>

00001988 <LLW_IRQHandler>:
    1988:	e7fe      	b.n	1988 <LLW_IRQHandler>

0000198a <I2C0_IRQHandler>:
    198a:	e7fe      	b.n	198a <I2C0_IRQHandler>

0000198c <I2C1_IRQHandler>:
    198c:	e7fe      	b.n	198c <I2C1_IRQHandler>

0000198e <SPI0_IRQHandler>:
    198e:	e7fe      	b.n	198e <SPI0_IRQHandler>

00001990 <SPI1_IRQHandler>:
    1990:	e7fe      	b.n	1990 <SPI1_IRQHandler>

00001992 <UART0_IRQHandler>:
    1992:	e7fe      	b.n	1992 <UART0_IRQHandler>

00001994 <UART1_IRQHandler>:
    1994:	e7fe      	b.n	1994 <UART1_IRQHandler>

00001996 <UART2_IRQHandler>:
    1996:	e7fe      	b.n	1996 <UART2_IRQHandler>

00001998 <ADC0_IRQHandler>:
    1998:	e7fe      	b.n	1998 <ADC0_IRQHandler>

0000199a <CMP0_IRQHandler>:
    199a:	e7fe      	b.n	199a <CMP0_IRQHandler>

0000199c <TPM0_IRQHandler>:
    199c:	e7fe      	b.n	199c <TPM0_IRQHandler>

0000199e <TPM1_IRQHandler>:
    199e:	e7fe      	b.n	199e <TPM1_IRQHandler>

000019a0 <TPM2_IRQHandler>:
    19a0:	e7fe      	b.n	19a0 <TPM2_IRQHandler>

000019a2 <RTC_IRQHandler>:
    19a2:	e7fe      	b.n	19a2 <RTC_IRQHandler>

000019a4 <RTC_Seconds_IRQHandler>:
    19a4:	e7fe      	b.n	19a4 <RTC_Seconds_IRQHandler>

000019a6 <PIT_IRQHandler>:
    19a6:	e7fe      	b.n	19a6 <PIT_IRQHandler>

000019a8 <I2S_IRQHandler>:
    19a8:	e7fe      	b.n	19a8 <I2S_IRQHandler>

000019aa <USB0_IRQHandler>:
    19aa:	e7fe      	b.n	19aa <USB0_IRQHandler>

000019ac <DAC0_IRQHandler>:
    19ac:	e7fe      	b.n	19ac <DAC0_IRQHandler>

000019ae <TSI0_IRQHandler>:
    19ae:	e7fe      	b.n	19ae <TSI0_IRQHandler>

000019b0 <MCG_IRQHandler>:
    19b0:	e7fe      	b.n	19b0 <MCG_IRQHandler>

000019b2 <LPTimer_IRQHandler>:
    19b2:	e7fe      	b.n	19b2 <LPTimer_IRQHandler>

000019b4 <LCD_IRQHandler>:
    19b4:	e7fe      	b.n	19b4 <LCD_IRQHandler>

000019b6 <PORTA_IRQHandler>:
    19b6:	e7fe      	b.n	19b6 <PORTA_IRQHandler>

000019b8 <PORTD_IRQHandler>:
    19b8:	e7fe      	b.n	19b8 <PORTD_IRQHandler>
    19ba:	46c0      	nop			; (mov r8, r8)

000019bc <__aeabi_uidiv>:
    19bc:	2200      	movs	r2, #0
    19be:	0843      	lsrs	r3, r0, #1
    19c0:	428b      	cmp	r3, r1
    19c2:	d374      	bcc.n	1aae <__aeabi_uidiv+0xf2>
    19c4:	0903      	lsrs	r3, r0, #4
    19c6:	428b      	cmp	r3, r1
    19c8:	d35f      	bcc.n	1a8a <__aeabi_uidiv+0xce>
    19ca:	0a03      	lsrs	r3, r0, #8
    19cc:	428b      	cmp	r3, r1
    19ce:	d344      	bcc.n	1a5a <__aeabi_uidiv+0x9e>
    19d0:	0b03      	lsrs	r3, r0, #12
    19d2:	428b      	cmp	r3, r1
    19d4:	d328      	bcc.n	1a28 <__aeabi_uidiv+0x6c>
    19d6:	0c03      	lsrs	r3, r0, #16
    19d8:	428b      	cmp	r3, r1
    19da:	d30d      	bcc.n	19f8 <__aeabi_uidiv+0x3c>
    19dc:	22ff      	movs	r2, #255	; 0xff
    19de:	0209      	lsls	r1, r1, #8
    19e0:	ba12      	rev	r2, r2
    19e2:	0c03      	lsrs	r3, r0, #16
    19e4:	428b      	cmp	r3, r1
    19e6:	d302      	bcc.n	19ee <__aeabi_uidiv+0x32>
    19e8:	1212      	asrs	r2, r2, #8
    19ea:	0209      	lsls	r1, r1, #8
    19ec:	d065      	beq.n	1aba <__aeabi_uidiv+0xfe>
    19ee:	0b03      	lsrs	r3, r0, #12
    19f0:	428b      	cmp	r3, r1
    19f2:	d319      	bcc.n	1a28 <__aeabi_uidiv+0x6c>
    19f4:	e000      	b.n	19f8 <__aeabi_uidiv+0x3c>
    19f6:	0a09      	lsrs	r1, r1, #8
    19f8:	0bc3      	lsrs	r3, r0, #15
    19fa:	428b      	cmp	r3, r1
    19fc:	d301      	bcc.n	1a02 <__aeabi_uidiv+0x46>
    19fe:	03cb      	lsls	r3, r1, #15
    1a00:	1ac0      	subs	r0, r0, r3
    1a02:	4152      	adcs	r2, r2
    1a04:	0b83      	lsrs	r3, r0, #14
    1a06:	428b      	cmp	r3, r1
    1a08:	d301      	bcc.n	1a0e <__aeabi_uidiv+0x52>
    1a0a:	038b      	lsls	r3, r1, #14
    1a0c:	1ac0      	subs	r0, r0, r3
    1a0e:	4152      	adcs	r2, r2
    1a10:	0b43      	lsrs	r3, r0, #13
    1a12:	428b      	cmp	r3, r1
    1a14:	d301      	bcc.n	1a1a <__aeabi_uidiv+0x5e>
    1a16:	034b      	lsls	r3, r1, #13
    1a18:	1ac0      	subs	r0, r0, r3
    1a1a:	4152      	adcs	r2, r2
    1a1c:	0b03      	lsrs	r3, r0, #12
    1a1e:	428b      	cmp	r3, r1
    1a20:	d301      	bcc.n	1a26 <__aeabi_uidiv+0x6a>
    1a22:	030b      	lsls	r3, r1, #12
    1a24:	1ac0      	subs	r0, r0, r3
    1a26:	4152      	adcs	r2, r2
    1a28:	0ac3      	lsrs	r3, r0, #11
    1a2a:	428b      	cmp	r3, r1
    1a2c:	d301      	bcc.n	1a32 <__aeabi_uidiv+0x76>
    1a2e:	02cb      	lsls	r3, r1, #11
    1a30:	1ac0      	subs	r0, r0, r3
    1a32:	4152      	adcs	r2, r2
    1a34:	0a83      	lsrs	r3, r0, #10
    1a36:	428b      	cmp	r3, r1
    1a38:	d301      	bcc.n	1a3e <__aeabi_uidiv+0x82>
    1a3a:	028b      	lsls	r3, r1, #10
    1a3c:	1ac0      	subs	r0, r0, r3
    1a3e:	4152      	adcs	r2, r2
    1a40:	0a43      	lsrs	r3, r0, #9
    1a42:	428b      	cmp	r3, r1
    1a44:	d301      	bcc.n	1a4a <__aeabi_uidiv+0x8e>
    1a46:	024b      	lsls	r3, r1, #9
    1a48:	1ac0      	subs	r0, r0, r3
    1a4a:	4152      	adcs	r2, r2
    1a4c:	0a03      	lsrs	r3, r0, #8
    1a4e:	428b      	cmp	r3, r1
    1a50:	d301      	bcc.n	1a56 <__aeabi_uidiv+0x9a>
    1a52:	020b      	lsls	r3, r1, #8
    1a54:	1ac0      	subs	r0, r0, r3
    1a56:	4152      	adcs	r2, r2
    1a58:	d2cd      	bcs.n	19f6 <__aeabi_uidiv+0x3a>
    1a5a:	09c3      	lsrs	r3, r0, #7
    1a5c:	428b      	cmp	r3, r1
    1a5e:	d301      	bcc.n	1a64 <__aeabi_uidiv+0xa8>
    1a60:	01cb      	lsls	r3, r1, #7
    1a62:	1ac0      	subs	r0, r0, r3
    1a64:	4152      	adcs	r2, r2
    1a66:	0983      	lsrs	r3, r0, #6
    1a68:	428b      	cmp	r3, r1
    1a6a:	d301      	bcc.n	1a70 <__aeabi_uidiv+0xb4>
    1a6c:	018b      	lsls	r3, r1, #6
    1a6e:	1ac0      	subs	r0, r0, r3
    1a70:	4152      	adcs	r2, r2
    1a72:	0943      	lsrs	r3, r0, #5
    1a74:	428b      	cmp	r3, r1
    1a76:	d301      	bcc.n	1a7c <__aeabi_uidiv+0xc0>
    1a78:	014b      	lsls	r3, r1, #5
    1a7a:	1ac0      	subs	r0, r0, r3
    1a7c:	4152      	adcs	r2, r2
    1a7e:	0903      	lsrs	r3, r0, #4
    1a80:	428b      	cmp	r3, r1
    1a82:	d301      	bcc.n	1a88 <__aeabi_uidiv+0xcc>
    1a84:	010b      	lsls	r3, r1, #4
    1a86:	1ac0      	subs	r0, r0, r3
    1a88:	4152      	adcs	r2, r2
    1a8a:	08c3      	lsrs	r3, r0, #3
    1a8c:	428b      	cmp	r3, r1
    1a8e:	d301      	bcc.n	1a94 <__aeabi_uidiv+0xd8>
    1a90:	00cb      	lsls	r3, r1, #3
    1a92:	1ac0      	subs	r0, r0, r3
    1a94:	4152      	adcs	r2, r2
    1a96:	0883      	lsrs	r3, r0, #2
    1a98:	428b      	cmp	r3, r1
    1a9a:	d301      	bcc.n	1aa0 <__aeabi_uidiv+0xe4>
    1a9c:	008b      	lsls	r3, r1, #2
    1a9e:	1ac0      	subs	r0, r0, r3
    1aa0:	4152      	adcs	r2, r2
    1aa2:	0843      	lsrs	r3, r0, #1
    1aa4:	428b      	cmp	r3, r1
    1aa6:	d301      	bcc.n	1aac <__aeabi_uidiv+0xf0>
    1aa8:	004b      	lsls	r3, r1, #1
    1aaa:	1ac0      	subs	r0, r0, r3
    1aac:	4152      	adcs	r2, r2
    1aae:	1a41      	subs	r1, r0, r1
    1ab0:	d200      	bcs.n	1ab4 <__aeabi_uidiv+0xf8>
    1ab2:	4601      	mov	r1, r0
    1ab4:	4152      	adcs	r2, r2
    1ab6:	4610      	mov	r0, r2
    1ab8:	4770      	bx	lr
    1aba:	e7ff      	b.n	1abc <__aeabi_uidiv+0x100>
    1abc:	b501      	push	{r0, lr}
    1abe:	2000      	movs	r0, #0
    1ac0:	f000 f806 	bl	1ad0 <__aeabi_idiv0>
    1ac4:	bd02      	pop	{r1, pc}
    1ac6:	46c0      	nop			; (mov r8, r8)

00001ac8 <__aeabi_uidivmod>:
    1ac8:	2900      	cmp	r1, #0
    1aca:	d0f7      	beq.n	1abc <__aeabi_uidiv+0x100>
    1acc:	e776      	b.n	19bc <__aeabi_uidiv>
    1ace:	4770      	bx	lr

00001ad0 <__aeabi_idiv0>:
    1ad0:	4770      	bx	lr
    1ad2:	46c0      	nop			; (mov r8, r8)

00001ad4 <exit>:
    1ad4:	4b08      	ldr	r3, [pc, #32]	; (1af8 <exit+0x24>)
    1ad6:	b510      	push	{r4, lr}
    1ad8:	0004      	movs	r4, r0
    1ada:	2b00      	cmp	r3, #0
    1adc:	d002      	beq.n	1ae4 <exit+0x10>
    1ade:	2100      	movs	r1, #0
    1ae0:	e000      	b.n	1ae4 <exit+0x10>
    1ae2:	bf00      	nop
    1ae4:	4b05      	ldr	r3, [pc, #20]	; (1afc <exit+0x28>)
    1ae6:	6818      	ldr	r0, [r3, #0]
    1ae8:	6a83      	ldr	r3, [r0, #40]	; 0x28
    1aea:	2b00      	cmp	r3, #0
    1aec:	d000      	beq.n	1af0 <exit+0x1c>
    1aee:	4798      	blx	r3
    1af0:	0020      	movs	r0, r4
    1af2:	f000 f939 	bl	1d68 <_exit>
    1af6:	46c0      	nop			; (mov r8, r8)
    1af8:	00000000 	andeq	r0, r0, r0
    1afc:	00001d98 	muleq	r0, r8, sp

00001b00 <__libc_init_array>:
    1b00:	4b0e      	ldr	r3, [pc, #56]	; (1b3c <__libc_init_array+0x3c>)
    1b02:	b570      	push	{r4, r5, r6, lr}
    1b04:	2500      	movs	r5, #0
    1b06:	001e      	movs	r6, r3
    1b08:	4c0d      	ldr	r4, [pc, #52]	; (1b40 <__libc_init_array+0x40>)
    1b0a:	1ae4      	subs	r4, r4, r3
    1b0c:	10a4      	asrs	r4, r4, #2
    1b0e:	42a5      	cmp	r5, r4
    1b10:	d004      	beq.n	1b1c <__libc_init_array+0x1c>
    1b12:	00ab      	lsls	r3, r5, #2
    1b14:	58f3      	ldr	r3, [r6, r3]
    1b16:	4798      	blx	r3
    1b18:	3501      	adds	r5, #1
    1b1a:	e7f8      	b.n	1b0e <__libc_init_array+0xe>
    1b1c:	f000 f926 	bl	1d6c <_init>
    1b20:	4b08      	ldr	r3, [pc, #32]	; (1b44 <__libc_init_array+0x44>)
    1b22:	2500      	movs	r5, #0
    1b24:	001e      	movs	r6, r3
    1b26:	4c08      	ldr	r4, [pc, #32]	; (1b48 <__libc_init_array+0x48>)
    1b28:	1ae4      	subs	r4, r4, r3
    1b2a:	10a4      	asrs	r4, r4, #2
    1b2c:	42a5      	cmp	r5, r4
    1b2e:	d004      	beq.n	1b3a <__libc_init_array+0x3a>
    1b30:	00ab      	lsls	r3, r5, #2
    1b32:	58f3      	ldr	r3, [r6, r3]
    1b34:	4798      	blx	r3
    1b36:	3501      	adds	r5, #1
    1b38:	e7f8      	b.n	1b2c <__libc_init_array+0x2c>
    1b3a:	bd70      	pop	{r4, r5, r6, pc}
    1b3c:	1fffe130 	svcne	0x00ffe130
    1b40:	1fffe130 	svcne	0x00ffe130
    1b44:	1fffe130 	svcne	0x00ffe130
    1b48:	1fffe134 	svcne	0x00ffe134

00001b4c <malloc>:
    1b4c:	b510      	push	{r4, lr}
    1b4e:	4b03      	ldr	r3, [pc, #12]	; (1b5c <malloc+0x10>)
    1b50:	0001      	movs	r1, r0
    1b52:	6818      	ldr	r0, [r3, #0]
    1b54:	f000 f86c 	bl	1c30 <_malloc_r>
    1b58:	bd10      	pop	{r4, pc}
    1b5a:	46c0      	nop			; (mov r8, r8)
    1b5c:	1fffe12c 	svcne	0x00ffe12c

00001b60 <free>:
    1b60:	b510      	push	{r4, lr}
    1b62:	4b03      	ldr	r3, [pc, #12]	; (1b70 <free+0x10>)
    1b64:	0001      	movs	r1, r0
    1b66:	6818      	ldr	r0, [r3, #0]
    1b68:	f000 f816 	bl	1b98 <_free_r>
    1b6c:	bd10      	pop	{r4, pc}
    1b6e:	46c0      	nop			; (mov r8, r8)
    1b70:	1fffe12c 	svcne	0x00ffe12c

00001b74 <memcpy>:
    1b74:	2300      	movs	r3, #0
    1b76:	b510      	push	{r4, lr}
    1b78:	429a      	cmp	r2, r3
    1b7a:	d003      	beq.n	1b84 <memcpy+0x10>
    1b7c:	5ccc      	ldrb	r4, [r1, r3]
    1b7e:	54c4      	strb	r4, [r0, r3]
    1b80:	3301      	adds	r3, #1
    1b82:	e7f9      	b.n	1b78 <memcpy+0x4>
    1b84:	bd10      	pop	{r4, pc}

00001b86 <memset>:
    1b86:	0003      	movs	r3, r0
    1b88:	1882      	adds	r2, r0, r2
    1b8a:	4293      	cmp	r3, r2
    1b8c:	d002      	beq.n	1b94 <memset+0xe>
    1b8e:	7019      	strb	r1, [r3, #0]
    1b90:	3301      	adds	r3, #1
    1b92:	e7fa      	b.n	1b8a <memset+0x4>
    1b94:	4770      	bx	lr
	...

00001b98 <_free_r>:
    1b98:	b570      	push	{r4, r5, r6, lr}
    1b9a:	0005      	movs	r5, r0
    1b9c:	2900      	cmp	r1, #0
    1b9e:	d044      	beq.n	1c2a <_free_r+0x92>
    1ba0:	1f0c      	subs	r4, r1, #4
    1ba2:	6823      	ldr	r3, [r4, #0]
    1ba4:	2b00      	cmp	r3, #0
    1ba6:	da00      	bge.n	1baa <_free_r+0x12>
    1ba8:	18e4      	adds	r4, r4, r3
    1baa:	0028      	movs	r0, r5
    1bac:	f000 f8cc 	bl	1d48 <__malloc_lock>
    1bb0:	4a1e      	ldr	r2, [pc, #120]	; (1c2c <_free_r+0x94>)
    1bb2:	6813      	ldr	r3, [r2, #0]
    1bb4:	0011      	movs	r1, r2
    1bb6:	2b00      	cmp	r3, #0
    1bb8:	d102      	bne.n	1bc0 <_free_r+0x28>
    1bba:	6063      	str	r3, [r4, #4]
    1bbc:	6014      	str	r4, [r2, #0]
    1bbe:	e031      	b.n	1c24 <_free_r+0x8c>
    1bc0:	42a3      	cmp	r3, r4
    1bc2:	d90d      	bls.n	1be0 <_free_r+0x48>
    1bc4:	6822      	ldr	r2, [r4, #0]
    1bc6:	18a0      	adds	r0, r4, r2
    1bc8:	4283      	cmp	r3, r0
    1bca:	d103      	bne.n	1bd4 <_free_r+0x3c>
    1bcc:	6818      	ldr	r0, [r3, #0]
    1bce:	685b      	ldr	r3, [r3, #4]
    1bd0:	1882      	adds	r2, r0, r2
    1bd2:	6022      	str	r2, [r4, #0]
    1bd4:	6063      	str	r3, [r4, #4]
    1bd6:	600c      	str	r4, [r1, #0]
    1bd8:	e024      	b.n	1c24 <_free_r+0x8c>
    1bda:	42a2      	cmp	r2, r4
    1bdc:	d803      	bhi.n	1be6 <_free_r+0x4e>
    1bde:	0013      	movs	r3, r2
    1be0:	685a      	ldr	r2, [r3, #4]
    1be2:	2a00      	cmp	r2, #0
    1be4:	d1f9      	bne.n	1bda <_free_r+0x42>
    1be6:	681e      	ldr	r6, [r3, #0]
    1be8:	1998      	adds	r0, r3, r6
    1bea:	42a0      	cmp	r0, r4
    1bec:	d10b      	bne.n	1c06 <_free_r+0x6e>
    1bee:	6821      	ldr	r1, [r4, #0]
    1bf0:	1871      	adds	r1, r6, r1
    1bf2:	1858      	adds	r0, r3, r1
    1bf4:	6019      	str	r1, [r3, #0]
    1bf6:	4282      	cmp	r2, r0
    1bf8:	d114      	bne.n	1c24 <_free_r+0x8c>
    1bfa:	6810      	ldr	r0, [r2, #0]
    1bfc:	6852      	ldr	r2, [r2, #4]
    1bfe:	1841      	adds	r1, r0, r1
    1c00:	6019      	str	r1, [r3, #0]
    1c02:	605a      	str	r2, [r3, #4]
    1c04:	e00e      	b.n	1c24 <_free_r+0x8c>
    1c06:	42a0      	cmp	r0, r4
    1c08:	d902      	bls.n	1c10 <_free_r+0x78>
    1c0a:	230c      	movs	r3, #12
    1c0c:	602b      	str	r3, [r5, #0]
    1c0e:	e009      	b.n	1c24 <_free_r+0x8c>
    1c10:	6821      	ldr	r1, [r4, #0]
    1c12:	1860      	adds	r0, r4, r1
    1c14:	4282      	cmp	r2, r0
    1c16:	d103      	bne.n	1c20 <_free_r+0x88>
    1c18:	6810      	ldr	r0, [r2, #0]
    1c1a:	6852      	ldr	r2, [r2, #4]
    1c1c:	1841      	adds	r1, r0, r1
    1c1e:	6021      	str	r1, [r4, #0]
    1c20:	6062      	str	r2, [r4, #4]
    1c22:	605c      	str	r4, [r3, #4]
    1c24:	0028      	movs	r0, r5
    1c26:	f000 f890 	bl	1d4a <__malloc_unlock>
    1c2a:	bd70      	pop	{r4, r5, r6, pc}
    1c2c:	1fffe3f0 	svcne	0x00ffe3f0

00001c30 <_malloc_r>:
    1c30:	2303      	movs	r3, #3
    1c32:	b570      	push	{r4, r5, r6, lr}
    1c34:	1ccd      	adds	r5, r1, #3
    1c36:	439d      	bics	r5, r3
    1c38:	3508      	adds	r5, #8
    1c3a:	0006      	movs	r6, r0
    1c3c:	2d0c      	cmp	r5, #12
    1c3e:	d201      	bcs.n	1c44 <_malloc_r+0x14>
    1c40:	250c      	movs	r5, #12
    1c42:	e001      	b.n	1c48 <_malloc_r+0x18>
    1c44:	2d00      	cmp	r5, #0
    1c46:	db01      	blt.n	1c4c <_malloc_r+0x1c>
    1c48:	42a9      	cmp	r1, r5
    1c4a:	d902      	bls.n	1c52 <_malloc_r+0x22>
    1c4c:	230c      	movs	r3, #12
    1c4e:	6033      	str	r3, [r6, #0]
    1c50:	e048      	b.n	1ce4 <_malloc_r+0xb4>
    1c52:	0030      	movs	r0, r6
    1c54:	f000 f878 	bl	1d48 <__malloc_lock>
    1c58:	4b23      	ldr	r3, [pc, #140]	; (1ce8 <_malloc_r+0xb8>)
    1c5a:	681c      	ldr	r4, [r3, #0]
    1c5c:	001a      	movs	r2, r3
    1c5e:	0021      	movs	r1, r4
    1c60:	2900      	cmp	r1, #0
    1c62:	d013      	beq.n	1c8c <_malloc_r+0x5c>
    1c64:	680b      	ldr	r3, [r1, #0]
    1c66:	1b5b      	subs	r3, r3, r5
    1c68:	d40d      	bmi.n	1c86 <_malloc_r+0x56>
    1c6a:	2b0b      	cmp	r3, #11
    1c6c:	d902      	bls.n	1c74 <_malloc_r+0x44>
    1c6e:	600b      	str	r3, [r1, #0]
    1c70:	18cc      	adds	r4, r1, r3
    1c72:	e01e      	b.n	1cb2 <_malloc_r+0x82>
    1c74:	428c      	cmp	r4, r1
    1c76:	d102      	bne.n	1c7e <_malloc_r+0x4e>
    1c78:	6863      	ldr	r3, [r4, #4]
    1c7a:	6013      	str	r3, [r2, #0]
    1c7c:	e01a      	b.n	1cb4 <_malloc_r+0x84>
    1c7e:	684b      	ldr	r3, [r1, #4]
    1c80:	6063      	str	r3, [r4, #4]
    1c82:	000c      	movs	r4, r1
    1c84:	e016      	b.n	1cb4 <_malloc_r+0x84>
    1c86:	000c      	movs	r4, r1
    1c88:	6849      	ldr	r1, [r1, #4]
    1c8a:	e7e9      	b.n	1c60 <_malloc_r+0x30>
    1c8c:	4c17      	ldr	r4, [pc, #92]	; (1cec <_malloc_r+0xbc>)
    1c8e:	6823      	ldr	r3, [r4, #0]
    1c90:	2b00      	cmp	r3, #0
    1c92:	d103      	bne.n	1c9c <_malloc_r+0x6c>
    1c94:	0030      	movs	r0, r6
    1c96:	f000 f82b 	bl	1cf0 <_sbrk_r>
    1c9a:	6020      	str	r0, [r4, #0]
    1c9c:	0029      	movs	r1, r5
    1c9e:	0030      	movs	r0, r6
    1ca0:	f000 f826 	bl	1cf0 <_sbrk_r>
    1ca4:	1c43      	adds	r3, r0, #1
    1ca6:	d018      	beq.n	1cda <_malloc_r+0xaa>
    1ca8:	2303      	movs	r3, #3
    1caa:	1cc4      	adds	r4, r0, #3
    1cac:	439c      	bics	r4, r3
    1cae:	42a0      	cmp	r0, r4
    1cb0:	d10d      	bne.n	1cce <_malloc_r+0x9e>
    1cb2:	6025      	str	r5, [r4, #0]
    1cb4:	0030      	movs	r0, r6
    1cb6:	f000 f848 	bl	1d4a <__malloc_unlock>
    1cba:	0020      	movs	r0, r4
    1cbc:	2207      	movs	r2, #7
    1cbe:	300b      	adds	r0, #11
    1cc0:	1d23      	adds	r3, r4, #4
    1cc2:	4390      	bics	r0, r2
    1cc4:	1ac3      	subs	r3, r0, r3
    1cc6:	d00e      	beq.n	1ce6 <_malloc_r+0xb6>
    1cc8:	425a      	negs	r2, r3
    1cca:	50e2      	str	r2, [r4, r3]
    1ccc:	e00b      	b.n	1ce6 <_malloc_r+0xb6>
    1cce:	1a21      	subs	r1, r4, r0
    1cd0:	0030      	movs	r0, r6
    1cd2:	f000 f80d 	bl	1cf0 <_sbrk_r>
    1cd6:	1c43      	adds	r3, r0, #1
    1cd8:	d1eb      	bne.n	1cb2 <_malloc_r+0x82>
    1cda:	230c      	movs	r3, #12
    1cdc:	0030      	movs	r0, r6
    1cde:	6033      	str	r3, [r6, #0]
    1ce0:	f000 f833 	bl	1d4a <__malloc_unlock>
    1ce4:	2000      	movs	r0, #0
    1ce6:	bd70      	pop	{r4, r5, r6, pc}
    1ce8:	1fffe3f0 	svcne	0x00ffe3f0
    1cec:	1fffe3ec 	svcne	0x00ffe3ec

00001cf0 <_sbrk_r>:
    1cf0:	2300      	movs	r3, #0
    1cf2:	b570      	push	{r4, r5, r6, lr}
    1cf4:	4c06      	ldr	r4, [pc, #24]	; (1d10 <_sbrk_r+0x20>)
    1cf6:	0005      	movs	r5, r0
    1cf8:	0008      	movs	r0, r1
    1cfa:	6023      	str	r3, [r4, #0]
    1cfc:	f000 f826 	bl	1d4c <_sbrk>
    1d00:	1c43      	adds	r3, r0, #1
    1d02:	d103      	bne.n	1d0c <_sbrk_r+0x1c>
    1d04:	6823      	ldr	r3, [r4, #0]
    1d06:	2b00      	cmp	r3, #0
    1d08:	d000      	beq.n	1d0c <_sbrk_r+0x1c>
    1d0a:	602b      	str	r3, [r5, #0]
    1d0c:	bd70      	pop	{r4, r5, r6, pc}
    1d0e:	46c0      	nop			; (mov r8, r8)
    1d10:	1fffe3f8 	svcne	0x00ffe3f8

00001d14 <setjmp>:
    1d14:	c0f0      	stmia	r0!, {r4, r5, r6, r7}
    1d16:	4641      	mov	r1, r8
    1d18:	464a      	mov	r2, r9
    1d1a:	4653      	mov	r3, sl
    1d1c:	465c      	mov	r4, fp
    1d1e:	466d      	mov	r5, sp
    1d20:	4676      	mov	r6, lr
    1d22:	c07e      	stmia	r0!, {r1, r2, r3, r4, r5, r6}
    1d24:	3828      	subs	r0, #40	; 0x28
    1d26:	c8f0      	ldmia	r0!, {r4, r5, r6, r7}
    1d28:	2000      	movs	r0, #0
    1d2a:	4770      	bx	lr

00001d2c <longjmp>:
    1d2c:	3010      	adds	r0, #16
    1d2e:	c87c      	ldmia	r0!, {r2, r3, r4, r5, r6}
    1d30:	4690      	mov	r8, r2
    1d32:	4699      	mov	r9, r3
    1d34:	46a2      	mov	sl, r4
    1d36:	46ab      	mov	fp, r5
    1d38:	46b5      	mov	sp, r6
    1d3a:	c808      	ldmia	r0!, {r3}
    1d3c:	3828      	subs	r0, #40	; 0x28
    1d3e:	c8f0      	ldmia	r0!, {r4, r5, r6, r7}
    1d40:	1c08      	adds	r0, r1, #0
    1d42:	d100      	bne.n	1d46 <longjmp+0x1a>
    1d44:	2001      	movs	r0, #1
    1d46:	4718      	bx	r3

00001d48 <__malloc_lock>:
    1d48:	4770      	bx	lr

00001d4a <__malloc_unlock>:
    1d4a:	4770      	bx	lr

00001d4c <_sbrk>:
    1d4c:	4a04      	ldr	r2, [pc, #16]	; (1d60 <_sbrk+0x14>)
    1d4e:	6813      	ldr	r3, [r2, #0]
    1d50:	2b00      	cmp	r3, #0
    1d52:	d003      	beq.n	1d5c <_sbrk+0x10>
    1d54:	1818      	adds	r0, r3, r0
    1d56:	6010      	str	r0, [r2, #0]
    1d58:	0018      	movs	r0, r3
    1d5a:	4770      	bx	lr
    1d5c:	4b01      	ldr	r3, [pc, #4]	; (1d64 <_sbrk+0x18>)
    1d5e:	e7f9      	b.n	1d54 <_sbrk+0x8>
    1d60:	1fffe3f4 	svcne	0x00ffe3f4
    1d64:	1fffe400 	svcne	0x00ffe400

00001d68 <_exit>:
    1d68:	e7fe      	b.n	1d68 <_exit>
    1d6a:	46c0      	nop			; (mov r8, r8)

00001d6c <_init>:
    1d6c:	b5f8      	push	{r3, r4, r5, r6, r7, lr}
    1d6e:	46c0      	nop			; (mov r8, r8)
    1d70:	bcf8      	pop	{r3, r4, r5, r6, r7}
    1d72:	bc08      	pop	{r3}
    1d74:	469e      	mov	lr, r3
    1d76:	4770      	bx	lr

00001d78 <_fini>:
    1d78:	b5f8      	push	{r3, r4, r5, r6, r7, lr}
    1d7a:	46c0      	nop			; (mov r8, r8)
    1d7c:	bcf8      	pop	{r3, r4, r5, r6, r7}
    1d7e:	bc08      	pop	{r3}
    1d80:	469e      	mov	lr, r3
    1d82:	4770      	bx	lr
    1d84:	54005852 	strpl	r5, [r0], #-2130	; 0xfffff7ae
    1d88:	44490058 	strbmi	r0, [r9], #-88	; 0xffffffa8
    1d8c:	5400454c 	strpl	r4, [r0], #-1356	; 0xfffffab4
    1d90:	5320726d 			; <UNDEFINED> instruction: 0x5320726d
    1d94:	00006376 	andeq	r6, r0, r6, ror r3

00001d98 <_global_impure_ptr>:
    1d98:	1fffe0cc 	svcne	0x00ffe0cc

00001d9c <__EH_FRAME_BEGIN__>:
    1d9c:	00000000 	andeq	r0, r0, r0

Disassembly of section .ARM.exidx:

00001da0 <__exidx_end-0x8>:
    1da0:	7fffe6d0 	svcvc	0x00ffe6d0
    1da4:	00000001 	andeq	r0, r0, r1

Disassembly of section .data:

1fffe0c0 <SystemCoreClock>:
1fffe0c0:	02dc6c00 	sbcseq	r6, ip, #0, 24

1fffe0c4 <xNextTaskUnblockTime>:
1fffe0c4:	ffffffff 			; <UNDEFINED> instruction: 0xffffffff

1fffe0c8 <uxCriticalNesting>:
1fffe0c8:	aaaaaaaa 	bge	1eaa8b78 <__etext+0x1eaa6dd0>

1fffe0cc <impure_data>:
	...

1fffe12c <_impure_ptr>:
1fffe12c:	1fffe0cc 	svcne	0x00ffe0cc

1fffe130 <__frame_dummy_init_array_entry>:
1fffe130:	00000439 	andeq	r0, r0, r9, lsr r4

1fffe134 <__do_global_dtors_aux_fini_array_entry>:
1fffe134:	00000411 	andeq	r0, r0, r1, lsl r4

Disassembly of section .bss:

1fffe138 <__bss_start__>:
1fffe138:	00000000 	andeq	r0, r0, r0

1fffe13c <object.8608>:
	...

1fffe154 <xQueue>:
1fffe154:	00000000 	andeq	r0, r0, r0

1fffe158 <xNumOfOverflows>:
1fffe158:	00000000 	andeq	r0, r0, r0

1fffe15c <pxDelayedTaskList>:
1fffe15c:	00000000 	andeq	r0, r0, r0

1fffe160 <xSchedulerRunning>:
1fffe160:	00000000 	andeq	r0, r0, r0

1fffe164 <uxTasksDeleted>:
1fffe164:	00000000 	andeq	r0, r0, r0

1fffe168 <xDelayedTaskList1>:
	...

1fffe17c <xDelayedTaskList2>:
	...

1fffe190 <uxPendedTicks>:
1fffe190:	00000000 	andeq	r0, r0, r0

1fffe194 <pxReadyTasksLists>:
	...

1fffe2fc <xTasksWaitingTermination>:
	...

1fffe310 <pxCurrentTCB>:
1fffe310:	00000000 	andeq	r0, r0, r0

1fffe314 <xPendingReadyList>:
	...

1fffe328 <uxSchedulerSuspended>:
1fffe328:	00000000 	andeq	r0, r0, r0

1fffe32c <xTickCount>:
1fffe32c:	00000000 	andeq	r0, r0, r0

1fffe330 <pxOverflowDelayedTaskList>:
1fffe330:	00000000 	andeq	r0, r0, r0

1fffe334 <uxTaskNumber>:
1fffe334:	00000000 	andeq	r0, r0, r0

1fffe338 <uxCurrentNumberOfTasks>:
1fffe338:	00000000 	andeq	r0, r0, r0

1fffe33c <xSuspendedTaskList>:
	...

1fffe350 <uxTopReadyPriority>:
1fffe350:	00000000 	andeq	r0, r0, r0

1fffe354 <xYieldPending>:
1fffe354:	00000000 	andeq	r0, r0, r0

1fffe358 <pxCurrentTimerList>:
1fffe358:	00000000 	andeq	r0, r0, r0

1fffe35c <xActiveTimerList1>:
	...

1fffe370 <xActiveTimerList2>:
	...

1fffe384 <xLastTime.4839>:
1fffe384:	00000000 	andeq	r0, r0, r0

1fffe388 <xTimerQueue>:
1fffe388:	00000000 	andeq	r0, r0, r0

1fffe38c <pxOverflowTimerList>:
1fffe38c:	00000000 	andeq	r0, r0, r0

1fffe390 <xJumpBuf>:
	...

1fffe3ec <__malloc_sbrk_start>:
1fffe3ec:	00000000 	andeq	r0, r0, r0

1fffe3f0 <__malloc_free_list>:
1fffe3f0:	00000000 	andeq	r0, r0, r0

1fffe3f4 <heap_end.4167>:
1fffe3f4:	00000000 	andeq	r0, r0, r0

1fffe3f8 <errno>:
1fffe3f8:	00000000 	andeq	r0, r0, r0

Disassembly of section .heap:

1fffe400 <__HeapBase>:
	...

Disassembly of section .stack_dummy:

1fffe400 <.stack_dummy>:
	...

Disassembly of section .ARM.attributes:

00000000 <.ARM.attributes>:
   0:	00002741 	andeq	r2, r0, r1, asr #14
   4:	61656100 	cmnvs	r5, r0, lsl #2
   8:	01006962 	tsteq	r0, r2, ror #18
   c:	0000001d 	andeq	r0, r0, sp, lsl r0
  10:	2d533605 	ldclcs	6, cr3, [r3, #-20]	; 0xffffffec
  14:	0c06004d 	stceq	0, cr0, [r6], {77}	; 0x4d
  18:	01094d07 	tsteq	r9, r7, lsl #26
  1c:	01140412 	tsteq	r4, r2, lsl r4
  20:	03170115 	tsteq	r7, #1073741829	; 0x40000005
  24:	011a0118 	tsteq	sl, r8, lsl r1

Disassembly of section .comment:

00000000 <.comment>:
   0:	3a434347 	bcc	10d0d24 <__exidx_end+0x10cef7c>
   4:	4e472820 	cdpmi	8, 4, cr2, cr7, cr0, {1}
   8:	6f542055 	svcvs	0x00542055
   c:	20736c6f 	rsbscs	r6, r3, pc, ror #24
  10:	20726f66 	rsbscs	r6, r2, r6, ror #30
  14:	204d5241 	subcs	r5, sp, r1, asr #4
  18:	65626d45 	strbvs	r6, [r2, #-3397]!	; 0xfffff2bb
  1c:	64656464 	strbtvs	r6, [r5], #-1124	; 0xfffffb9c
  20:	6f725020 	svcvs	0x00725020
  24:	73736563 	cmnvc	r3, #415236096	; 0x18c00000
  28:	2973726f 	ldmdbcs	r3!, {r0, r1, r2, r3, r5, r6, r9, ip, sp, lr}^
  2c:	342e3520 	strtcc	r3, [lr], #-1312	; 0xfffffae0
  30:	3220312e 	eorcc	r3, r0, #-2147483637	; 0x8000000b
  34:	30363130 	eorscc	r3, r6, r0, lsr r1
  38:	20393139 	eorscs	r3, r9, r9, lsr r1
  3c:	6c657228 	sfmvs	f7, 2, [r5], #-160	; 0xffffff60
  40:	65736165 	ldrbvs	r6, [r3, #-357]!	; 0xfffffe9b
  44:	415b2029 	cmpmi	fp, r9, lsr #32
  48:	652f4d52 	strvs	r4, [pc, #-3410]!	; fffff2fe <__stack+0xdfff92fe>
  4c:	6465626d 	strbtvs	r6, [r5], #-621	; 0xfffffd93
  50:	2d646564 	cfstr64cs	mvdx6, [r4, #-400]!	; 0xfffffe70
  54:	72622d35 	rsbvc	r2, r2, #3392	; 0xd40
  58:	68636e61 	stmdavs	r3!, {r0, r5, r6, r9, sl, fp, sp, lr}^
  5c:	76657220 	strbtvc	r7, [r5], -r0, lsr #4
  60:	6f697369 	svcvs	0x00697369
  64:	3432206e 	ldrtcc	r2, [r2], #-110	; 0xffffff92
  68:	36393430 			; <UNDEFINED> instruction: 0x36393430
  6c:	Address 0x0000006c is out of bounds.


Disassembly of section .debug_info:

00000000 <.debug_info>:
       0:	0000046c 	andeq	r0, r0, ip, ror #8
       4:	00000004 	andeq	r0, r0, r4
       8:	01040000 	mrseq	r0, (UNDEF: 4)
       c:	00000067 	andeq	r0, r0, r7, rrx
      10:	00002e0c 	andeq	r2, r0, ip, lsl #28
      14:	0002de00 	andeq	sp, r2, r0, lsl #28
	...
      24:	06010200 	streq	r0, [r1], -r0, lsl #4
      28:	000001d2 	ldrdeq	r0, [r0], -r2
      2c:	00020003 	andeq	r0, r2, r3
      30:	371d0200 	ldrcc	r0, [sp, -r0, lsl #4]
      34:	02000000 	andeq	r0, r0, #0
      38:	01d00801 	bicseq	r0, r0, r1, lsl #16
      3c:	02020000 	andeq	r0, r2, #0
      40:	00016d05 	andeq	r6, r1, r5, lsl #26
      44:	07020200 	streq	r0, [r2, -r0, lsl #4]
      48:	00000215 	andeq	r0, r0, r5, lsl r2
      4c:	7c050402 	cfstrsvc	mvf0, [r5], {2}
      50:	03000001 	movweq	r0, #1
      54:	00000053 	andeq	r0, r0, r3, asr r0
      58:	005e4102 	subseq	r4, lr, r2, lsl #2
      5c:	04020000 	streq	r0, [r2], #-0
      60:	0001e807 	andeq	lr, r1, r7, lsl #16
      64:	05080200 	streq	r0, [r8, #-512]	; 0xfffffe00
      68:	00000177 	andeq	r0, r0, r7, ror r1
      6c:	e3070802 	movw	r0, #30722	; 0x7802
      70:	04000001 	streq	r0, [r0], #-1
      74:	6e690504 	cdpvs	5, 6, cr0, cr9, cr4, {0}
      78:	04020074 	streq	r0, [r2], #-116	; 0xffffff8c
      7c:	0001ed07 	andeq	lr, r1, r7, lsl #26
      80:	02020300 	andeq	r0, r2, #0, 6
      84:	18030000 	stmdane	r3, {}	; <UNPREDICTABLE>
      88:	0000002c 	andeq	r0, r0, ip, lsr #32
      8c:	00005503 	andeq	r5, r0, r3, lsl #10
      90:	53300300 	teqpl	r0, #0, 6
      94:	02000000 	andeq	r0, r0, #0
      98:	01850704 	orreq	r0, r5, r4, lsl #14
      9c:	8c050000 	stchi	0, cr0, [r5], {-0}
      a0:	06000000 	streq	r0, [r0], -r0
      a4:	0000009e 	muleq	r0, lr, r0
      a8:	00008107 	andeq	r8, r0, r7, lsl #2
      ac:	0000b800 	andeq	fp, r0, r0, lsl #16
      b0:	00970800 	addseq	r0, r7, r0, lsl #16
      b4:	00030000 	andeq	r0, r3, r0
      b8:	00008105 	andeq	r8, r0, r5, lsl #2
      bc:	00b80600 	adcseq	r0, r8, r0, lsl #12
      c0:	81070000 	mrshi	r0, (UNDEF: 7)
      c4:	d2000000 	andle	r0, r0, #0
      c8:	08000000 	stmdaeq	r0, {}	; <UNPREDICTABLE>
      cc:	00000097 	muleq	r0, r7, r0
      d0:	10090007 	andne	r0, r9, r7
      d4:	a00c1804 	andge	r1, ip, r4, lsl #16
      d8:	0a000001 	beq	e4 <.flash_to_ram_loop_end+0xe>
      dc:	04003143 	streq	r3, [r0], #-323	; 0xfffffebd
      e0:	00b80c19 	adcseq	r0, r8, r9, lsl ip
      e4:	0a000000 	beq	ec <.flash_to_ram_loop_end+0x16>
      e8:	04003243 	streq	r3, [r0], #-579	; 0xfffffdbd
      ec:	00b80c1a 	adcseq	r0, r8, sl, lsl ip
      f0:	0a010000 	beq	400f8 <__exidx_end+0x3e350>
      f4:	04003343 	streq	r3, [r0], #-835	; 0xfffffcbd
      f8:	00b80c1b 	adcseq	r0, r8, fp, lsl ip
      fc:	0a020000 	beq	80104 <__exidx_end+0x7e35c>
     100:	04003443 	streq	r3, [r0], #-1091	; 0xfffffbbd
     104:	00b80c1c 	adcseq	r0, r8, ip, lsl ip
     108:	0a030000 	beq	c0110 <__exidx_end+0xbe368>
     10c:	04003543 	streq	r3, [r0], #-1347	; 0xfffffabd
     110:	00b80c1d 	adcseq	r0, r8, sp, lsl ip
     114:	0a040000 	beq	10011c <__exidx_end+0xfe374>
     118:	04003643 	streq	r3, [r0], #-1603	; 0xfffff9bd
     11c:	00b80c1e 	adcseq	r0, r8, lr, lsl ip
     120:	0a050000 	beq	140128 <__exidx_end+0x13e380>
     124:	1f040053 	svcne	0x00040053
     128:	0000bd0c 	andeq	fp, r0, ip, lsl #26
     12c:	7c0b0600 	stcvc	6, cr0, [fp], {-0}
     130:	04000002 	streq	r0, [r0], #-2
     134:	01a00c20 	lsreq	r0, r0, #24
     138:	0a070000 	beq	1c0140 <__exidx_end+0x1be398>
     13c:	04004353 	streq	r4, [r0], #-851	; 0xfffffcad
     140:	00b80c21 	adcseq	r0, r8, r1, lsr #24
     144:	0b080000 	bleq	20014c <__exidx_end+0x1fe3a4>
     148:	00000287 	andeq	r0, r0, r7, lsl #5
     14c:	a00c2204 	andge	r2, ip, r4, lsl #4
     150:	09000001 	stmdbeq	r0, {r0}
     154:	0000220b 	andeq	r2, r0, fp, lsl #4
     158:	0c230400 	cfstrseq	mvf0, [r3], #-0
     15c:	000000b8 	strheq	r0, [r0], -r8
     160:	00280b0a 	eoreq	r0, r8, sl, lsl #22
     164:	24040000 	strcs	r0, [r4], #-0
     168:	0000b80c 	andeq	fp, r0, ip, lsl #16
     16c:	430a0b00 	movwmi	r0, #43776	; 0xab00
     170:	25040037 	strcs	r0, [r4, #-55]	; 0xffffffc9
     174:	0000bd0c 	andeq	fp, r0, ip, lsl #26
     178:	430a0c00 	movwmi	r0, #44032	; 0xac00
     17c:	26040038 			; <UNDEFINED> instruction: 0x26040038
     180:	0000b80c 	andeq	fp, r0, ip, lsl #16
     184:	430a0d00 	movwmi	r0, #44288	; 0xad00
     188:	27040039 	smladxcs	r4, r9, r0, r0
     18c:	0000bd0c 	andeq	fp, r0, ip, lsl #26
     190:	430a0e00 	movwmi	r0, #44544	; 0xae00
     194:	04003031 	streq	r3, [r0], #-49	; 0xffffffcf
     198:	00bd0c28 	adcseq	r0, sp, r8, lsr #24
     19c:	000f0000 	andeq	r0, pc, r0
     1a0:	00008107 	andeq	r8, r0, r7, lsl #2
     1a4:	0001b000 	andeq	fp, r1, r0
     1a8:	00970800 	addseq	r0, r7, r0, lsl #16
     1ac:	00000000 	andeq	r0, r0, r0
     1b0:	0002460c 	andeq	r4, r2, ip, lsl #12
     1b4:	0c290400 	cfstrseq	mvf0, [r9], #-0
     1b8:	000000d2 	ldrdeq	r0, [r0], -r2
     1bc:	00008107 	andeq	r8, r0, r7, lsl #2
     1c0:	0001cc00 	andeq	ip, r1, r0, lsl #24
     1c4:	00970800 	addseq	r0, r7, r0, lsl #16
     1c8:	009b0000 	addseq	r0, fp, r0
     1cc:	82040109 	andhi	r0, r4, #1073741826	; 0x40000002
     1d0:	0001e20e 	andeq	lr, r1, lr, lsl #4
     1d4:	52430a00 	subpl	r0, r3, #0, 20
     1d8:	0e830400 	cdpeq	4, 8, cr0, cr3, cr0, {0}
     1dc:	000000b8 	strheq	r0, [r0], -r8
     1e0:	9d0c0000 	stcls	0, cr0, [ip, #-0]
     1e4:	04000002 	streq	r0, [r0], #-2
     1e8:	01cc0e84 	biceq	r0, ip, r4, lsl #29
     1ec:	81070000 	mrshi	r0, (UNDEF: 7)
     1f0:	fe000000 	cdp2	0, 0, cr0, cr0, cr0, {0}
     1f4:	08000001 	stmdaeq	r0, {r0}
     1f8:	00000097 	muleq	r0, r7, r0
     1fc:	a4090017 	strge	r0, [r9], #-23	; 0xffffffe9
     200:	490f5704 	stmdbmi	pc, {r2, r8, r9, sl, ip, lr}	; <UNPREDICTABLE>
     204:	0a000002 	beq	214 <.flash_to_ram_loop_end+0x13e>
     208:	00524350 	subseq	r4, r2, r0, asr r3
     20c:	590f5804 	stmdbpl	pc, {r2, fp, ip, lr}	; <UNPREDICTABLE>
     210:	00000002 	andeq	r0, r0, r2
     214:	0001fa0b 	andeq	pc, r1, fp, lsl #20
     218:	0f590400 	svceq	0x00590400
     21c:	0000009e 	muleq	r0, lr, r0
     220:	01bc0b80 			; <UNDEFINED> instruction: 0x01bc0b80
     224:	5a040000 	bpl	10022c <__exidx_end+0xfe484>
     228:	00009e0f 	andeq	r9, r0, pc, lsl #28
     22c:	7c0b8400 	cfstrsvc	mvf8, [fp], {-0}
     230:	04000002 	streq	r0, [r0], #-2
     234:	01ee0f5b 	mvneq	r0, fp, asr pc
     238:	0b880000 	bleq	fe200240 <__stack+0xde1fa240>
     23c:	00000308 	andeq	r0, r0, r8, lsl #6
     240:	9e0f5c04 	cdpls	12, 0, cr5, cr15, cr4, {0}
     244:	a0000000 	andge	r0, r0, r0
     248:	009e0700 	addseq	r0, lr, r0, lsl #14
     24c:	02590000 	subseq	r0, r9, #0
     250:	97080000 	strls	r0, [r8, -r0]
     254:	1f000000 	svcne	0x00000000
     258:	02490500 	subeq	r0, r9, #0, 10
     25c:	fe0c0000 	cdp2	0, 0, cr0, cr12, cr0, {0}
     260:	04000002 	streq	r0, [r0], #-2
     264:	01fe0f5d 	mvnseq	r0, sp, asr pc
     268:	080d0000 	stmdaeq	sp, {}	; <UNPREDICTABLE>
     26c:	10ec0411 	rscne	r0, ip, r1, lsl r4
     270:	000003ec 	andeq	r0, r0, ip, ror #7
     274:	00024f0b 	andeq	r4, r2, fp, lsl #30
     278:	10ed0400 	rscne	r0, sp, r0, lsl #8
     27c:	0000009e 	muleq	r0, lr, r0
     280:	018e0b00 	orreq	r0, lr, r0, lsl #22
     284:	ee040000 	cdp	0, 0, cr0, cr4, cr0, {0}
     288:	00009e10 	andeq	r9, r0, r0, lsl lr
     28c:	7c0b0400 	cfstrsvc	mvf0, [fp], {-0}
     290:	04000002 	streq	r0, [r0], #-2
     294:	03ec10ef 	mvneq	r1, #239	; 0xef
     298:	0e080000 	cdpeq	0, 0, cr0, cr8, cr0, {0}
     29c:	000001af 	andeq	r0, r0, pc, lsr #3
     2a0:	9e10f004 	cdpls	0, 1, cr15, cr0, cr4, {0}
     2a4:	04000000 	streq	r0, [r0], #-0
     2a8:	02870e10 	addeq	r0, r7, #16, 28	; 0x100
     2ac:	f1040000 	cps	#0
     2b0:	0000a810 	andeq	sl, r0, r0, lsl r8
     2b4:	0e100800 	cdpeq	8, 1, cr0, cr0, cr0, {0}
     2b8:	0000026a 	andeq	r0, r0, sl, ror #4
     2bc:	9e10f204 	cdpls	2, 1, cr15, cr0, cr4, {0}
     2c0:	0c000000 	stceq	0, cr0, [r0], {-0}
     2c4:	00000e10 	andeq	r0, r0, r0, lsl lr
     2c8:	f3040000 	vhadd.u8	d0, d4, d0
     2cc:	00009e10 	andeq	r9, r0, r0, lsl lr
     2d0:	0e101000 	cdpeq	0, 1, cr1, cr0, cr0, {0}
     2d4:	00000292 	muleq	r0, r2, r2
     2d8:	a810f404 	ldmdage	r0, {r2, sl, ip, sp, lr, pc}
     2dc:	14000000 	strne	r0, [r0], #-0
     2e0:	01c20e10 	biceq	r0, r2, r0, lsl lr
     2e4:	f5040000 			; <UNDEFINED> instruction: 0xf5040000
     2e8:	00009e10 	andeq	r9, r0, r0, lsl lr
     2ec:	0e101800 	cdpeq	8, 1, cr1, cr0, cr0, {0}
     2f0:	00000017 	andeq	r0, r0, r7, lsl r0
     2f4:	c210f604 	andsgt	pc, r0, #4, 12	; 0x400000
     2f8:	1c000000 	stcne	0, cr0, [r0], {-0}
     2fc:	00120e10 	andseq	r0, r2, r0, lsl lr
     300:	f7040000 			; <UNDEFINED> instruction: 0xf7040000
     304:	0000a310 	andeq	sl, r0, r0, lsl r3
     308:	0e102400 	cfmulseq	mvf2, mvf0, mvf0
     30c:	000002a6 	andeq	r0, r0, r6, lsr #5
     310:	fd10f804 	ldc2	8, cr15, [r0, #-16]
     314:	28000003 	stmdacs	r0, {r0, r1}
     318:	01970e10 	orrseq	r0, r7, r0, lsl lr
     31c:	f9040000 			; <UNDEFINED> instruction: 0xf9040000
     320:	00009e10 	andeq	r9, r0, r0, lsl lr
     324:	0e103400 	cfmulseq	mvf3, mvf0, mvf0
     328:	0000019d 	muleq	r0, sp, r1
     32c:	9e10fa04 	vnmlsls.f32	s30, s0, s8
     330:	38000000 	stmdacc	r0, {}	; <UNPREDICTABLE>
     334:	01a30e10 			; <UNDEFINED> instruction: 0x01a30e10
     338:	fb040000 	blx	100342 <__exidx_end+0xfe59a>
     33c:	00009e10 	andeq	r9, r0, r0, lsl lr
     340:	0e103c00 	cdpeq	12, 1, cr3, cr0, cr0, {0}
     344:	000001a9 	andeq	r0, r0, r9, lsr #3
     348:	9e10fc04 	cdpls	12, 1, cr15, cr0, cr4, {0}
     34c:	40000000 	andmi	r0, r0, r0
     350:	01c80e10 	biceq	r0, r8, r0, lsl lr
     354:	fd040000 	stc2	0, cr0, [r4, #-0]
     358:	00009e10 	andeq	r9, r0, r0, lsl lr
     35c:	0e104400 	cfmulseq	mvf4, mvf0, mvf0
     360:	000002b1 			; <UNDEFINED> instruction: 0x000002b1
     364:	a810fe04 	ldmdage	r0, {r2, r9, sl, fp, ip, sp, lr, pc}
     368:	48000000 	stmdami	r0, {}	; <UNPREDICTABLE>
     36c:	00060e10 	andeq	r0, r6, r0, lsl lr
     370:	ff040000 			; <UNDEFINED> instruction: 0xff040000
     374:	00009e10 	andeq	r9, r0, r0, lsl lr
     378:	0e104c00 	cdpeq	12, 1, cr4, cr0, cr0, {0}
     37c:	0000000c 	andeq	r0, r0, ip
     380:	a3110004 	tstge	r1, #4
     384:	50000000 	andpl	r0, r0, r0
     388:	02bc0e10 	adcseq	r0, ip, #16, 28	; 0x100
     38c:	01040000 	mrseq	r0, (UNDEF: 4)
     390:	0000a811 	andeq	sl, r0, r1, lsl r8
     394:	0e105400 	cfmulseq	mvf5, mvf0, mvf0
     398:	00000270 	andeq	r0, r0, r0, ror r2
     39c:	a3110204 	tstge	r1, #4, 4	; 0x40000000
     3a0:	58000000 	stmdapl	r0, {}	; <UNPREDICTABLE>
     3a4:	02760e10 	rsbseq	r0, r6, #16, 28	; 0x100
     3a8:	03040000 	movweq	r0, #16384	; 0x4000
     3ac:	0000a311 	andeq	sl, r0, r1, lsl r3
     3b0:	0e105c00 	cdpeq	12, 1, cr5, cr0, cr0, {0}
     3b4:	00000265 	andeq	r0, r0, r5, ror #4
     3b8:	a3110404 	tstge	r1, #4, 8	; 0x4000000
     3bc:	60000000 	andvs	r0, r0, r0
     3c0:	02c70e10 	sbceq	r0, r7, #16, 28	; 0x100
     3c4:	05040000 	streq	r0, [r4, #-0]
     3c8:	0001bc11 	andeq	fp, r1, r1, lsl ip
     3cc:	0e106400 	cfmulseq	mvf6, mvf0, mvf0
     3d0:	000001de 	ldrdeq	r0, [r0], -lr
     3d4:	9e110604 	cfmsub32ls	mvax0, mvfx0, mvfx1, mvfx4
     3d8:	00000000 	andeq	r0, r0, r0
     3dc:	01b50e11 			; <UNDEFINED> instruction: 0x01b50e11
     3e0:	07040000 	streq	r0, [r4, -r0]
     3e4:	00009e11 	andeq	r9, r0, r1, lsl lr
     3e8:	00110400 	andseq	r0, r1, r0, lsl #8
     3ec:	00008107 	andeq	r8, r0, r7, lsl #2
     3f0:	0003fd00 	andeq	pc, r3, r0, lsl #26
     3f4:	00970f00 	addseq	r0, r7, r0, lsl #30
     3f8:	0ffb0000 	svceq	0x00fb0000
     3fc:	00810700 	addeq	r0, r1, r0, lsl #14
     400:	040d0000 	streq	r0, [sp], #-0
     404:	97080000 	strls	r0, [r8, -r0]
     408:	0b000000 	bleq	410 <__do_global_dtors_aux>
     40c:	005e0c00 	subseq	r0, lr, r0, lsl #24
     410:	08040000 	stmdaeq	r4, {}	; <UNPREDICTABLE>
     414:	00026a11 	andeq	r6, r2, r1, lsl sl
     418:	020a1000 	andeq	r1, sl, #0
     41c:	61010000 	mrsvs	r0, (UNDEF: 1)
     420:	000004e8 	andeq	r0, r0, r8, ror #9
     424:	000000b0 	strheq	r0, [r0], -r0	; <UNPREDICTABLE>
     428:	30119c01 	andscc	r9, r1, r1, lsl #24
     42c:	01000002 	tsteq	r0, r2
     430:	000000c7 	andeq	r0, r0, r7, asr #1
     434:	00010c00 	andeq	r0, r1, r0, lsl #24
     438:	5e9c0100 	fmlple	f0, f4, f0
     43c:	12000004 	andne	r0, r0, #4
     440:	000002d2 	ldrdeq	r0, [r0], -r2
     444:	008cc801 	addeq	ip, ip, r1, lsl #16
     448:	00000000 	andeq	r0, r0, r0
     44c:	28120000 	ldmdacs	r2, {}	; <UNPREDICTABLE>
     450:	01000002 	tsteq	r0, r2
     454:	000081c9 	andeq	r8, r0, r9, asr #3
     458:	00007b00 	andeq	r7, r0, r0, lsl #22
     45c:	55130000 	ldrpl	r0, [r3, #-0]
     460:	01000002 	tsteq	r0, r2
     464:	00008c5b 	andeq	r8, r0, fp, asr ip
     468:	c0030500 	andgt	r0, r3, r0, lsl #10
     46c:	001fffe0 	andseq	pc, pc, r0, ror #31
     470:	00000591 	muleq	r0, r1, r5
     474:	01060004 	tsteq	r6, r4
     478:	01040000 	mrseq	r0, (UNDEF: 4)
     47c:	00000067 	andeq	r0, r0, r7, rrx
     480:	0003e70c 	andeq	lr, r3, ip, lsl #14
     484:	0002de00 	andeq	sp, r2, r0, lsl #28
     488:	00001800 	andeq	r1, r0, r0, lsl #16
     48c:	00000000 	andeq	r0, r0, r0
     490:	00016d00 	andeq	r6, r1, r0, lsl #26
     494:	06010200 	streq	r0, [r1], -r0, lsl #4
     498:	000001d2 	ldrdeq	r0, [r0], -r2
     49c:	00020003 	andeq	r0, r2, r3
     4a0:	371d0200 	ldrcc	r0, [sp, -r0, lsl #4]
     4a4:	02000000 	andeq	r0, r0, #0
     4a8:	01d00801 	bicseq	r0, r0, r1, lsl #16
     4ac:	02020000 	andeq	r0, r2, #0
     4b0:	00016d05 	andeq	r6, r1, r5, lsl #26
     4b4:	07020200 	streq	r0, [r2, -r0, lsl #4]
     4b8:	00000215 	andeq	r0, r0, r5, lsl r2
     4bc:	7c050402 	cfstrsvc	mvf0, [r5], {2}
     4c0:	03000001 	movweq	r0, #1
     4c4:	00000053 	andeq	r0, r0, r3, asr r0
     4c8:	005e4102 	subseq	r4, lr, r2, lsl #2
     4cc:	04020000 	streq	r0, [r2], #-0
     4d0:	0001e807 	andeq	lr, r1, r7, lsl #16
     4d4:	05080200 	streq	r0, [r8, #-512]	; 0xfffffe00
     4d8:	00000177 	andeq	r0, r0, r7, ror r1
     4dc:	e3070802 	movw	r0, #30722	; 0x7802
     4e0:	04000001 	streq	r0, [r0], #-1
     4e4:	6e690504 	cdpvs	5, 6, cr0, cr9, cr4, {0}
     4e8:	04020074 	streq	r0, [r2], #-116	; 0xffffff8c
     4ec:	0001ed07 	andeq	lr, r1, r7, lsl #26
     4f0:	02020300 	andeq	r0, r2, #0, 6
     4f4:	18030000 	stmdane	r3, {}	; <UNPREDICTABLE>
     4f8:	0000002c 	andeq	r0, r0, ip, lsr #32
     4fc:	00005503 	andeq	r5, r0, r3, lsl #10
     500:	53300300 	teqpl	r0, #0, 6
     504:	02000000 	andeq	r0, r0, #0
     508:	01850704 	orreq	r0, r5, r4, lsl #14
     50c:	8c050000 	stchi	0, cr0, [r5], {-0}
     510:	06000000 	streq	r0, [r0], -r0
     514:	0000009e 	muleq	r0, lr, r0
     518:	00008107 	andeq	r8, r0, r7, lsl #2
     51c:	0000b800 	andeq	fp, r0, r0, lsl #16
     520:	00970800 	addseq	r0, r7, r0, lsl #16
     524:	00030000 	andeq	r0, r3, r0
     528:	e2041809 	and	r1, r4, #589824	; 0x90000
     52c:	00011003 	andeq	r1, r1, r3
     530:	04210a00 	strteq	r0, [r1], #-2560	; 0xfffff600
     534:	e3040000 	movw	r0, #16384	; 0x4000
     538:	00009e03 	andeq	r9, r0, r3, lsl #28
     53c:	4f0a0000 	svcmi	0x000a0000
     540:	04000003 	streq	r0, [r0], #-3
     544:	009e03e4 	addseq	r0, lr, r4, ror #7
     548:	0a040000 	beq	100550 <__exidx_end+0xfe7a8>
     54c:	00000325 	andeq	r0, r0, r5, lsr #6
     550:	9e03e504 	cfsh32ls	mvfx14, mvfx3, #4
     554:	08000000 	stmdaeq	r0, {}	; <UNPREDICTABLE>
     558:	00032a0a 	andeq	r2, r3, sl, lsl #20
     55c:	03e60400 	mvneq	r0, #0, 8
     560:	0000009e 	muleq	r0, lr, r0
     564:	03800a0c 	orreq	r0, r0, #12, 20	; 0xc000
     568:	e7040000 	str	r0, [r4, -r0]
     56c:	0000a303 	andeq	sl, r0, r3, lsl #6
     570:	0d0a1000 	stceq	0, cr1, [sl, #-0]
     574:	04000003 	streq	r0, [r0], #-3
     578:	009e03e8 	addseq	r0, lr, r8, ror #7
     57c:	00140000 	andseq	r0, r4, r0
     580:	0003c80b 	andeq	ip, r3, fp, lsl #16
     584:	03e90400 	mvneq	r0, #0, 8
     588:	000000b8 	strheq	r0, [r0], -r8
     58c:	00008107 	andeq	r8, r0, r7, lsl #2
     590:	00012c00 	andeq	r2, r1, r0, lsl #24
     594:	00970800 	addseq	r0, r7, r0, lsl #16
     598:	00070000 	andeq	r0, r7, r0
     59c:	00008107 	andeq	r8, r0, r7, lsl #2
     5a0:	00013c00 	andeq	r3, r1, r0, lsl #24
     5a4:	00970800 	addseq	r0, r7, r0, lsl #16
     5a8:	009b0000 	addseq	r0, fp, r0
     5ac:	00008107 	andeq	r8, r0, r7, lsl #2
     5b0:	00014c00 	andeq	r4, r1, r0, lsl #24
     5b4:	00970800 	addseq	r0, r7, r0, lsl #16
     5b8:	00170000 	andseq	r0, r7, r0
     5bc:	5704a409 	strpl	sl, [r4, -r9, lsl #8]
     5c0:	0001970f 	andeq	r9, r1, pc, lsl #14
     5c4:	43500c00 	cmpmi	r0, #0, 24
     5c8:	58040052 	stmdapl	r4, {r1, r4, r6}
     5cc:	0001a70f 	andeq	sl, r1, pc, lsl #14
     5d0:	fa0a0000 	blx	2805d8 <__exidx_end+0x27e830>
     5d4:	04000001 	streq	r0, [r0], #-1
     5d8:	009e0f59 	addseq	r0, lr, r9, asr pc
     5dc:	0a800000 	beq	fe0005e4 <__stack+0xddffa5e4>
     5e0:	000001bc 			; <UNDEFINED> instruction: 0x000001bc
     5e4:	9e0f5a04 	vmlals.f32	s10, s30, s8
     5e8:	84000000 	strhi	r0, [r0], #-0
     5ec:	00027c0a 	andeq	r7, r2, sl, lsl #24
     5f0:	0f5b0400 	svceq	0x005b0400
     5f4:	0000013c 	andeq	r0, r0, ip, lsr r1
     5f8:	03080a88 	movweq	r0, #35464	; 0x8a88
     5fc:	5c040000 	stcpl	0, cr0, [r4], {-0}
     600:	00009e0f 	andeq	r9, r0, pc, lsl #28
     604:	0700a000 	streq	sl, [r0, -r0]
     608:	0000009e 	muleq	r0, lr, r0
     60c:	000001a7 	andeq	r0, r0, r7, lsr #3
     610:	00009708 	andeq	r9, r0, r8, lsl #14
     614:	05001f00 	streq	r1, [r0, #-3840]	; 0xfffff100
     618:	00000197 	muleq	r0, r7, r1
     61c:	0002fe0b 	andeq	pc, r2, fp, lsl #28
     620:	0f5d0400 	svceq	0x005d0400
     624:	0000014c 	andeq	r0, r0, ip, asr #2
     628:	0411080d 	ldreq	r0, [r1], #-2061	; 0xfffff7f3
     62c:	033a10ec 	teqeq	sl, #236	; 0xec
     630:	4f0a0000 	svcmi	0x000a0000
     634:	04000002 	streq	r0, [r0], #-2
     638:	009e10ed 	addseq	r1, lr, sp, ror #1
     63c:	0a000000 	beq	644 <gpio_init+0x3c>
     640:	0000018e 	andeq	r0, r0, lr, lsl #3
     644:	9e10ee04 	cdpls	14, 1, cr14, cr0, cr4, {0}
     648:	04000000 	streq	r0, [r0], #-0
     64c:	00027c0a 	andeq	r7, r2, sl, lsl #24
     650:	10ef0400 	rscne	r0, pc, r0, lsl #8
     654:	0000033a 	andeq	r0, r0, sl, lsr r3
     658:	01af0e08 			; <UNDEFINED> instruction: 0x01af0e08
     65c:	f0040000 			; <UNDEFINED> instruction: 0xf0040000
     660:	00009e10 	andeq	r9, r0, r0, lsl lr
     664:	0e100400 	cfmulseq	mvf0, mvf0, mvf0
     668:	00000287 	andeq	r0, r0, r7, lsl #5
     66c:	a810f104 	ldmdage	r0, {r2, r8, ip, sp, lr, pc}
     670:	08000000 	stmdaeq	r0, {}	; <UNPREDICTABLE>
     674:	026a0e10 	rsbeq	r0, sl, #16, 28	; 0x100
     678:	f2040000 	vhadd.s8	d0, d4, d0
     67c:	00009e10 	andeq	r9, r0, r0, lsl lr
     680:	0e100c00 	cdpeq	12, 1, cr0, cr0, cr0, {0}
     684:	00000000 	andeq	r0, r0, r0
     688:	9e10f304 	cdpls	3, 1, cr15, cr0, cr4, {0}
     68c:	10000000 	andne	r0, r0, r0
     690:	02920e10 	addseq	r0, r2, #16, 28	; 0x100
     694:	f4040000 	vst4.8	{d0-d3}, [r4], r0
     698:	0000a810 	andeq	sl, r0, r0, lsl r8
     69c:	0e101400 	cfmulseq	mvf1, mvf0, mvf0
     6a0:	000001c2 	andeq	r0, r0, r2, asr #3
     6a4:	9e10f504 	cfmul32ls	mvfx15, mvfx0, mvfx4
     6a8:	18000000 	stmdane	r0, {}	; <UNPREDICTABLE>
     6ac:	00170e10 	andseq	r0, r7, r0, lsl lr
     6b0:	f6040000 			; <UNDEFINED> instruction: 0xf6040000
     6b4:	00011c10 	andeq	r1, r1, r0, lsl ip
     6b8:	0e101c00 	cdpeq	12, 1, cr1, cr0, cr0, {0}
     6bc:	00000012 	andeq	r0, r0, r2, lsl r0
     6c0:	a310f704 	tstge	r0, #4, 14	; 0x100000	; <UNPREDICTABLE>
     6c4:	24000000 	strcs	r0, [r0], #-0
     6c8:	02a60e10 	adceq	r0, r6, #16, 28	; 0x100
     6cc:	f8040000 			; <UNDEFINED> instruction: 0xf8040000
     6d0:	00034b10 	andeq	r4, r3, r0, lsl fp
     6d4:	0e102800 	cdpeq	8, 1, cr2, cr0, cr0, {0}
     6d8:	00000197 	muleq	r0, r7, r1
     6dc:	9e10f904 	cdpls	9, 1, cr15, cr0, cr4, {0}
     6e0:	34000000 	strcc	r0, [r0], #-0
     6e4:	019d0e10 	orrseq	r0, sp, r0, lsl lr
     6e8:	fa040000 	blx	1006f0 <__exidx_end+0xfe948>
     6ec:	00009e10 	andeq	r9, r0, r0, lsl lr
     6f0:	0e103800 	cdpeq	8, 1, cr3, cr0, cr0, {0}
     6f4:	000001a3 	andeq	r0, r0, r3, lsr #3
     6f8:	9e10fb04 	vnmlsls.f64	d15, d0, d4
     6fc:	3c000000 	stccc	0, cr0, [r0], {-0}
     700:	01a90e10 			; <UNDEFINED> instruction: 0x01a90e10
     704:	fc040000 	stc2	0, cr0, [r4], {-0}
     708:	00009e10 	andeq	r9, r0, r0, lsl lr
     70c:	0e104000 	cdpeq	0, 1, cr4, cr0, cr0, {0}
     710:	000001c8 	andeq	r0, r0, r8, asr #3
     714:	9e10fd04 	cdpls	13, 1, cr15, cr0, cr4, {0}
     718:	44000000 	strmi	r0, [r0], #-0
     71c:	02b10e10 	adcseq	r0, r1, #16, 28	; 0x100
     720:	fe040000 	cdp2	0, 0, cr0, cr4, cr0, {0}
     724:	0000a810 	andeq	sl, r0, r0, lsl r8
     728:	0e104800 	cdpeq	8, 1, cr4, cr0, cr0, {0}
     72c:	00000006 	andeq	r0, r0, r6
     730:	9e10ff04 	cdpls	15, 1, cr15, cr0, cr4, {0}
     734:	4c000000 	stcmi	0, cr0, [r0], {-0}
     738:	000c0e10 	andeq	r0, ip, r0, lsl lr
     73c:	00040000 	andeq	r0, r4, r0
     740:	0000a311 	andeq	sl, r0, r1, lsl r3
     744:	0e105000 	cdpeq	0, 1, cr5, cr0, cr0, {0}
     748:	000002bc 			; <UNDEFINED> instruction: 0x000002bc
     74c:	a8110104 	ldmdage	r1, {r2, r8}
     750:	54000000 	strpl	r0, [r0], #-0
     754:	02700e10 	rsbseq	r0, r0, #16, 28	; 0x100
     758:	02040000 	andeq	r0, r4, #0
     75c:	0000a311 	andeq	sl, r0, r1, lsl r3
     760:	0e105800 	cdpeq	8, 1, cr5, cr0, cr0, {0}
     764:	00000276 	andeq	r0, r0, r6, ror r2
     768:	a3110304 	tstge	r1, #4, 6	; 0x10000000
     76c:	5c000000 	stcpl	0, cr0, [r0], {-0}
     770:	02650e10 	rsbeq	r0, r5, #16, 28	; 0x100
     774:	04040000 	streq	r0, [r4], #-0
     778:	0000a311 	andeq	sl, r0, r1, lsl r3
     77c:	0e106000 	cdpeq	0, 1, cr6, cr0, cr0, {0}
     780:	000002c7 	andeq	r0, r0, r7, asr #5
     784:	2c110504 	cfldr32cs	mvfx0, [r1], {4}
     788:	64000001 	strvs	r0, [r0], #-1
     78c:	01de0e10 	bicseq	r0, lr, r0, lsl lr
     790:	06040000 	streq	r0, [r4], -r0
     794:	00009e11 	andeq	r9, r0, r1, lsl lr
     798:	0e110000 	cdpeq	0, 1, cr0, cr1, cr0, {0}
     79c:	000001b5 			; <UNDEFINED> instruction: 0x000001b5
     7a0:	9e110704 	cdpls	7, 1, cr0, cr1, cr4, {0}
     7a4:	04000000 	streq	r0, [r0], #-0
     7a8:	81070011 	tsthi	r7, r1, lsl r0
     7ac:	4b000000 	blmi	7b4 <prvUnlockQueue+0x10>
     7b0:	0f000003 	svceq	0x00000003
     7b4:	00000097 	muleq	r0, r7, r0
     7b8:	07000ffb 			; <UNDEFINED> instruction: 0x07000ffb
     7bc:	00000081 	andeq	r0, r0, r1, lsl #1
     7c0:	0000035b 	andeq	r0, r0, fp, asr r3
     7c4:	00009708 	andeq	r9, r0, r8, lsl #14
     7c8:	0b000b00 	bleq	33d0 <__exidx_end+0x1628>
     7cc:	0000005e 	andeq	r0, r0, lr, asr r0
     7d0:	b8110804 	ldmdalt	r1, {r2, fp}
     7d4:	10000001 	andne	r0, r0, r1
     7d8:	03ef0304 	mvneq	r0, #4, 6	; 0x10000000
     7dc:	79050000 	stmdbvc	r5, {}	; <UNPREDICTABLE>
     7e0:	0000004c 	andeq	r0, r0, ip, asr #32
     7e4:	0003ee03 	andeq	lr, r3, r3, lsl #28
     7e8:	5e7a0500 	cdppl	5, 7, cr0, cr10, cr0, {0}
     7ec:	03000000 	movweq	r0, #0
     7f0:	00000375 	andeq	r0, r0, r5, ror r3
     7f4:	008c8505 	addeq	r8, ip, r5, lsl #10
     7f8:	01020000 	mrseq	r0, (UNDEF: 2)
     7fc:	0001d908 	andeq	sp, r1, r8, lsl #18
     800:	03990300 	orrseq	r0, r9, #0, 6
     804:	58060000 	stmdapl	r6, {}	; <UNPREDICTABLE>
     808:	00000367 	andeq	r0, r0, r7, ror #6
     80c:	00035411 	andeq	r5, r3, r1, lsl r4
     810:	981a0100 	ldmdals	sl, {r8}
     814:	48000005 	stmdami	r0, {r0, r2}
     818:	01000000 	mrseq	r0, (UNDEF: 0)
     81c:	0003ea9c 	muleq	r3, ip, sl
     820:	03bb1200 			; <UNDEFINED> instruction: 0x03bb1200
     824:	1a010000 	bne	4082c <__exidx_end+0x3ea84>
     828:	00000367 	andeq	r0, r0, r7, ror #6
     82c:	000000b9 	strheq	r0, [r0], -r9
     830:	00032f13 	andeq	r2, r3, r3, lsl pc
     834:	5e1c0100 	mufple	f0, f4, f0
     838:	02000000 	andeq	r0, r0, #0
     83c:	ae146c91 	mrcge	12, 0, r6, cr4, cr1, {4}
     840:	4c000005 	stcmi	0, cr0, [r0], {5}
     844:	15000005 	strne	r0, [r0, #-5]
     848:	91025101 	tstls	r2, r1, lsl #2
     84c:	5201156c 	andpl	r1, r1, #108, 10	; 0x1b000000
     850:	15ff0902 	ldrbne	r0, [pc, #2306]!	; 115a <prvIdleTask+0x1e>
     854:	30015301 	andcc	r5, r1, r1, lsl #6
     858:	12160000 	andsne	r0, r6, #0
     85c:	01000004 	tsteq	r0, r4
     860:	0005e00d 	andeq	lr, r5, sp
     864:	00002800 	andeq	r2, r0, r0, lsl #16
     868:	539c0100 	orrspl	r0, ip, #0, 2
     86c:	12000004 	andne	r0, r0, #4
     870:	000003bb 			; <UNDEFINED> instruction: 0x000003bb
     874:	03670d01 	cmneq	r7, #1, 26	; 0x40
     878:	00da0000 	sbcseq	r0, sl, r0
     87c:	fa170000 	blx	5c0884 <__exidx_end+0x5beadc>
     880:	01000003 	tsteq	r0, r3
     884:	00037f0f 	andeq	r7, r3, pc, lsl #30
     888:	00691800 	rsbeq	r1, r9, r0, lsl #16
     88c:	005e1101 	subseq	r1, lr, r1, lsl #2
     890:	91020000 	mrsls	r0, (UNDEF: 2)
     894:	05f21974 	ldrbeq	r1, [r2, #2420]!	; 0x974
     898:	05580000 	ldrbeq	r0, [r8, #-0]
     89c:	04380000 	ldrteq	r0, [r8], #-0
     8a0:	01150000 	tsteq	r5, r0
     8a4:	00440150 	subeq	r0, r4, r0, asr r1
     8a8:	00060014 	andeq	r0, r6, r4, lsl r0
     8ac:	00056400 	andeq	r6, r5, r0, lsl #8
     8b0:	51011500 	tstpl	r1, r0, lsl #10
     8b4:	15749102 	ldrbne	r9, [r4, #-258]!	; 0xfffffefe
     8b8:	30015201 	andcc	r5, r1, r1, lsl #4
     8bc:	01530115 	cmpeq	r3, r5, lsl r1
     8c0:	1a000030 	bne	988 <xQueueGenericSend+0xc6>
     8c4:	00000408 	andeq	r0, r0, r8, lsl #8
     8c8:	06083c01 	streq	r3, [r8], -r1, lsl #24
     8cc:	00580000 	subseq	r0, r8, r0
     8d0:	9c010000 	stcls	0, cr0, [r1], {-0}
     8d4:	00034a1b 	andeq	r4, r3, fp, lsl sl
     8d8:	73290100 			; <UNDEFINED> instruction: 0x73290100
     8dc:	60000000 	andvs	r0, r0, r0
     8e0:	80000006 	andhi	r0, r0, r6
     8e4:	01000000 	mrseq	r0, (UNDEF: 0)
     8e8:	00053b9c 	muleq	r5, ip, fp
     8ec:	06661c00 	strbteq	r1, [r6], -r0, lsl #24
     8f0:	04530000 	ldrbeq	r0, [r3], #-0
     8f4:	86190000 	ldrhi	r0, [r9], -r0
     8f8:	70000006 	andvc	r0, r0, r6
     8fc:	a3000005 	movwge	r0, #5
     900:	15000004 	strne	r0, [r0, #-4]
     904:	31015001 	tstcc	r1, r1
     908:	01510115 	cmpeq	r1, r5, lsl r1
     90c:	52011534 	andpl	r1, r1, #52, 10	; 0xd000000
     910:	19003001 	stmdbne	r0, {r0, ip, sp}
     914:	000006a6 	andeq	r0, r0, r6, lsr #13
     918:	0000057c 	andeq	r0, r0, ip, ror r5
     91c:	000004ea 	andeq	r0, r0, sl, ror #9
     920:	05500115 	ldrbeq	r0, [r0, #-277]	; 0xfffffeeb
     924:	0005e103 	andeq	lr, r5, r3, lsl #2
     928:	51011500 	tstpl	r1, r0, lsl #10
     92c:	1d840305 	stcne	3, cr0, [r4, #20]
     930:	01150000 	tsteq	r5, r0
     934:	c8080252 	stmdagt	r8, {r1, r4, r6, r9}
     938:	02530115 	subseq	r0, r3, #1073741829	; 0x40000005
     93c:	02150074 	andseq	r0, r5, #116	; 0x74
     940:	3201007d 	andcc	r0, r1, #125	; 0x7d
     944:	047d0215 	ldrbteq	r0, [sp], #-533	; 0xfffffdeb
     948:	15007402 	strne	r7, [r0, #-1026]	; 0xfffffbfe
     94c:	02087d02 	andeq	r7, r8, #2, 26	; 0x80
     950:	02150074 	andseq	r0, r5, #116	; 0x74
     954:	74020c7d 	strvc	r0, [r2], #-3197	; 0xfffff383
     958:	bc190000 	ldclt	0, cr0, [r9], {-0}
     95c:	7c000006 	stcvc	0, cr0, [r0], {6}
     960:	31000005 	tstcc	r0, r5
     964:	15000005 	strne	r0, [r0, #-5]
     968:	03055001 	movweq	r5, #20481	; 0x5001
     96c:	00000599 	muleq	r0, r9, r5
     970:	05510115 	ldrbeq	r0, [r1, #-277]	; 0xfffffeeb
     974:	001d8703 	andseq	r8, sp, r3, lsl #14
     978:	52011500 	andpl	r1, r1, #0, 10
     97c:	15c80802 	strbne	r0, [r8, #2050]	; 0x802
     980:	74025301 	strvc	r5, [r2], #-769	; 0xfffffcff
     984:	7d021500 	cfstr32vc	mvfx1, [r2, #-0]
     988:	15310100 	ldrne	r0, [r1, #-256]!	; 0xffffff00
     98c:	02047d02 	andeq	r7, r4, #2, 26	; 0x80
     990:	02150074 	andseq	r0, r5, #116	; 0x74
     994:	7402087d 	strvc	r0, [r2], #-2173	; 0xfffff783
     998:	7d021500 	cfstr32vc	mvfx1, [r2, #-0]
     99c:	0074020c 	rsbseq	r0, r4, ip, lsl #4
     9a0:	06c01c00 	strbeq	r1, [r0], r0, lsl #24
     9a4:	05880000 	streq	r0, [r8]
     9a8:	13000000 	movwne	r0, #0
     9ac:	0000098c 	andeq	r0, r0, ip, lsl #19
     9b0:	03910b01 	orrseq	r0, r1, #1024	; 0x400
     9b4:	03050000 	movweq	r0, #20480	; 0x5000
     9b8:	1fffe154 	svcne	0x00ffe154
     9bc:	0003d21d 	andeq	sp, r3, sp, lsl r2
     9c0:	0003d200 	andeq	sp, r3, r0, lsl #4
     9c4:	03910600 	orrseq	r0, r1, #0, 12
     9c8:	00033f1d 	andeq	r3, r3, sp, lsl pc
     9cc:	00033f00 	andeq	r3, r3, r0, lsl #30
     9d0:	022a0700 	eoreq	r0, sl, #0, 14
     9d4:	0003631d 	andeq	r6, r3, sp, lsl r3
     9d8:	00036300 	andeq	r6, r3, r0, lsl #6
     9dc:	02500600 	subseq	r0, r0, #0, 12
     9e0:	0003a71d 	andeq	sl, r3, sp, lsl r7
     9e4:	0003a700 	andeq	sl, r3, r0, lsl #14
     9e8:	06080600 	streq	r0, [r8], -r0, lsl #12
     9ec:	0003121d 	andeq	r1, r3, sp, lsl r2
     9f0:	00031200 	andeq	r1, r3, r0, lsl #4
     9f4:	079d0700 	ldreq	r0, [sp, r0, lsl #14]
     9f8:	0003851d 	andeq	r8, r3, sp, lsl r5
     9fc:	00038500 	andeq	r8, r3, r0, lsl #10
     a00:	037a0700 	cmneq	sl, #0, 14
     a04:	00015900 	andeq	r5, r1, r0, lsl #18
     a08:	a8000400 	stmdage	r0, {sl}
     a0c:	04000002 	streq	r0, [r0], #-2
     a10:	00006701 	andeq	r6, r0, r1, lsl #14
     a14:	042d0c00 	strteq	r0, [sp], #-3072	; 0xfffff400
     a18:	02de0000 	sbcseq	r0, lr, #0
     a1c:	00400000 	subeq	r0, r0, r0
     a20:	00000000 	andeq	r0, r0, r0
     a24:	03130000 	tsteq	r3, #0
     a28:	26020000 	strcs	r0, [r2], -r0
     a2c:	04000004 	streq	r0, [r0], #-4
     a30:	000030d8 	ldrdeq	r3, [r0], -r8
     a34:	07040300 	streq	r0, [r4, -r0, lsl #6]
     a38:	000001ed 	andeq	r0, r0, sp, ror #3
     a3c:	69050404 	stmdbvs	r5, {r2, sl}
     a40:	0300746e 	movweq	r7, #1134	; 0x46e
     a44:	01d20601 	bicseq	r0, r2, r1, lsl #12
     a48:	01030000 	mrseq	r0, (UNDEF: 3)
     a4c:	0001d008 	andeq	sp, r1, r8
     a50:	05020300 	streq	r0, [r2, #-768]	; 0xfffffd00
     a54:	0000016d 	andeq	r0, r0, sp, ror #2
     a58:	15070203 	strne	r0, [r7, #-515]	; 0xfffffdfd
     a5c:	03000002 	movweq	r0, #2
     a60:	017c0504 	cmneq	ip, r4, lsl #10
     a64:	04030000 	streq	r0, [r3], #-0
     a68:	0001e807 	andeq	lr, r1, r7, lsl #16
     a6c:	05080300 	streq	r0, [r8, #-768]	; 0xfffffd00
     a70:	00000177 	andeq	r0, r0, r7, ror r1
     a74:	e3070803 	movw	r0, #30723	; 0x7803
     a78:	03000001 	movweq	r0, #1
     a7c:	01850704 	orreq	r0, r5, r4, lsl #14
     a80:	04050000 	streq	r0, [r5], #-0
     a84:	d9080103 	stmdble	r8, {r0, r1, r8}
     a88:	06000001 	streq	r0, [r0], -r1
     a8c:	0000046d 	andeq	r0, r0, sp, ror #8
     a90:	007d6501 	rsbseq	r6, sp, r1, lsl #10
     a94:	06e00000 	strbteq	r0, [r0], r0
     a98:	00180000 	andseq	r0, r8, r0
     a9c:	9c010000 	stcls	0, cr0, [r1], {-0}
     aa0:	000000e4 	andeq	r0, r0, r4, ror #1
     aa4:	00048307 	andeq	r8, r4, r7, lsl #6
     aa8:	25650100 	strbcs	r0, [r5, #-256]!	; 0xffffff00
     aac:	fb000000 	blx	ab6 <xQueueGenericReceive+0x48>
     ab0:	08000000 	stmdaeq	r0, {}	; <UNPREDICTABLE>
     ab4:	0000047a 	andeq	r0, r0, sl, ror r4
     ab8:	007d6701 	rsbseq	r6, sp, r1, lsl #14
     abc:	01270000 			; <UNDEFINED> instruction: 0x01270000
     ac0:	e8090000 	stmda	r9, {}	; <UNPREDICTABLE>
     ac4:	2e000006 	cdpcs	0, 0, cr0, cr0, cr6, {0}
     ac8:	0a000001 	beq	ad4 <xQueueGenericReceive+0x66>
     acc:	000006ee 	andeq	r0, r0, lr, ror #13
     ad0:	0000013a 	andeq	r0, r0, sl, lsr r1
     ad4:	000000da 	ldrdeq	r0, [r0], -sl
     ad8:	0250010b 	subseq	r0, r0, #-1073741822	; 0xc0000002
     adc:	09000074 	stmdbeq	r0, {r2, r4, r5, r6}
     ae0:	000006f4 	strdeq	r0, [r0], -r4
     ae4:	00000145 	andeq	r0, r0, r5, asr #2
     ae8:	044e0c00 	strbeq	r0, [lr], #-3072	; 0xfffff400
     aec:	7e010000 	cdpvc	0, 0, cr0, cr1, cr0, {0}
     af0:	000006f8 	strdeq	r0, [r0], -r8
     af4:	00000016 	andeq	r0, r0, r6, lsl r0
     af8:	012e9c01 			; <UNDEFINED> instruction: 0x012e9c01
     afc:	700d0000 	andvc	r0, sp, r0
     b00:	7e010076 	mcrvc	0, 0, r0, cr1, cr6, {3}
     b04:	0000007d 	andeq	r0, r0, sp, ror r0
     b08:	00000150 	andeq	r0, r0, r0, asr r1
     b0c:	00070209 	andeq	r0, r7, r9, lsl #4
     b10:	00012e00 	andeq	r2, r1, r0, lsl #28
     b14:	07080a00 	streq	r0, [r8, -r0, lsl #20]
     b18:	01510000 	cmpeq	r1, r0
     b1c:	01240000 			; <UNDEFINED> instruction: 0x01240000
     b20:	010b0000 	mrseq	r0, (UNDEF: 11)
     b24:	00740250 	rsbseq	r0, r4, r0, asr r2
     b28:	070c0900 	streq	r0, [ip, -r0, lsl #18]
     b2c:	01450000 	mrseq	r0, (UNDEF: 69)
     b30:	0e000000 	cdpeq	0, 0, cr0, cr0, cr0, {0}
     b34:	0000045d 	andeq	r0, r0, sp, asr r4
     b38:	0000045d 	andeq	r0, r0, sp, asr r4
     b3c:	0f03e502 	svceq	0x0003e502
     b40:	0000049e 	muleq	r0, lr, r4
     b44:	0000049e 	muleq	r0, lr, r4
     b48:	8f0e6803 	svchi	0x000e6803
     b4c:	8f000004 	svchi	0x00000004
     b50:	02000004 	andeq	r0, r0, #4
     b54:	580f041b 	stmdapl	pc, {r0, r1, r3, r4, sl}	; <UNPREDICTABLE>
     b58:	58000004 	stmdapl	r0, {r2}
     b5c:	03000004 	movweq	r0, #4
     b60:	1377005d 	cmnne	r7, #93	; 0x5d
     b64:	00040000 	andeq	r0, r4, r0
     b68:	0000038f 	andeq	r0, r0, pc, lsl #7
     b6c:	00670104 	rsbeq	r0, r7, r4, lsl #2
     b70:	270c0000 	strcs	r0, [ip, -r0]
     b74:	de000005 	cdple	0, 0, cr0, cr0, cr5, {0}
     b78:	58000002 	stmdapl	r0, {r1}
     b7c:	00000000 	andeq	r0, r0, r0
     b80:	28000000 	stmdacs	r0, {}	; <UNPREDICTABLE>
     b84:	02000004 	andeq	r0, r0, #4
     b88:	00000426 	andeq	r0, r0, r6, lsr #8
     b8c:	0030d802 	eorseq	sp, r0, r2, lsl #16
     b90:	04030000 	streq	r0, [r3], #-0
     b94:	0001ed07 	andeq	lr, r1, r7, lsl #26
     b98:	05040400 	streq	r0, [r4, #-1024]	; 0xfffffc00
     b9c:	00746e69 	rsbseq	r6, r4, r9, ror #28
     ba0:	00089602 	andeq	r9, r8, r2, lsl #12
     ba4:	491b0300 	ldmdbmi	fp, {r8, r9}
     ba8:	03000000 	movweq	r0, #0
     bac:	01d20601 	bicseq	r0, r2, r1, lsl #12
     bb0:	00020000 	andeq	r0, r2, r0
     bb4:	03000002 	movweq	r0, #2
     bb8:	00005b1d 	andeq	r5, r0, sp, lsl fp
     bbc:	08010300 	stmdaeq	r1, {r8, r9}
     bc0:	000001d0 	ldrdeq	r0, [r0], -r0	; <UNPREDICTABLE>
     bc4:	6d050203 	sfmvs	f0, 4, [r5, #-12]
     bc8:	03000001 	movweq	r0, #1
     bcc:	02150702 	andseq	r0, r5, #524288	; 0x80000
     bd0:	04030000 	streq	r0, [r3], #-0
     bd4:	00017c05 	andeq	r7, r1, r5, lsl #24
     bd8:	00530200 	subseq	r0, r3, r0, lsl #4
     bdc:	41030000 	mrsmi	r0, (UNDEF: 3)
     be0:	00000082 	andeq	r0, r0, r2, lsl #1
     be4:	e8070403 	stmda	r7, {r0, r1, sl}
     be8:	03000001 	movweq	r0, #1
     bec:	01770508 	cmneq	r7, r8, lsl #10
     bf0:	08030000 	stmdaeq	r3, {}	; <UNPREDICTABLE>
     bf4:	0001e307 	andeq	lr, r1, r7, lsl #6
     bf8:	07040300 	streq	r0, [r4, -r0, lsl #6]
     bfc:	00000185 	andeq	r0, r0, r5, lsl #3
     c00:	01030405 	tsteq	r3, r5, lsl #8
     c04:	0001d908 	andeq	sp, r1, r8, lsl #18
     c08:	ad040600 	stcge	6, cr0, [r4, #-0]
     c0c:	07000000 	streq	r0, [r0, -r0]
     c10:	00089802 	andeq	r9, r8, r2, lsl #16
     c14:	3e140400 	cfmulscc	mvf0, mvf4, mvf0
     c18:	02000000 	andeq	r0, r0, #0
     c1c:	00000202 	andeq	r0, r0, r2, lsl #4
     c20:	00501804 	subseq	r1, r0, r4, lsl #16
     c24:	55020000 	strpl	r0, [r2, #-0]
     c28:	04000000 	streq	r0, [r0], #-0
     c2c:	00007730 	andeq	r7, r0, r0, lsr r7
     c30:	03ef0200 	mvneq	r0, #0, 4
     c34:	79050000 	stmdbvc	r5, {}	; <UNPREDICTABLE>
     c38:	00000070 	andeq	r0, r0, r0, ror r0
     c3c:	0003ee02 	andeq	lr, r3, r2, lsl #28
     c40:	827a0500 	rsbshi	r0, sl, #0, 10
     c44:	02000000 	andeq	r0, r0, #0
     c48:	00000375 	andeq	r0, r0, r5, ror r3
     c4c:	00c48505 	sbceq	r8, r4, r5, lsl #10
     c50:	79080000 	stmdbvc	r8, {}	; <UNPREDICTABLE>
     c54:	14000005 	strne	r0, [r0], #-5
     c58:	0139b506 	teqeq	r9, r6, lsl #10
     c5c:	0c090000 	stceq	0, cr0, [r9], {-0}
     c60:	06000009 	streq	r0, [r0], -r9
     c64:	0000e5b8 			; <UNDEFINED> instruction: 0x0000e5b8
     c68:	39090000 	stmdbcc	r9, {}	; <UNPREDICTABLE>
     c6c:	06000008 	streq	r0, [r0], -r8
     c70:	000139b9 			; <UNDEFINED> instruction: 0x000139b9
     c74:	6c090400 	cfstrsvs	mvf0, [r9], {-0}
     c78:	06000006 	streq	r0, [r0], -r6
     c7c:	000139ba 			; <UNDEFINED> instruction: 0x000139ba
     c80:	08090800 	stmdaeq	r9, {fp}
     c84:	0600000a 	streq	r0, [r0], -sl
     c88:	00009ebb 			; <UNDEFINED> instruction: 0x00009ebb
     c8c:	d8090c00 	stmdale	r9, {sl, fp}
     c90:	06000008 	streq	r0, [r0], -r8
     c94:	00009ebc 			; <UNDEFINED> instruction: 0x00009ebc
     c98:	06001000 	streq	r1, [r0], -r0
     c9c:	0000f004 	andeq	pc, r0, r4
     ca0:	07d70200 	ldrbeq	r0, [r7, r0, lsl #4]
     ca4:	bf060000 	svclt	0x00060000
     ca8:	000000f0 	strdeq	r0, [r0], -r0	; <UNPREDICTABLE>
     cac:	0006aa08 	andeq	sl, r6, r8, lsl #20
     cb0:	c1060c00 	tstgt	r6, r0, lsl #24
     cb4:	0000017b 	andeq	r0, r0, fp, ror r1
     cb8:	00090c09 	andeq	r0, r9, r9, lsl #24
     cbc:	e5c40600 	strb	r0, [r4, #1536]	; 0x600
     cc0:	00000000 	andeq	r0, r0, r0
     cc4:	00083909 	andeq	r3, r8, r9, lsl #18
     cc8:	39c50600 	stmibcc	r5, {r9, sl}^
     ccc:	04000001 	streq	r0, [r0], #-1
     cd0:	00066c09 	andeq	r6, r6, r9, lsl #24
     cd4:	39c60600 	stmibcc	r6, {r9, sl}^
     cd8:	08000001 	stmdaeq	r0, {r0}
     cdc:	07d30200 	ldrbeq	r0, [r3, r0, lsl #4]
     ce0:	c8060000 	stmdagt	r6, {}	; <UNPREDICTABLE>
     ce4:	0000014a 	andeq	r0, r0, sl, asr #2
     ce8:	0006ba08 	andeq	fp, r6, r8, lsl #20
     cec:	cd061400 	cfstrsgt	mvf1, [r6, #-0]
     cf0:	000001b7 			; <UNDEFINED> instruction: 0x000001b7
     cf4:	0004a509 	andeq	sl, r4, r9, lsl #10
     cf8:	dad00600 	ble	ff402500 <__stack+0xdf3fc500>
     cfc:	00000000 	andeq	r0, r0, r0
     d00:	00054709 	andeq	r4, r5, r9, lsl #14
     d04:	b7d10600 	ldrblt	r0, [r1, r0, lsl #12]
     d08:	04000001 	streq	r0, [r0], #-1
     d0c:	00079509 	andeq	r9, r7, r9, lsl #10
     d10:	7bd20600 	blvc	ff482518 <__stack+0xdf47c518>
     d14:	08000001 	stmdaeq	r0, {r0}
     d18:	3f040600 	svccc	0x00040600
     d1c:	02000001 	andeq	r0, r0, #1
     d20:	00000885 	andeq	r0, r0, r5, lsl #17
     d24:	0186d406 	orreq	sp, r6, r6, lsl #8
     d28:	64080000 	strvs	r0, [r8], #-0
     d2c:	08000005 	stmdaeq	r0, {r0, r2}
     d30:	01ed8607 	mvneq	r8, r7, lsl #12
     d34:	c4090000 	strgt	r0, [r9], #-0
     d38:	07000005 	streq	r0, [r0, -r5]
     d3c:	0000cf88 	andeq	ip, r0, r8, lsl #31
     d40:	29090000 	stmdbcs	r9, {}	; <UNPREDICTABLE>
     d44:	07000008 	streq	r0, [r0, -r8]
     d48:	0000e589 	andeq	lr, r0, r9, lsl #11
     d4c:	02000400 	andeq	r0, r0, #0, 8
     d50:	0000084b 	andeq	r0, r0, fp, asr #16
     d54:	01c88a07 	biceq	r8, r8, r7, lsl #20
     d58:	99020000 	stmdbls	r2, {}	; <UNPREDICTABLE>
     d5c:	08000003 	stmdaeq	r0, {r0, r1}
     d60:	00009e58 	andeq	r9, r0, r8, asr lr
     d64:	01040a00 	tsteq	r4, r0, lsl #20
     d68:	00022288 	andeq	r2, r2, r8, lsl #5
     d6c:	06120b00 	ldreq	r0, [r2], -r0, lsl #22
     d70:	8a010000 	bhi	40d78 <__exidx_end+0x3efd0>
     d74:	00000222 	andeq	r0, r0, r2, lsr #4
     d78:	0009a40b 	andeq	sl, r9, fp, lsl #8
     d7c:	da8b0100 	ble	fe2c1184 <__stack+0xde2bb184>
     d80:	00000000 	andeq	r0, r0, r0
     d84:	00ae0406 	adceq	r0, lr, r6, lsl #8
     d88:	43080000 	movwmi	r0, #32768	; 0x8000
     d8c:	4c000006 	stcmi	0, cr0, [r0], {6}
     d90:	02b78201 	adcseq	r8, r7, #268435456	; 0x10000000
     d94:	2a090000 	bcs	240d9c <__exidx_end+0x23eff4>
     d98:	0100000a 	tsteq	r0, sl
     d9c:	00022284 	andeq	r2, r2, r4, lsl #5
     da0:	84090000 	strhi	r0, [r9], #-0
     da4:	01000009 	tsteq	r0, r9
     da8:	00022285 	andeq	r2, r2, r5, lsl #5
     dac:	8c090400 	cfstrshi	mvf0, [r9], {-0}
     db0:	01000008 	tsteq	r0, r8
     db4:	00022286 	andeq	r2, r2, r6, lsl #5
     db8:	750c0800 	strvc	r0, [ip, #-2048]	; 0xfffff800
     dbc:	038c0100 	orreq	r0, ip, #0, 2
     dc0:	0c000002 	stceq	0, cr0, [r0], {2}
     dc4:	00059909 	andeq	r9, r5, r9, lsl #18
     dc8:	bd8e0100 	stflts	f0, [lr]
     dcc:	10000001 	andne	r0, r0, r1
     dd0:	0004ee09 	andeq	lr, r4, r9, lsl #28
     dd4:	bd8f0100 	stflts	f0, [pc]	; ddc <xTaskGenericCreate+0xf0>
     dd8:	24000001 	strcs	r0, [r0], #-1
     ddc:	00067709 	andeq	r7, r6, r9, lsl #14
     de0:	b7910100 	ldrlt	r0, [r1, r0, lsl #2]
     de4:	38000002 	stmdacc	r0, {r1}
     de8:	0008e409 	andeq	lr, r8, r9, lsl #8
     dec:	da920100 	ble	fe4811f4 <__stack+0xde47b1f4>
     df0:	3c000000 	stccc	0, cr0, [r0], {-0}
     df4:	00072009 	andeq	r2, r7, r9
     df8:	da930100 	ble	fe4c1200 <__stack+0xde4bb200>
     dfc:	40000000 	andmi	r0, r0, r0
     e00:	00092909 	andeq	r2, r9, r9, lsl #18
     e04:	bc950100 	ldflts	f0, [r5], {0}
     e08:	44000002 	strmi	r0, [r0], #-2
     e0c:	000a3109 	andeq	r3, sl, r9, lsl #2
     e10:	bc960100 	ldflts	f0, [r6], {0}
     e14:	48000002 	stmdami	r0, {r1}
     e18:	00da0d00 	sbcseq	r0, sl, r0, lsl #26
     e1c:	cf0d0000 	svcgt	0x000d0000
     e20:	02000000 	andeq	r0, r0, #0
     e24:	00000a95 	muleq	r0, r5, sl
     e28:	0228a101 	eoreq	sl, r8, #1073741824	; 0x40000000
     e2c:	e6020000 	str	r0, [r2], -r0
     e30:	01000005 	tsteq	r0, r5
     e34:	0002c1a5 	andeq	ip, r2, r5, lsr #3
     e38:	06d90e00 	ldrbeq	r0, [r9], r0, lsl #28
     e3c:	f7010000 			; <UNDEFINED> instruction: 0xf7010000
     e40:	0000cf06 	andeq	ip, r0, r6, lsl #30
     e44:	00070e00 	andeq	r0, r7, r0, lsl #28
     e48:	00007200 	andeq	r7, r0, r0, lsl #4
     e4c:	4d9c0100 	ldfmis	f0, [ip]
     e50:	0f000003 	svceq	0x00000003
     e54:	0000098b 	andeq	r0, r0, fp, lsl #19
     e58:	5306f701 	movwpl	pc, #26369	; 0x6701	; <UNPREDICTABLE>
     e5c:	7c000003 	stcvc	0, cr0, [r0], {3}
     e60:	0f000001 	svceq	0x00000001
     e64:	00000931 	andeq	r0, r0, r1, lsr r9
     e68:	a706f701 	strge	pc, [r6, -r1, lsl #14]
     e6c:	d4000000 	strle	r0, [r0], #-0
     e70:	0f000001 	svceq	0x00000001
     e74:	00000ab3 			; <UNDEFINED> instruction: 0x00000ab3
     e78:	5806f701 	stmdapl	r6, {r0, r8, r9, sl, ip, sp, lr, pc}
     e7c:	27000003 	strcs	r0, [r0, -r3]
     e80:	10000002 	andne	r0, r0, r2
     e84:	0000073b 	andeq	r0, r0, fp, lsr r7
     e88:	cf06f901 	svcgt	0x0006f901
     e8c:	6c000000 	stcvs	0, cr0, [r0], {-0}
     e90:	11000002 	tstne	r0, r2
     e94:	00000726 	andeq	r0, r0, r6, lsr #14
     e98:	0000127a 	andeq	r1, r0, sl, ror r2
     e9c:	00073411 	andeq	r3, r7, r1, lsl r4
     ea0:	00128600 	andseq	r8, r2, r0, lsl #12
     ea4:	07501100 	ldrbeq	r1, [r0, -r0, lsl #2]
     ea8:	12860000 	addne	r0, r6, #0
     eac:	06000000 	streq	r0, [r0], -r0
     eb0:	0002cc04 	andeq	ip, r2, r4, lsl #24
     eb4:	034d1200 	movteq	r1, #53760	; 0xd200
     eb8:	cf120000 	svcgt	0x00120000
     ebc:	13000000 	movwne	r0, #0
     ec0:	000009db 	ldrdeq	r0, [r0], -fp
     ec4:	80074101 	andhi	r4, r7, r1, lsl #2
     ec8:	24000007 	strcs	r0, [r0], #-7
     ecc:	01000000 	mrseq	r0, (UNDEF: 0)
     ed0:	00039d9c 	muleq	r3, ip, sp
     ed4:	098b0f00 	stmibeq	fp, {r8, r9, sl, fp}
     ed8:	41010000 	mrsmi	r0, (UNDEF: 1)
     edc:	00035307 	andeq	r5, r3, r7, lsl #6
     ee0:	0002a200 	andeq	sl, r2, r0, lsl #4
     ee4:	06630f00 	strbteq	r0, [r3], -r0, lsl #30
     ee8:	41010000 	mrsmi	r0, (UNDEF: 1)
     eec:	00039d07 	andeq	r9, r3, r7, lsl #26
     ef0:	0002ce00 	andeq	ip, r2, r0, lsl #28
     ef4:	07a21100 	streq	r1, [r2, r0, lsl #2]!
     ef8:	12860000 	addne	r0, r6, #0
     efc:	12000000 	andne	r0, r0, #0
     f00:	0000009e 	muleq	r0, lr, r0
     f04:	000a5213 	andeq	r5, sl, r3, lsl r2
     f08:	07530100 	ldrbeq	r0, [r3, -r0, lsl #2]
     f0c:	000007a4 	andeq	r0, r0, r4, lsr #15
     f10:	0000006a 	andeq	r0, r0, sl, rrx
     f14:	04279c01 	strteq	r9, [r7], #-3073	; 0xfffff3ff
     f18:	8b0f0000 	blhi	3c0f20 <__exidx_end+0x3bf178>
     f1c:	01000009 	tsteq	r0, r9
     f20:	03530753 	cmpeq	r3, #21757952	; 0x14c0000
     f24:	02fa0000 	rscseq	r0, sl, #0
     f28:	ac110000 	ldcge	0, cr0, [r1], {-0}
     f2c:	91000007 	tstls	r0, r7
     f30:	14000012 	strne	r0, [r0], #-18	; 0xffffffee
     f34:	000007c0 	andeq	r0, r0, r0, asr #15
     f38:	0000129c 	muleq	r0, ip, r2
     f3c:	000003e5 	andeq	r0, r0, r5, ror #7
     f40:	02500115 	subseq	r0, r0, #1073741829	; 0x40000005
     f44:	11002474 	tstne	r0, r4, ror r4
     f48:	000007c8 	andeq	r0, r0, r8, asr #15
     f4c:	000012a8 	andeq	r1, r0, r8, lsr #5
     f50:	0007da11 	andeq	sp, r7, r1, lsl sl
     f54:	0012b400 	andseq	fp, r2, r0, lsl #8
     f58:	07de1100 	ldrbeq	r1, [lr, r0, lsl #2]
     f5c:	12910000 	addsne	r0, r1, #0
     f60:	f2140000 	vhadd.s16	d0, d4, d0
     f64:	9c000007 	stcls	0, cr0, [r0], {7}
     f68:	14000012 	strne	r0, [r0], #-18	; 0xffffffee
     f6c:	15000004 	strne	r0, [r0, #-4]
     f70:	74025001 	strvc	r5, [r2], #-1
     f74:	fa110010 	blx	440fbc <__exidx_end+0x43f214>
     f78:	a8000007 	stmdage	r0, {r0, r1, r2}
     f7c:	11000012 	tstne	r0, r2, lsl r0
     f80:	0000080c 	andeq	r0, r0, ip, lsl #16
     f84:	000012b4 			; <UNDEFINED> instruction: 0x000012b4
     f88:	0a611600 	beq	1846790 <__exidx_end+0x18449e8>
     f8c:	04010000 	streq	r0, [r1], #-0
     f90:	0000cf01 	andeq	ip, r0, r1, lsl #30
     f94:	00080e00 	andeq	r0, r8, r0, lsl #28
     f98:	00006800 	andeq	r6, r0, r0, lsl #16
     f9c:	d29c0100 	addsle	r0, ip, #0, 2
     fa0:	0f000004 	svceq	0x00000004
     fa4:	0000098c 	andeq	r0, r0, ip, lsl #19
     fa8:	f8010401 			; <UNDEFINED> instruction: 0xf8010401
     fac:	26000001 	strcs	r0, [r0], -r1
     fb0:	0f000003 	svceq	0x00000003
     fb4:	0000056f 	andeq	r0, r0, pc, ror #10
     fb8:	cf010401 	svcgt	0x00010401
     fbc:	68000000 	stmdavs	r0, {}	; <UNPREDICTABLE>
     fc0:	10000003 	andne	r0, r0, r3
     fc4:	0000098b 	andeq	r0, r0, fp, lsl #19
     fc8:	53010601 	movwpl	r0, #5633	; 0x1601
     fcc:	aa000003 	bge	fe0 <xTaskIncrementTick+0xc4>
     fd0:	11000003 	tstne	r0, r3
     fd4:	0000081c 	andeq	r0, r0, ip, lsl r8
     fd8:	000012bf 			; <UNDEFINED> instruction: 0x000012bf
     fdc:	00082211 	andeq	r2, r8, r1, lsl r2
     fe0:	00129100 	andseq	r9, r2, r0, lsl #2
     fe4:	08541400 	ldmdaeq	r4, {sl, ip}^
     fe8:	129c0000 	addsne	r0, ip, #0
     fec:	04970000 	ldreq	r0, [r7], #0
     ff0:	01150000 	tsteq	r5, r0
     ff4:	10740250 	rsbsne	r0, r4, r0, asr r2
     ff8:	085c1100 	ldmdaeq	ip, {r8, ip}^
     ffc:	12ca0000 	sbcne	r0, sl, #0
    1000:	66140000 	ldrvs	r0, [r4], -r0
    1004:	d5000008 	strle	r0, [r0, #-8]
    1008:	b4000012 	strlt	r0, [r0], #-18	; 0xffffffee
    100c:	15000004 	strne	r0, [r0, #-4]
    1010:	74025001 	strvc	r5, [r2], #-1
    1014:	6e140010 	mrcvs	0, 0, r0, cr4, cr0, {0}
    1018:	d5000008 	strle	r0, [r0, #-8]
    101c:	c8000012 	stmdagt	r0, {r1, r4}
    1020:	15000004 	strne	r0, [r0, #-4]
    1024:	74025001 	strvc	r5, [r2], #-1
    1028:	72110024 	andsvc	r0, r1, #36	; 0x24
    102c:	b4000008 	strlt	r0, [r0], #-8
    1030:	00000012 	andeq	r0, r0, r2, lsl r0
    1034:	0003a716 	andeq	sl, r3, r6, lsl r7
    1038:	01390100 	teqeq	r9, r0, lsl #2
    103c:	000001f8 	strdeq	r0, [r0], -r8
    1040:	00000876 	andeq	r0, r0, r6, ror r8
    1044:	0000004c 	andeq	r0, r0, ip, asr #32
    1048:	058d9c01 	streq	r9, [sp, #3073]	; 0xc01
    104c:	9f0f0000 	svcls	0x000f0000
    1050:	01000008 	tsteq	r0, r8
    1054:	058d0139 	streq	r0, [sp, #313]	; 0x139
    1058:	03ec0000 	mvneq	r0, #0
    105c:	200f0000 	andcs	r0, pc, r0
    1060:	01000007 	tsteq	r0, r7
    1064:	058d0139 	streq	r0, [sp, #313]	; 0x139
    1068:	042e0000 	strteq	r0, [lr], #-0
    106c:	6c0f0000 	stcvs	0, cr0, [pc], {-0}
    1070:	01000008 	tsteq	r0, r8
    1074:	05920139 	ldreq	r0, [r2, #313]	; 0x139
    1078:	04700000 	ldrbteq	r0, [r0], #-0
    107c:	6e100000 	cdpvs	0, 1, cr0, cr0, cr0, {0}
    1080:	01000005 	tsteq	r0, r5
    1084:	034d013b 	movteq	r0, #53563	; 0xd13b
    1088:	04aa0000 	strteq	r0, [sl], #0
    108c:	17100000 	ldrne	r0, [r0, -r0]
    1090:	01000009 	tsteq	r0, r9
    1094:	0025013c 	eoreq	r0, r5, ip, lsr r1
    1098:	04de0000 	ldrbeq	r0, [lr], #0
    109c:	3b100000 	blcc	4010a4 <__exidx_end+0x3ff2fc>
    10a0:	01000007 	tsteq	r0, r7
    10a4:	01f8013d 	mvnseq	r0, sp, lsr r1
    10a8:	04ff0000 	ldrbteq	r0, [pc], #0	; 10b0 <xTaskResumeAll+0x90>
    10ac:	c6100000 	ldrgt	r0, [r0], -r0
    10b0:	01000008 	tsteq	r0, r8
    10b4:	0222013e 	eoreq	r0, r2, #-2147483633	; 0x8000000f
    10b8:	05290000 	streq	r0, [r9, #-0]!
    10bc:	84110000 	ldrhi	r0, [r1], #-0
    10c0:	bf000008 	svclt	0x00000008
    10c4:	11000012 	tstne	r0, r2, lsl r0
    10c8:	00000898 	muleq	r0, r8, r8
    10cc:	000012e1 	andeq	r1, r0, r1, ror #5
    10d0:	0008b011 	andeq	fp, r8, r1, lsl r0
    10d4:	0012bf00 	andseq	fp, r2, r0, lsl #30
    10d8:	08be1700 	ldmeq	lr!, {r8, r9, sl, ip}
    10dc:	04270000 	strteq	r0, [r7], #-0
    10e0:	01150000 	tsteq	r5, r0
    10e4:	00740250 	rsbseq	r0, r4, r0, asr r2
    10e8:	01510115 	cmpeq	r1, r5, lsl r1
    10ec:	12000031 	andne	r0, r0, #49	; 0x31
    10f0:	000000da 	ldrdeq	r0, [r0], -sl
    10f4:	0000b912 	andeq	fp, r0, r2, lsl r9
    10f8:	08021600 	stmdaeq	r2, {r9, sl, ip}
    10fc:	cb010000 	blgt	41104 <__exidx_end+0x3f35c>
    1100:	00009e01 	andeq	r9, r0, r1, lsl #28
    1104:	00000000 	andeq	r0, r0, r0
    1108:	00001a00 	andeq	r1, r0, r0, lsl #20
    110c:	e49c0100 	ldr	r0, [ip], #256	; 0x100
    1110:	0f000005 	svceq	0x00000005
    1114:	00000689 	andeq	r0, r0, r9, lsl #13
    1118:	f801cb01 			; <UNDEFINED> instruction: 0xf801cb01
    111c:	68000001 	stmdavs	r0, {r0}
    1120:	10000005 	andne	r0, r0, r5
    1124:	0000073a 	andeq	r0, r0, sl, lsr r7
    1128:	9e01cd01 	cdpls	13, 0, cr12, cr1, cr1, {0}
    112c:	94000000 	strls	r0, [r0], #-0
    1130:	11000005 	tstne	r0, r5
    1134:	00000000 	andeq	r0, r0, r0
    1138:	00001291 	muleq	r0, r1, r2
    113c:	00000011 	andeq	r0, r0, r1, lsl r0
    1140:	0012b400 	andseq	fp, r2, r0, lsl #8
    1144:	bd160000 	ldclt	0, cr0, [r6, #-0]
    1148:	0100000a 	tsteq	r0, sl
    114c:	01f8024a 	mvnseq	r0, sl, asr #4
    1150:	00000000 	andeq	r0, r0, r0
    1154:	002e0000 	eoreq	r0, lr, r0
    1158:	9c010000 	stcls	0, cr0, [r1], {-0}
    115c:	00000662 	andeq	r0, r0, r2, ror #12
    1160:	0008400f 	andeq	r4, r8, pc
    1164:	024a0100 	subeq	r0, sl, #0, 2
    1168:	0000058d 	andeq	r0, r0, sp, lsl #11
    116c:	000005b2 			; <UNDEFINED> instruction: 0x000005b2
    1170:	00072b0f 	andeq	r2, r7, pc, lsl #22
    1174:	024a0100 	subeq	r0, sl, #0, 2
    1178:	0000058d 	andeq	r0, r0, sp, lsl #11
    117c:	00000605 	andeq	r0, r0, r5, lsl #12
    1180:	0006a210 	andeq	sl, r6, r0, lsl r2
    1184:	024c0100 	subeq	r0, ip, #0, 2
    1188:	000001f8 	strdeq	r0, [r0], -r8
    118c:	0000065b 	andeq	r0, r0, fp, asr r6
    1190:	00000011 	andeq	r0, r0, r1, lsl r0
    1194:	0012bf00 	andseq	fp, r2, r0, lsl #30
    1198:	00001100 	andeq	r1, r0, r0, lsl #2
    119c:	12bf0000 	adcsne	r0, pc, #0
    11a0:	00140000 	andseq	r0, r4, r0
    11a4:	d2000000 	andle	r0, r0, #0
    11a8:	58000004 	stmdapl	r0, {r2}
    11ac:	15000006 	strne	r0, [r0, #-6]
    11b0:	30015101 	andcc	r5, r1, r1, lsl #2
    11b4:	01520115 	cmpeq	r2, r5, lsl r1
    11b8:	00110032 	andseq	r0, r1, r2, lsr r0
    11bc:	bf000000 	svclt	0x00000000
    11c0:	00000012 	andeq	r0, r0, r2, lsl r0
    11c4:	00077418 	andeq	r7, r7, r8, lsl r4
    11c8:	07ed0100 	strbeq	r0, [sp, r0, lsl #2]!
    11cc:	000000cf 	andeq	r0, r0, pc, asr #1
    11d0:	00068c01 	andeq	r8, r6, r1, lsl #24
    11d4:	098b1900 	stmibeq	fp, {r8, fp, ip}
    11d8:	ed010000 	stc	0, cr0, [r1, #-0]
    11dc:	00068c07 	andeq	r8, r6, r7, lsl #24
    11e0:	073b1a00 	ldreq	r1, [fp, -r0, lsl #20]!
    11e4:	ef010000 	svc	0x00010000
    11e8:	0000cf07 	andeq	ip, r0, r7, lsl #30
    11ec:	04060000 	streq	r0, [r6], #-0
    11f0:	00000692 	muleq	r0, r2, r6
    11f4:	0002cc12 	andeq	ip, r2, r2, lsl ip
    11f8:	03631600 	cmneq	r3, #0, 12
    11fc:	65010000 	strvs	r0, [r1, #-0]
    1200:	0000cf02 	andeq	ip, r0, r2, lsl #30
    1204:	0008c200 	andeq	ip, r8, r0, lsl #4
    1208:	00012400 	andeq	r2, r1, r0, lsl #8
    120c:	c09c0100 	addsgt	r0, ip, r0, lsl #2
    1210:	0f000008 	svceq	0x00000008
    1214:	0000098c 	andeq	r0, r0, ip, lsl #19
    1218:	f8026501 			; <UNDEFINED> instruction: 0xf8026501
    121c:	79000001 	stmdbvc	r0, {r0}
    1220:	0f000006 	svceq	0x00000006
    1224:	00000931 	andeq	r0, r0, r1, lsr r9
    1228:	c0026501 	andgt	r6, r2, r1, lsl #10
    122c:	e7000008 	str	r0, [r0, -r8]
    1230:	0f000006 	svceq	0x00000006
    1234:	00001292 	muleq	r0, r2, r2
    1238:	e5026501 	str	r6, [r2, #-1281]	; 0xfffffaff
    123c:	57000000 	strpl	r0, [r0, -r0]
    1240:	0f000007 	svceq	0x00000007
    1244:	000005ee 	andeq	r0, r0, lr, ror #11
    1248:	58026501 	stmdapl	r2, {r0, r8, sl, sp, lr}
    124c:	d3000003 	movwle	r0, #3
    1250:	10000007 	andne	r0, r0, r7
    1254:	00000694 	muleq	r0, r4, r6
    1258:	cf026701 	svcgt	0x00026701
    125c:	15000000 	strne	r0, [r0, #-0]
    1260:	10000008 	andne	r0, r0, r8
    1264:	00000634 	andeq	r0, r0, r4, lsr r6
    1268:	cf026701 	svcgt	0x00026701
    126c:	63000000 	movwvs	r0, #0
    1270:	1b000008 	blne	1298 <xTaskRemoveFromEventList>
    1274:	0000101d 	andeq	r1, r0, sp, lsl r0
    1278:	ed026801 	stc	8, cr6, [r2, #-4]
    127c:	02000001 	andeq	r0, r0, #1
    1280:	8b106091 	blhi	4194cc <__exidx_end+0x417724>
    1284:	01000009 	tsteq	r0, r9
    1288:	03530269 	cmpeq	r3, #-1879048186	; 0x90000006
    128c:	08810000 	stmeq	r1, {}	; <UNPREDICTABLE>
    1290:	621c0000 	andsvs	r0, ip, #0
    1294:	46000006 	strmi	r0, [r0], -r6
    1298:	0c000009 	stceq	0, cr0, [r0], {9}
    129c:	01000000 	mrseq	r0, (UNDEF: 0)
    12a0:	07730301 	ldrbeq	r0, [r3, -r1, lsl #6]!
    12a4:	731d0000 	tstvc	sp, #0
    12a8:	ef000006 	svc	0x00000006
    12ac:	1e000008 	cdpne	0, 0, cr0, cr0, cr8, {0}
    12b0:	00000946 	andeq	r0, r0, r6, asr #18
    12b4:	0000000c 	andeq	r0, r0, ip
    12b8:	00067f1f 	andeq	r7, r6, pc, lsl pc
    12bc:	00090200 	andeq	r0, r9, r0, lsl #4
    12c0:	094a1100 	stmdbeq	sl, {r8, ip}^
    12c4:	12910000 	addsne	r0, r1, #0
    12c8:	52110000 	andspl	r0, r1, #0
    12cc:	b4000009 	strlt	r0, [r0], #-9
    12d0:	00000012 	andeq	r0, r0, r2, lsl r0
    12d4:	08d61100 	ldmeq	r6, {r8, ip}^
    12d8:	12bf0000 	adcsne	r0, pc, #0
    12dc:	e8110000 	ldmda	r1, {}	; <UNPREDICTABLE>
    12e0:	bf000008 	svclt	0x00000008
    12e4:	11000012 	tstne	r0, r2, lsl r0
    12e8:	000008f8 	strdeq	r0, [r0], -r8
    12ec:	000012bf 			; <UNDEFINED> instruction: 0x000012bf
    12f0:	0008fe11 	andeq	pc, r8, r1, lsl lr	; <UNPREDICTABLE>
    12f4:	0012ec00 	andseq	lr, r2, r0, lsl #24
    12f8:	09161400 	ldmdbeq	r6, {sl, ip}
    12fc:	12f80000 	rscsne	r0, r8, #0
    1300:	07ab0000 	streq	r0, [fp, r0]!
    1304:	01150000 	tsteq	r5, r0
    1308:	60910250 	addsvs	r0, r1, r0, asr r2
    130c:	091a1100 	ldmdbeq	sl, {r8, ip}
    1310:	12b40000 	adcsne	r0, r4, #0
    1314:	1e110000 	cdpne	0, 1, cr0, cr1, cr0, {0}
    1318:	04000009 	streq	r0, [r0], #-9
    131c:	11000013 	tstne	r0, r3, lsl r0
    1320:	00000922 	andeq	r0, r0, r2, lsr #18
    1324:	00001291 	muleq	r0, r1, r2
    1328:	00093a11 	andeq	r3, r9, r1, lsl sl
    132c:	0012b400 	andseq	fp, r2, r0, lsl #8
    1330:	09421400 	stmdbeq	r2, {sl, ip}^
    1334:	13100000 	tstne	r0, #0
    1338:	07e90000 	strbeq	r0, [r9, r0]!
    133c:	01150000 	tsteq	r5, r0
    1340:	60910250 	addsvs	r0, r1, r0, asr r2
    1344:	02510115 	subseq	r0, r1, #1073741829	; 0x40000005
    1348:	14005c91 	strne	r5, [r0], #-3217	; 0xfffff36f
    134c:	00000960 	andeq	r0, r0, r0, ror #18
    1350:	0000131c 	andeq	r1, r0, ip, lsl r3
    1354:	000007fd 	strdeq	r0, [r0], -sp
    1358:	02500115 	subseq	r0, r0, #1073741829	; 0x40000005
    135c:	14001074 	strne	r1, [r0], #-116	; 0xffffff8c
    1360:	00000966 	andeq	r0, r0, r6, ror #18
    1364:	000003a2 	andeq	r0, r0, r2, lsr #7
    1368:	00000811 	andeq	r0, r0, r1, lsl r8
    136c:	02500115 	subseq	r0, r0, #1073741829	; 0x40000005
    1370:	11000074 	tstne	r0, r4, ror r0
    1374:	0000096a 	andeq	r0, r0, sl, ror #18
    1378:	00001328 	andeq	r1, r0, r8, lsr #6
    137c:	00097411 	andeq	r7, r9, r1, lsl r4
    1380:	00129100 	andseq	r9, r2, r0, lsl #2
    1384:	098a1400 	stmibeq	sl, {sl, ip}
    1388:	02d70000 	sbcseq	r0, r7, #0
    138c:	08440000 	stmdaeq	r4, {}^	; <UNPREDICTABLE>
    1390:	01150000 	tsteq	r5, r0
    1394:	00740250 	rsbseq	r0, r4, r0, asr r2
    1398:	03510115 	cmpeq	r1, #1073741829	; 0x40000005
    139c:	1506007d 	strne	r0, [r6, #-125]	; 0xffffff83
    13a0:	75025201 	strvc	r5, [r2, #-513]	; 0xfffffdff
    13a4:	98140000 	ldmdals	r4, {}	; <UNPREDICTABLE>
    13a8:	9c000009 	stcls	0, cr0, [r0], {9}
    13ac:	58000012 	stmdapl	r0, {r1, r4}
    13b0:	15000008 	strne	r0, [r0, #-8]
    13b4:	74025001 	strvc	r5, [r2], #-1
    13b8:	a0110024 	andsge	r0, r1, r4, lsr #32
    13bc:	ca000009 	bgt	13e8 <vTaskPriorityInherit+0x24>
    13c0:	11000012 	tstne	r0, r2, lsl r0
    13c4:	000009aa 	andeq	r0, r0, sl, lsr #19
    13c8:	000012b4 			; <UNDEFINED> instruction: 0x000012b4
    13cc:	0009b811 	andeq	fp, r9, r1, lsl r8
    13d0:	0012b400 	andseq	fp, r2, r0, lsl #8
    13d4:	09c01100 	stmibeq	r0, {r8, ip}^
    13d8:	12ca0000 	sbcne	r0, sl, #0
    13dc:	c8140000 	ldmdagt	r4, {}	; <UNPREDICTABLE>
    13e0:	a2000009 	andge	r0, r0, #9
    13e4:	90000003 	andls	r0, r0, r3
    13e8:	15000008 	strne	r0, [r0, #-8]
    13ec:	74025001 	strvc	r5, [r2], #-1
    13f0:	cc110000 	ldcgt	0, cr0, [r1], {-0}
    13f4:	28000009 	stmdacs	r0, {r0, r3}
    13f8:	14000013 	strne	r0, [r0], #-19	; 0xffffffed
    13fc:	000009d4 	ldrdeq	r0, [r0], -r4
    1400:	000003a2 	andeq	r0, r0, r2, lsr #7
    1404:	000008ad 	andeq	r0, r0, sp, lsr #17
    1408:	02500115 	subseq	r0, r0, #1073741829	; 0x40000005
    140c:	11000074 	tstne	r0, r4, ror r0
    1410:	000009d8 	ldrdeq	r0, [r0], -r8
    1414:	00001328 	andeq	r1, r0, r8, lsr #6
    1418:	0009e011 	andeq	lr, r9, r1, lsl r0
    141c:	0012bf00 	andseq	fp, r2, r0, lsl #30
    1420:	a7120000 	ldrge	r0, [r2, -r0]
    1424:	16000000 	strne	r0, [r0], -r0
    1428:	00000817 	andeq	r0, r0, r7, lsl r8
    142c:	f8018a01 			; <UNDEFINED> instruction: 0xf8018a01
    1430:	00000001 	andeq	r0, r0, r1
    1434:	48000000 	stmdami	r0, {}	; <UNPREDICTABLE>
    1438:	01000000 	mrseq	r0, (UNDEF: 0)
    143c:	0009679c 	muleq	r9, ip, r7
    1440:	086c0f00 	stmdaeq	ip!, {r8, r9, sl, fp}^
    1444:	8a010000 	bhi	4144c <__exidx_end+0x3f6a4>
    1448:	00059201 	andeq	r9, r5, r1, lsl #4
    144c:	00091d00 	andeq	r1, r9, r0, lsl #26
    1450:	056e1000 	strbeq	r1, [lr, #-0]!
    1454:	8c010000 	stchi	0, cr0, [r1], {-0}
    1458:	00034d01 	andeq	r4, r3, r1, lsl #26
    145c:	00093e00 	andeq	r3, r9, r0, lsl #28
    1460:	00001400 	andeq	r1, r0, r0, lsl #8
    1464:	12e10000 	rscne	r0, r1, #0
    1468:	09130000 	ldmdbeq	r3, {}	; <UNPREDICTABLE>
    146c:	01150000 	tsteq	r5, r0
    1470:	4c080250 	sfmmi	f0, 4, [r8], {80}	; 0x50
    1474:	00001100 	andeq	r1, r0, r0, lsl #2
    1478:	12bf0000 	adcsne	r0, pc, #0
    147c:	00140000 	andseq	r0, r4, r0
    1480:	d5000000 	strle	r0, [r0, #-0]
    1484:	30000012 	andcc	r0, r0, r2, lsl r0
    1488:	15000009 	strne	r0, [r0, #-9]
    148c:	74025001 	strvc	r5, [r2], #-1
    1490:	00140010 	andseq	r0, r4, r0, lsl r0
    1494:	d5000000 	strle	r0, [r0, #-0]
    1498:	44000012 	strmi	r0, [r0], #-18	; 0xffffffee
    149c:	15000009 	strne	r0, [r0, #-9]
    14a0:	74025001 	strvc	r5, [r2], #-1
    14a4:	00170024 	andseq	r0, r7, r4, lsr #32
    14a8:	97000000 	strls	r0, [r0, -r0]
    14ac:	15000006 	strne	r0, [r0, #-6]
    14b0:	74025001 	strvc	r5, [r2], #-1
    14b4:	51011500 	tstpl	r1, r0, lsl #10
    14b8:	15007502 	strne	r7, [r0, #-1282]	; 0xfffffafe
    14bc:	75025201 	strvc	r5, [r2, #-513]	; 0xfffffdff
    14c0:	53011500 	movwpl	r1, #5376	; 0x1500
    14c4:	00007502 	andeq	r7, r0, r2, lsl #10
    14c8:	0a391600 	beq	e46cd0 <__exidx_end+0xe44f28>
    14cc:	e9010000 	stmdb	r1, {}	; <UNPREDICTABLE>
    14d0:	0000cf01 	andeq	ip, r0, r1, lsl #30
    14d4:	00000000 	andeq	r0, r0, r0
    14d8:	00003200 	andeq	r3, r0, r0, lsl #4
    14dc:	d49c0100 	ldrle	r0, [ip], #256	; 0x100
    14e0:	0f000009 	svceq	0x00000009
    14e4:	00000520 	andeq	r0, r0, r0, lsr #10
    14e8:	f801e901 			; <UNDEFINED> instruction: 0xf801e901
    14ec:	7d000001 	stcvc	0, cr0, [r0, #-4]
    14f0:	10000009 	andne	r0, r0, r9
    14f4:	0000073b 	andeq	r0, r0, fp, lsr r7
    14f8:	cf01eb01 	svcgt	0x0001eb01
    14fc:	bf000000 	svclt	0x00000000
    1500:	10000009 	andne	r0, r0, r9
    1504:	0000051f 	andeq	r0, r0, pc, lsl r5
    1508:	5301ec01 	movwpl	lr, #7169	; 0x1c01
    150c:	dd000003 	stcle	0, cr0, [r0, #-12]
    1510:	11000009 	tstne	r0, r9
    1514:	00000000 	andeq	r0, r0, r0
    1518:	000012bf 			; <UNDEFINED> instruction: 0x000012bf
    151c:	00000011 	andeq	r0, r0, r1, lsl r0
    1520:	00133400 	andseq	r3, r3, r0, lsl #8
    1524:	00001700 	andeq	r1, r0, r0, lsl #14
    1528:	06970000 	ldreq	r0, [r7], r0
    152c:	01150000 	tsteq	r5, r0
    1530:	00740250 	rsbseq	r0, r4, r0, asr r2
    1534:	c0160000 	andsgt	r0, r6, r0
    1538:	01000006 	tsteq	r0, r6
    153c:	00cf0422 	sbceq	r0, pc, r2, lsr #8
    1540:	09e60000 	stmibeq	r6!, {}^	; <UNPREDICTABLE>
    1544:	00880000 	addeq	r0, r8, r0
    1548:	9c010000 	stcls	0, cr0, [r1], {-0}
    154c:	00000ac9 	andeq	r0, r0, r9, asr #21
    1550:	00098c0f 	andeq	r8, r9, pc, lsl #24
    1554:	04220100 	strteq	r0, [r2], #-256	; 0xffffff00
    1558:	000001f8 	strdeq	r0, [r0], -r8
    155c:	00000a1f 	andeq	r0, r0, pc, lsl sl
    1560:	0009310f 	andeq	r3, r9, pc, lsl #2
    1564:	04220100 	strteq	r0, [r2], #-256	; 0xffffff00
    1568:	000008c0 	andeq	r0, r0, r0, asr #17
    156c:	00000a8d 	andeq	r0, r0, sp, lsl #21
    1570:	0005050f 	andeq	r0, r5, pc, lsl #10
    1574:	04220100 	strteq	r0, [r2], #-256	; 0xffffff00
    1578:	00000acf 	andeq	r0, r0, pc, asr #21
    157c:	00000af1 	strdeq	r0, [r0], -r1
    1580:	0005ee0f 	andeq	lr, r5, pc, lsl #28
    1584:	04220100 	strteq	r0, [r2], #-256	; 0xffffff00
    1588:	00000358 	andeq	r0, r0, r8, asr r3
    158c:	00000b5f 	andeq	r0, r0, pc, asr fp
    1590:	00073b10 	andeq	r3, r7, r0, lsl fp
    1594:	04240100 	strteq	r0, [r4], #-256	; 0xffffff00
    1598:	000000cf 	andeq	r0, r0, pc, asr #1
    159c:	00000ba1 	andeq	r0, r0, r1, lsr #23
    15a0:	00061d10 	andeq	r1, r6, r0, lsl sp
    15a4:	04250100 	strteq	r0, [r5], #-256	; 0xffffff00
    15a8:	000000da 	ldrdeq	r0, [r0], -sl
    15ac:	00000bbf 			; <UNDEFINED> instruction: 0x00000bbf
    15b0:	00098b10 	andeq	r8, r9, r0, lsl fp
    15b4:	04260100 	strteq	r0, [r6], #-256	; 0xffffff00
    15b8:	00000353 	andeq	r0, r0, r3, asr r3
    15bc:	00000bde 	ldrdeq	r0, [r0], -lr
    15c0:	0009f811 	andeq	pc, r9, r1, lsl r8	; <UNPREDICTABLE>
    15c4:	0012bf00 	andseq	fp, r2, r0, lsl #30
    15c8:	0a0a1100 	beq	2859d0 <__exidx_end+0x283c28>
    15cc:	12bf0000 	adcsne	r0, pc, #0
    15d0:	1a110000 	bne	4415d8 <__exidx_end+0x43f830>
    15d4:	bf00000a 	svclt	0x0000000a
    15d8:	11000012 	tstne	r0, r2, lsl r0
    15dc:	00000a20 	andeq	r0, r0, r0, lsr #20
    15e0:	000012bf 			; <UNDEFINED> instruction: 0x000012bf
    15e4:	000a3a14 	andeq	r3, sl, r4, lsl sl
    15e8:	0002d700 	andeq	sp, r2, r0, lsl #14
    15ec:	000aa300 	andeq	sl, sl, r0, lsl #6
    15f0:	50011500 	andpl	r1, r1, r0, lsl #10
    15f4:	15007402 	strne	r7, [r0, #-1026]	; 0xfffffbfe
    15f8:	7d035101 	stfvcs	f5, [r3, #-4]
    15fc:	01150600 	tsteq	r5, r0, lsl #12
    1600:	00760252 	rsbseq	r0, r6, r2, asr r2
    1604:	0a4e1400 	beq	138660c <__exidx_end+0x1384864>
    1608:	129c0000 	addsne	r0, ip, #0
    160c:	0ab70000 	beq	fedc1614 <__stack+0xdedbb614>
    1610:	01150000 	tsteq	r5, r0
    1614:	24740250 	ldrbtcs	r0, [r4], #-592	; 0xfffffdb0
    1618:	0a6a1700 	beq	1a87220 <__exidx_end+0x1a85478>
    161c:	13400000 	movtne	r0, #0
    1620:	01150000 	tsteq	r5, r0
    1624:	64910350 	ldrvs	r0, [r1], #848	; 0x350
    1628:	06000006 	streq	r0, [r0], -r6
    162c:	0000cf04 	andeq	ip, r0, r4, lsl #30
    1630:	0ac91200 	beq	ff245e38 <__stack+0xdf23fe38>
    1634:	83160000 	tsthi	r6, #0
    1638:	01000007 	tsteq	r0, r7
    163c:	00cf04b7 	strheq	r0, [pc], #71	; <UNPREDICTABLE>
    1640:	00000000 	andeq	r0, r0, r0
    1644:	00640000 	rsbeq	r0, r4, r0
    1648:	9c010000 	stcls	0, cr0, [r1], {-0}
    164c:	00000b7e 	andeq	r0, r0, lr, ror fp
    1650:	00098c0f 	andeq	r8, r9, pc, lsl #24
    1654:	04b70100 	ldrteq	r0, [r7], #256	; 0x100
    1658:	000001f8 	strdeq	r0, [r0], -r8
    165c:	00000c4c 	andeq	r0, r0, ip, asr #24
    1660:	0005050f 	andeq	r0, r5, pc, lsl #10
    1664:	04b70100 	ldrteq	r0, [r7], #256	; 0x100
    1668:	00000acf 	andeq	r0, r0, pc, asr #21
    166c:	00000ca4 	andeq	r0, r0, r4, lsr #25
    1670:	00073b10 	andeq	r3, r7, r0, lsl fp
    1674:	04b90100 	ldrteq	r0, [r9], #256	; 0x100
    1678:	000000cf 	andeq	r0, r0, pc, asr #1
    167c:	00000cfc 	strdeq	r0, [r0], -ip
    1680:	00061d10 	andeq	r1, r6, r0, lsl sp
    1684:	04ba0100 	ldrteq	r0, [sl], #256	; 0x100
    1688:	000000da 	ldrdeq	r0, [r0], -sl
    168c:	00000d1a 	andeq	r0, r0, sl, lsl sp
    1690:	00098b10 	andeq	r8, r9, r0, lsl fp
    1694:	04bb0100 	ldrteq	r0, [fp], #256	; 0x100
    1698:	00000353 	andeq	r0, r0, r3, asr r3
    169c:	00000d4e 	andeq	r0, r0, lr, asr #26
    16a0:	00000011 	andeq	r0, r0, r1, lsl r0
    16a4:	0012bf00 	andseq	fp, r2, r0, lsl #30
    16a8:	00001100 	andeq	r1, r0, r0, lsl #2
    16ac:	12bf0000 	adcsne	r0, pc, #0
    16b0:	00110000 	andseq	r0, r1, r0
    16b4:	bf000000 	svclt	0x00000000
    16b8:	14000012 	strne	r0, [r0], #-18	; 0xffffffee
    16bc:	00000000 	andeq	r0, r0, r0
    16c0:	0000129c 	muleq	r0, ip, r2
    16c4:	00000b6d 	andeq	r0, r0, sp, ror #22
    16c8:	02500115 	subseq	r0, r0, #1073741829	; 0x40000005
    16cc:	17002474 	smlsdxne	r0, r4, r4, r2
    16d0:	00000000 	andeq	r0, r0, r0
    16d4:	00001340 	andeq	r1, r0, r0, asr #6
    16d8:	02500115 	subseq	r0, r0, #1073741829	; 0x40000005
    16dc:	00000077 	andeq	r0, r0, r7, ror r0
    16e0:	00065318 	andeq	r5, r6, r8, lsl r3
    16e4:	07c60100 	strbeq	r0, [r6, r0, lsl #2]
    16e8:	000000cf 	andeq	r0, r0, pc, asr #1
    16ec:	000ba801 	andeq	sl, fp, r1, lsl #16
    16f0:	098b1900 	stmibeq	fp, {r8, fp, ip}
    16f4:	c6010000 	strgt	r0, [r1], -r0
    16f8:	00068c07 	andeq	r8, r6, r7, lsl #24
    16fc:	073b1a00 	ldreq	r1, [fp, -r0, lsl #20]!
    1700:	c8010000 	stmdagt	r1, {}	; <UNPREDICTABLE>
    1704:	0000cf07 	andeq	ip, r0, r7, lsl #30
    1708:	d2160000 	andsle	r0, r6, #0
    170c:	01000003 	tsteq	r0, r3
    1710:	00cf0551 	sbceq	r0, pc, r1, asr r5	; <UNPREDICTABLE>
    1714:	0a6e0000 	beq	1b8171c <__exidx_end+0x1b7f974>
    1718:	01460000 	mrseq	r0, (UNDEF: 70)
    171c:	9c010000 	stcls	0, cr0, [r1], {-0}
    1720:	00000df9 	strdeq	r0, [r0], -r9
    1724:	00098c0f 	andeq	r8, r9, pc, lsl #24
    1728:	05510100 	ldrbeq	r0, [r1, #-256]	; 0xffffff00
    172c:	000001f8 	strdeq	r0, [r0], -r8
    1730:	00000da6 	andeq	r0, r0, r6, lsr #27
    1734:	0006630f 	andeq	r6, r6, pc, lsl #6
    1738:	05510100 	ldrbeq	r0, [r1, #-256]	; 0xffffff00
    173c:	0000039d 	muleq	r0, sp, r3
    1740:	00000dfe 	strdeq	r0, [r0], -lr
    1744:	0012920f 	andseq	r9, r2, pc, lsl #4
    1748:	05510100 	ldrbeq	r0, [r1, #-256]	; 0xffffff00
    174c:	000000e5 	andeq	r0, r0, r5, ror #1
    1750:	00000e56 	andeq	r0, r0, r6, asr lr
    1754:	0008780f 	andeq	r7, r8, pc, lsl #16
    1758:	05510100 	ldrbeq	r0, [r1, #-256]	; 0xffffff00
    175c:	00000358 	andeq	r0, r0, r8, asr r3
    1760:	00000ebb 			; <UNDEFINED> instruction: 0x00000ebb
    1764:	00069410 	andeq	r9, r6, r0, lsl r4
    1768:	05530100 	ldrbeq	r0, [r3, #-256]	; 0xffffff00
    176c:	000000cf 	andeq	r0, r0, pc, asr #1
    1770:	00000efd 	strdeq	r0, [r0], -sp
    1774:	00101d1b 	andseq	r1, r0, fp, lsl sp
    1778:	05540100 	ldrbeq	r0, [r4, #-256]	; 0xffffff00
    177c:	000001ed 	andeq	r0, r0, sp, ror #3
    1780:	10609102 	rsbne	r9, r0, r2, lsl #2
    1784:	00000855 	andeq	r0, r0, r5, asr r8
    1788:	22055501 	andcs	r5, r5, #4194304	; 0x400000
    178c:	4b000002 	blmi	179c <prvTimerTask+0x170>
    1790:	1000000f 	andne	r0, r0, pc
    1794:	0000098b 	andeq	r0, r0, fp, lsl #19
    1798:	53055601 	movwpl	r5, #22017	; 0x5601
    179c:	5e000003 	cdppl	0, 0, cr0, cr0, cr3, {0}
    17a0:	1c00000f 	stcne	0, cr0, [r0], {15}
    17a4:	00000b7e 	andeq	r0, r0, lr, ror fp
    17a8:	00000ae0 	andeq	r0, r0, r0, ror #21
    17ac:	0000000a 	andeq	r0, r0, sl
    17b0:	8405dc01 	strhi	sp, [r5], #-3073	; 0xfffff3ff
    17b4:	1d00000c 	stcne	0, cr0, [r0, #-48]	; 0xffffffd0
    17b8:	00000b8f 	andeq	r0, r0, pc, lsl #23
    17bc:	00000fb6 			; <UNDEFINED> instruction: 0x00000fb6
    17c0:	000ae01e 	andeq	lr, sl, lr, lsl r0
    17c4:	00000a00 	andeq	r0, r0, r0, lsl #20
    17c8:	0b9b1f00 	bleq	fe6c93d0 <__stack+0xde6c33d0>
    17cc:	0fc90000 	svceq	0x00c90000
    17d0:	e4110000 	ldr	r0, [r1], #-0
    17d4:	9100000a 	tstls	r0, sl
    17d8:	11000012 	tstne	r0, r2, lsl r0
    17dc:	00000aea 	andeq	r0, r0, sl, ror #21
    17e0:	000012b4 			; <UNDEFINED> instruction: 0x000012b4
    17e4:	82110000 	andshi	r0, r1, #0
    17e8:	bf00000a 	svclt	0x0000000a
    17ec:	11000012 	tstne	r0, r2, lsl r0
    17f0:	00000a92 	muleq	r0, r2, sl
    17f4:	000012bf 			; <UNDEFINED> instruction: 0x000012bf
    17f8:	000a9811 	andeq	r9, sl, r1, lsl r8
    17fc:	0012ec00 	andseq	lr, r2, r0, lsl #24
    1800:	0ab01400 	beq	fec06808 <__stack+0xdec00808>
    1804:	12f80000 	rscsne	r0, r8, #0
    1808:	0cb30000 	ldceq	0, cr0, [r3]
    180c:	01150000 	tsteq	r5, r0
    1810:	60910250 	addsvs	r0, r1, r0, asr r2
    1814:	0ab41100 	beq	fed05c1c <__stack+0xdecffc1c>
    1818:	12b40000 	adcsne	r0, r4, #0
    181c:	b8110000 	ldmdalt	r1, {}	; <UNPREDICTABLE>
    1820:	0400000a 	streq	r0, [r0], #-10
    1824:	11000013 	tstne	r0, r3, lsl r0
    1828:	00000abc 			; <UNDEFINED> instruction: 0x00000abc
    182c:	00001291 	muleq	r0, r1, r2
    1830:	000ad411 	andeq	sp, sl, r1, lsl r4
    1834:	0012b400 	andseq	fp, r2, r0, lsl #8
    1838:	0adc1400 	beq	ff706840 <__stack+0xdf700840>
    183c:	13100000 	tstne	r0, #0
    1840:	0cf10000 	ldcleq	0, cr0, [r1]
    1844:	01150000 	tsteq	r5, r0
    1848:	60910250 	addsvs	r0, r1, r0, asr r2
    184c:	02510115 	subseq	r0, r1, #1073741829	; 0x40000005
    1850:	11005c91 			; <UNDEFINED> instruction: 0x11005c91
    1854:	00000af8 	strdeq	r0, [r0], -r8
    1858:	00001291 	muleq	r0, r1, r2
    185c:	000afe11 	andeq	pc, sl, r1, lsl lr	; <UNPREDICTABLE>
    1860:	00134b00 	andseq	r4, r3, r0, lsl #22
    1864:	0b021100 	bleq	85c6c <__exidx_end+0x83ec4>
    1868:	12b40000 	adcsne	r0, r4, #0
    186c:	0c140000 	ldceq	0, cr0, [r4], {-0}
    1870:	1c00000b 	stcne	0, cr0, [r0], {11}
    1874:	20000013 	andcs	r0, r0, r3, lsl r0
    1878:	1500000d 	strne	r0, [r0, #-13]
    187c:	74025001 	strvc	r5, [r2], #-1
    1880:	12140024 	andsne	r0, r4, #36	; 0x24
    1884:	a200000b 	andge	r0, r0, #11
    1888:	34000003 	strcc	r0, [r0], #-3
    188c:	1500000d 	strne	r0, [r0, #-13]
    1890:	74025001 	strvc	r5, [r2], #-1
    1894:	16110000 	ldrne	r0, [r1], -r0
    1898:	2800000b 	stmdacs	r0, {r0, r1, r3}
    189c:	11000013 	tstne	r0, r3, lsl r0
    18a0:	00000b20 	andeq	r0, r0, r0, lsr #22
    18a4:	00001291 	muleq	r0, r1, r2
    18a8:	000b3014 	andeq	r3, fp, r4, lsl r0
    18ac:	00035d00 	andeq	r5, r3, r0, lsl #26
    18b0:	000d6000 	andeq	r6, sp, r0
    18b4:	50011500 	andpl	r1, r1, r0, lsl #10
    18b8:	15007402 	strne	r7, [r0, #-1026]	; 0xfffffbfe
    18bc:	77025101 	strvc	r5, [r2, -r1, lsl #2]
    18c0:	46110000 	ldrmi	r0, [r1], -r0
    18c4:	5700000b 	strpl	r0, [r0, -fp]
    18c8:	14000013 	strne	r0, [r0], #-19	; 0xffffffed
    18cc:	00000b56 	andeq	r0, r0, r6, asr fp
    18d0:	0000129c 	muleq	r0, ip, r2
    18d4:	00000d7d 	andeq	r0, r0, sp, ror sp
    18d8:	02500115 	subseq	r0, r0, #1073741829	; 0x40000005
    18dc:	11001074 	tstne	r0, r4, ror r0
    18e0:	00000b5e 	andeq	r0, r0, lr, asr fp
    18e4:	000012ca 	andeq	r1, r0, sl, asr #5
    18e8:	000b7014 	andeq	r7, fp, r4, lsl r0
    18ec:	00129c00 	andseq	r9, r2, r0, lsl #24
    18f0:	000d9a00 	andeq	r9, sp, r0, lsl #20
    18f4:	50011500 	andpl	r1, r1, r0, lsl #10
    18f8:	00247402 	eoreq	r7, r4, r2, lsl #8
    18fc:	000b7811 	andeq	r7, fp, r1, lsl r8
    1900:	0012b400 	andseq	fp, r2, r0, lsl #8
    1904:	0b861100 	bleq	fe185d0c <__stack+0xde17fd0c>
    1908:	12b40000 	adcsne	r0, r4, #0
    190c:	8e110000 	cdphi	0, 1, cr0, cr1, cr0, {0}
    1910:	ca00000b 	bgt	1944 <vPortExitCritical+0x8>
    1914:	14000012 	strne	r0, [r0], #-18	; 0xffffffee
    1918:	00000b96 	muleq	r0, r6, fp
    191c:	000003a2 	andeq	r0, r0, r2, lsr #7
    1920:	00000dc9 	andeq	r0, r0, r9, asr #27
    1924:	02500115 	subseq	r0, r0, #1073741829	; 0x40000005
    1928:	11000074 	tstne	r0, r4, ror r0
    192c:	00000b9a 	muleq	r0, sl, fp
    1930:	00001328 	andeq	r1, r0, r8, lsr #6
    1934:	000ba214 	andeq	sl, fp, r4, lsl r2
    1938:	0003a200 	andeq	sl, r3, r0, lsl #4
    193c:	000de600 	andeq	lr, sp, r0, lsl #12
    1940:	50011500 	andpl	r1, r1, r0, lsl #10
    1944:	00007402 	andeq	r7, r0, r2, lsl #8
    1948:	000ba611 	andeq	sl, fp, r1, lsl r6
    194c:	00132800 	andseq	r2, r3, r0, lsl #16
    1950:	0bae1100 	bleq	feb85d58 <__stack+0xdeb7fd58>
    1954:	12bf0000 	adcsne	r0, pc, #0
    1958:	16000000 	strne	r0, [r0], -r0
    195c:	000008ad 	andeq	r0, r0, sp, lsr #17
    1960:	cf022001 	svcgt	0x00022001
    1964:	00000000 	andeq	r0, r0, r0
    1968:	3c000000 	stccc	0, cr0, [r0], {-0}
    196c:	01000000 	mrseq	r0, (UNDEF: 0)
    1970:	000e869c 	muleq	lr, ip, r6
    1974:	05200f00 	streq	r0, [r0, #-3840]!	; 0xfffff100
    1978:	20010000 	andcs	r0, r1, r0
    197c:	0001f802 	andeq	pc, r1, r2, lsl #16
    1980:	000fe300 	andeq	lr, pc, r0, lsl #6
    1984:	12920f00 	addsne	r0, r2, #0, 30
    1988:	20010000 	andcs	r0, r1, r0
    198c:	0000e502 	andeq	lr, r0, r2, lsl #10
    1990:	00102500 	andseq	r2, r0, r0, lsl #10
    1994:	073b1000 	ldreq	r1, [fp, -r0]!
    1998:	22010000 	andcs	r0, r1, #0
    199c:	0000cf02 	andeq	ip, r0, r2, lsl #30
    19a0:	00106700 	andseq	r6, r0, r0, lsl #14
    19a4:	051f1000 	ldreq	r1, [pc, #-0]	; 19ac <DAC0_IRQHandler>
    19a8:	23010000 	movwcs	r0, #4096	; 0x1000
    19ac:	00035302 	andeq	r5, r3, r2, lsl #6
    19b0:	00108600 	andseq	r8, r0, r0, lsl #12
    19b4:	00001100 	andeq	r1, r0, r0, lsl #2
    19b8:	12bf0000 	adcsne	r0, pc, #0
    19bc:	00110000 	andseq	r0, r1, r0
    19c0:	34000000 	strcc	r0, [r0], #-0
    19c4:	17000013 	smladne	r0, r3, r0, r0
    19c8:	00000000 	andeq	r0, r0, r0
    19cc:	00000ba8 	andeq	r0, r0, r8, lsr #23
    19d0:	02500115 	subseq	r0, r0, #1073741829	; 0x40000005
    19d4:	01150074 	tsteq	r5, r4, ror r0
    19d8:	15300151 	ldrne	r0, [r0, #-337]!	; 0xfffffeaf
    19dc:	75025201 	strvc	r5, [r2, #-513]	; 0xfffffdff
    19e0:	53011500 	movwpl	r1, #5376	; 0x1500
    19e4:	00003001 	andeq	r3, r0, r1
    19e8:	0004d916 	andeq	sp, r4, r6, lsl r9
    19ec:	060e0100 	streq	r0, [lr], -r0, lsl #2
    19f0:	000000cf 	andeq	r0, r0, pc, asr #1
    19f4:	00000000 	andeq	r0, r0, r0
    19f8:	00000074 	andeq	r0, r0, r4, ror r0
    19fc:	0f5a9c01 	svceq	0x005a9c01
    1a00:	8c0f0000 	stchi	0, cr0, [pc], {-0}
    1a04:	01000009 	tsteq	r0, r9
    1a08:	01f8060e 	mvnseq	r0, lr, lsl #12
    1a0c:	10c80000 	sbcne	r0, r8, r0
    1a10:	630f0000 	movwvs	r0, #61440	; 0xf000
    1a14:	01000006 	tsteq	r0, r6
    1a18:	039d060e 	orrseq	r0, sp, #14680064	; 0xe00000
    1a1c:	11520000 	cmpne	r2, r0
    1a20:	050f0000 	streq	r0, [pc, #-0]	; 1a28 <__aeabi_uidiv+0x6c>
    1a24:	01000005 	tsteq	r0, r5
    1a28:	0acf060e 	beq	ff3c3268 <__stack+0xdf3bd268>
    1a2c:	11aa0000 			; <UNDEFINED> instruction: 0x11aa0000
    1a30:	3b100000 	blcc	401a38 <__exidx_end+0x3ffc90>
    1a34:	01000007 	tsteq	r0, r7
    1a38:	00cf0610 	sbceq	r0, pc, r0, lsl r6	; <UNPREDICTABLE>
    1a3c:	12020000 	andne	r0, r2, #0
    1a40:	1d100000 	ldcne	0, cr0, [r0, #-0]
    1a44:	01000006 	tsteq	r0, r6
    1a48:	00da0611 	sbcseq	r0, sl, r1, lsl r6
    1a4c:	12200000 	eorne	r0, r0, #0
    1a50:	8b100000 	blhi	401a58 <__exidx_end+0x3ffcb0>
    1a54:	01000009 	tsteq	r0, r9
    1a58:	03530612 	cmpeq	r3, #18874368	; 0x1200000
    1a5c:	12540000 	subsne	r0, r4, #0
    1a60:	00110000 	andseq	r0, r1, r0
    1a64:	bf000000 	svclt	0x00000000
    1a68:	11000012 	tstne	r0, r2, lsl r0
    1a6c:	00000000 	andeq	r0, r0, r0
    1a70:	000012bf 			; <UNDEFINED> instruction: 0x000012bf
    1a74:	00000011 	andeq	r0, r0, r1, lsl r0
    1a78:	0012bf00 	andseq	fp, r2, r0, lsl #30
    1a7c:	00001400 	andeq	r1, r0, r0, lsl #8
    1a80:	035d0000 	cmpeq	sp, #0
    1a84:	0f350000 	svceq	0x00350000
    1a88:	01150000 	tsteq	r5, r0
    1a8c:	00740250 	rsbseq	r0, r4, r0, asr r2
    1a90:	02510115 	subseq	r0, r1, #1073741829	; 0x40000005
    1a94:	14000075 	strne	r0, [r0], #-117	; 0xffffff8b
    1a98:	00000000 	andeq	r0, r0, r0
    1a9c:	0000129c 	muleq	r0, ip, r2
    1aa0:	00000f49 	andeq	r0, r0, r9, asr #30
    1aa4:	02500115 	subseq	r0, r0, #1073741829	; 0x40000005
    1aa8:	17001074 	smlsdxne	r0, r4, r0, r1
    1aac:	00000000 	andeq	r0, r0, r0
    1ab0:	00001340 	andeq	r1, r0, r0, asr #6
    1ab4:	02500115 	subseq	r0, r0, #1073741829	; 0x40000005
    1ab8:	00000076 	andeq	r0, r0, r6, ror r0
    1abc:	0009b916 	andeq	fp, r9, r6, lsl r9
    1ac0:	06650100 	strbteq	r0, [r5], -r0, lsl #2
    1ac4:	000000cf 	andeq	r0, r0, pc, asr #1
    1ac8:	00000000 	andeq	r0, r0, r0
    1acc:	00000052 	andeq	r0, r0, r2, asr r0
    1ad0:	10239c01 	eorne	r9, r3, r1, lsl #24
    1ad4:	8c0f0000 	stchi	0, cr0, [pc], {-0}
    1ad8:	01000009 	tsteq	r0, r9
    1adc:	01f80665 	mvnseq	r0, r5, ror #12
    1ae0:	12de0000 	sbcsne	r0, lr, #0
    1ae4:	630f0000 	movwvs	r0, #61440	; 0xf000
    1ae8:	01000006 	tsteq	r0, r6
    1aec:	039d0665 	orrseq	r0, sp, #105906176	; 0x6500000
    1af0:	134c0000 	movtne	r0, #49152	; 0xc000
    1af4:	3b100000 	blcc	401afc <__exidx_end+0x3ffd54>
    1af8:	01000007 	tsteq	r0, r7
    1afc:	00cf0667 	sbceq	r0, pc, r7, ror #12
    1b00:	13ba0000 			; <UNDEFINED> instruction: 0x13ba0000
    1b04:	1d100000 	ldcne	0, cr0, [r0, #-0]
    1b08:	01000006 	tsteq	r0, r6
    1b0c:	00da0668 	sbcseq	r0, sl, r8, ror #12
    1b10:	13e40000 	mvnne	r0, #0
    1b14:	55100000 	ldrpl	r0, [r0, #-0]
    1b18:	01000008 	tsteq	r0, r8
    1b1c:	02220669 	eoreq	r0, r2, #110100480	; 0x6900000
    1b20:	14020000 	strne	r0, [r2], #-0
    1b24:	8b100000 	blhi	401b2c <__exidx_end+0x3ffd84>
    1b28:	01000009 	tsteq	r0, r9
    1b2c:	0353066a 	cmpeq	r3, #111149056	; 0x6a00000
    1b30:	14150000 	ldrne	r0, [r5], #-0
    1b34:	00110000 	andseq	r0, r1, r0
    1b38:	bf000000 	svclt	0x00000000
    1b3c:	11000012 	tstne	r0, r2, lsl r0
    1b40:	00000000 	andeq	r0, r0, r0
    1b44:	000012bf 			; <UNDEFINED> instruction: 0x000012bf
    1b48:	00000011 	andeq	r0, r0, r1, lsl r0
    1b4c:	0012bf00 	andseq	fp, r2, r0, lsl #30
    1b50:	00001100 	andeq	r1, r0, r0, lsl #2
    1b54:	12bf0000 	adcsne	r0, pc, #0
    1b58:	00140000 	andseq	r0, r4, r0
    1b5c:	5d000000 	stcpl	0, cr0, [r0, #-0]
    1b60:	12000003 	andne	r0, r0, #3
    1b64:	15000010 	strne	r0, [r0, #-16]
    1b68:	74025001 	strvc	r5, [r2], #-1
    1b6c:	51011500 	tstpl	r1, r0, lsl #10
    1b70:	00007602 	andeq	r7, r0, r2, lsl #12
    1b74:	00000017 	andeq	r0, r0, r7, lsl r0
    1b78:	00134000 	andseq	r4, r3, r0
    1b7c:	50011500 	andpl	r1, r1, r0, lsl #10
    1b80:	00007702 	andeq	r7, r0, r2, lsl #14
    1b84:	096d1600 	stmdbeq	sp!, {r9, sl, ip}^
    1b88:	9b010000 	blls	41b90 <__exidx_end+0x3fde8>
    1b8c:	0000da06 	andeq	sp, r0, r6, lsl #20
    1b90:	00000000 	andeq	r0, r0, r0
    1b94:	00001a00 	andeq	r1, r0, r0, lsl #20
    1b98:	799c0100 	ldmibvc	ip, {r8}
    1b9c:	0f000010 	svceq	0x00000010
    1ba0:	0000098c 	andeq	r0, r0, ip, lsl #19
    1ba4:	79069b01 	stmdbvc	r6, {r0, r8, r9, fp, ip, pc}
    1ba8:	83000010 	movwhi	r0, #16
    1bac:	10000014 	andne	r0, r0, r4, lsl r0
    1bb0:	000005fc 	strdeq	r0, [r0], -ip
    1bb4:	da069d01 	ble	1a8fc0 <__exidx_end+0x1a7218>
    1bb8:	c5000000 	strgt	r0, [r0, #-0]
    1bbc:	11000014 	tstne	r0, r4, lsl r0
    1bc0:	00000000 	andeq	r0, r0, r0
    1bc4:	000012bf 			; <UNDEFINED> instruction: 0x000012bf
    1bc8:	00000011 	andeq	r0, r0, r1, lsl r0
    1bcc:	00129100 	andseq	r9, r2, r0, lsl #2
    1bd0:	00001100 	andeq	r1, r0, r0, lsl #2
    1bd4:	12b40000 	adcsne	r0, r4, #0
    1bd8:	12000000 	andne	r0, r0, #0
    1bdc:	000001f8 	strdeq	r0, [r0], -r8
    1be0:	0005ad16 	andeq	sl, r5, r6, lsl sp
    1be4:	06ab0100 	strteq	r0, [fp], r0, lsl #2
    1be8:	000000da 	ldrdeq	r0, [r0], -sl
    1bec:	00000000 	andeq	r0, r0, r0
    1bf0:	0000001e 	andeq	r0, r0, lr, lsl r0
    1bf4:	10e49c01 	rscne	r9, r4, r1, lsl #24
    1bf8:	8c0f0000 	stchi	0, cr0, [pc], {-0}
    1bfc:	01000009 	tsteq	r0, r9
    1c00:	107906ab 	rsbsne	r0, r9, fp, lsr #13
    1c04:	14e30000 	strbtne	r0, [r3], #0
    1c08:	fc100000 	ldc2	0, cr0, [r0], {-0}
    1c0c:	01000005 	tsteq	r0, r5
    1c10:	00da06ad 	sbcseq	r0, sl, sp, lsr #13
    1c14:	15250000 	strne	r0, [r5, #-0]!
    1c18:	8b100000 	blhi	401c20 <__exidx_end+0x3ffe78>
    1c1c:	01000009 	tsteq	r0, r9
    1c20:	034d06ae 	movteq	r0, #54958	; 0xd6ae
    1c24:	15430000 	strbne	r0, [r3, #-0]
    1c28:	00110000 	andseq	r0, r1, r0
    1c2c:	bf000000 	svclt	0x00000000
    1c30:	11000012 	tstne	r0, r2, lsl r0
    1c34:	00000000 	andeq	r0, r0, r0
    1c38:	00001291 	muleq	r0, r1, r2
    1c3c:	00000011 	andeq	r0, r0, r1, lsl r0
    1c40:	0012b400 	andseq	fp, r2, r0, lsl #8
    1c44:	b5160000 	ldrlt	r0, [r6, #-0]
    1c48:	01000007 	tsteq	r0, r7
    1c4c:	00da06bd 	ldrheq	r0, [sl], #109	; 0x6d
    1c50:	00000000 	andeq	r0, r0, r0
    1c54:	00100000 	andseq	r0, r0, r0
    1c58:	9c010000 	stcls	0, cr0, [r1], {-0}
    1c5c:	00001126 	andeq	r1, r0, r6, lsr #2
    1c60:	00098c0f 	andeq	r8, r9, pc, lsl #24
    1c64:	06bd0100 	ldrteq	r0, [sp], r0, lsl #2
    1c68:	00001079 	andeq	r1, r0, r9, ror r0
    1c6c:	00001585 	andeq	r1, r0, r5, lsl #11
    1c70:	0005fc1b 	andeq	pc, r5, fp, lsl ip	; <UNPREDICTABLE>
    1c74:	06bf0100 	ldrteq	r0, [pc], r0, lsl #2
    1c78:	000000da 	ldrdeq	r0, [r0], -sl
    1c7c:	00115001 	andseq	r5, r1, r1
    1c80:	bf000000 	svclt	0x00000000
    1c84:	00000012 	andeq	r0, r0, r2, lsl r0
    1c88:	00060520 	andeq	r0, r6, r0, lsr #10
    1c8c:	06c90100 	strbeq	r0, [r9], r0, lsl #2
    1c90:	00000000 	andeq	r0, r0, r0
    1c94:	00000012 	andeq	r0, r0, r2, lsl r0
    1c98:	116f9c01 	cmnne	pc, r1, lsl #24
    1c9c:	8c0f0000 	stchi	0, cr0, [pc], {-0}
    1ca0:	01000009 	tsteq	r0, r9
    1ca4:	01f806c9 	mvnseq	r0, r9, asr #13
    1ca8:	15bf0000 	ldrne	r0, [pc, #0]!	; 1cb0 <_malloc_r+0x80>
    1cac:	8b100000 	blhi	401cb4 <__exidx_end+0x3fff0c>
    1cb0:	01000009 	tsteq	r0, r9
    1cb4:	035306cb 	cmpeq	r3, #212860928	; 0xcb00000
    1cb8:	15f90000 	ldrbne	r0, [r9, #0]!
    1cbc:	00110000 	andseq	r0, r1, r0
    1cc0:	bf000000 	svclt	0x00000000
    1cc4:	11000012 	tstne	r0, r2, lsl r0
    1cc8:	00000000 	andeq	r0, r0, r0
    1ccc:	00001363 	andeq	r1, r0, r3, ror #6
    1cd0:	0a741600 	beq	1d074d8 <__exidx_end+0x1d05730>
    1cd4:	db010000 	blle	41cdc <__exidx_end+0x3ff34>
    1cd8:	0000cf07 	andeq	ip, r0, r7, lsl #30
    1cdc:	00000000 	andeq	r0, r0, r0
    1ce0:	00001400 	andeq	r1, r0, r0, lsl #8
    1ce4:	b39c0100 	orrslt	r0, ip, #0, 2
    1ce8:	0f000011 	svceq	0x00000011
    1cec:	0000098c 	andeq	r0, r0, ip, lsl #19
    1cf0:	7907db01 	stmdbvc	r7, {r0, r8, r9, fp, ip, lr, pc}
    1cf4:	33000010 	movwcc	r0, #16
    1cf8:	10000016 	andne	r0, r0, r6, lsl r0
    1cfc:	0000073b 	andeq	r0, r0, fp, lsr r7
    1d00:	cf07dd01 	svcgt	0x0007dd01
    1d04:	6d000000 	stcvs	0, cr0, [r0, #-0]
    1d08:	11000016 	tstne	r0, r6, lsl r0
    1d0c:	00000000 	andeq	r0, r0, r0
    1d10:	000012bf 			; <UNDEFINED> instruction: 0x000012bf
    1d14:	09541600 	ldmdbeq	r4, {r9, sl, ip}^
    1d18:	02010000 	andeq	r0, r1, #0
    1d1c:	0000cf08 	andeq	ip, r0, r8, lsl #30
    1d20:	00000000 	andeq	r0, r0, r0
    1d24:	00001800 	andeq	r1, r0, r0, lsl #16
    1d28:	f79c0100 			; <UNDEFINED> instruction: 0xf79c0100
    1d2c:	0f000011 	svceq	0x00000011
    1d30:	0000098c 	andeq	r0, r0, ip, lsl #19
    1d34:	79080201 	stmdbvc	r8, {r0, r9}
    1d38:	87000010 	smladhi	r0, r0, r0, r0
    1d3c:	10000016 	andne	r0, r0, r6, lsl r0
    1d40:	0000073b 	andeq	r0, r0, fp, lsr r7
    1d44:	cf080401 	svcgt	0x00080401
    1d48:	c1000000 	mrsgt	r0, (UNDEF: 0)
    1d4c:	11000016 	tstne	r0, r6, lsl r0
    1d50:	00000000 	andeq	r0, r0, r0
    1d54:	000012bf 			; <UNDEFINED> instruction: 0x000012bf
    1d58:	08ed2000 	stmiaeq	sp!, {sp}^
    1d5c:	61010000 	mrsvs	r0, (UNDEF: 1)
    1d60:	000bb409 	andeq	fp, fp, r9, lsl #8
    1d64:	00003a00 	andeq	r3, r0, r0, lsl #20
    1d68:	7a9c0100 	bvc	fe702170 <__stack+0xde6fc170>
    1d6c:	0f000012 	svceq	0x00000012
    1d70:	0000098c 	andeq	r0, r0, ip, lsl #19
    1d74:	f8096101 			; <UNDEFINED> instruction: 0xf8096101
    1d78:	f3000001 	vhadd.u8	d0, d0, d1
    1d7c:	0f000016 	svceq	0x00000016
    1d80:	00001292 	muleq	r0, r2, r2
    1d84:	e5096101 	str	r6, [r9, #-257]	; 0xfffffeff
    1d88:	1f000000 	svcne	0x00000000
    1d8c:	10000017 	andne	r0, r0, r7, lsl r0
    1d90:	0000098b 	andeq	r0, r0, fp, lsl #19
    1d94:	53096301 	movwpl	r6, #37633	; 0x9301
    1d98:	4b000003 	blmi	1dac <__exidx_end+0x4>
    1d9c:	11000017 	tstne	r0, r7, lsl r0
    1da0:	00000bbe 			; <UNDEFINED> instruction: 0x00000bbe
    1da4:	00001291 	muleq	r0, r1, r2
    1da8:	000bd611 	andeq	sp, fp, r1, lsl r6
    1dac:	0012b400 	andseq	fp, r2, r0, lsl #8
    1db0:	0be61400 	bleq	ff986db8 <__stack+0xdf980db8>
    1db4:	136e0000 	cmnne	lr, #0
    1db8:	12690000 	rsbne	r0, r9, #0
    1dbc:	01150000 	tsteq	r5, r0
    1dc0:	24740250 	ldrbtcs	r0, [r4], #-592	; 0xfffffdb0
    1dc4:	02510115 	subseq	r0, r1, #1073741829	; 0x40000005
    1dc8:	17000075 	smlsdxne	r0, r5, r0, r0
    1dcc:	00000bec 	andeq	r0, r0, ip, ror #23
    1dd0:	000003a2 	andeq	r0, r0, r2, lsr #7
    1dd4:	02500115 	subseq	r0, r0, #1073741829	; 0x40000005
    1dd8:	00000074 	andeq	r0, r0, r4, ror r0
    1ddc:	00074321 	andeq	r4, r7, r1, lsr #6
    1de0:	00074300 	andeq	r4, r7, r0, lsl #6
    1de4:	07970700 	ldreq	r0, [r7, r0, lsl #14]
    1de8:	000a8e22 	andeq	r8, sl, r2, lsr #28
    1dec:	000a8e00 	andeq	r8, sl, r0, lsl #28
    1df0:	221b0900 	andscs	r0, fp, #0, 18
    1df4:	000005d3 	ldrdeq	r0, [r0], -r3
    1df8:	000005d3 	ldrdeq	r0, [r0], -r3
    1dfc:	5b21cb05 	blpl	874a18 <__exidx_end+0x872c70>
    1e00:	5b000007 	blpl	1e24 <__exidx_end+0x7c>
    1e04:	07000007 	streq	r0, [r0, -r7]
    1e08:	9321075e 			; <UNDEFINED> instruction: 0x9321075e
    1e0c:	93000009 	movwls	r0, #9
    1e10:	07000009 	streq	r0, [r0, -r9]
    1e14:	b5220785 	strlt	r0, [r2, #-1925]!	; 0xfffff87b
    1e18:	b5000004 	strlt	r0, [r0, #-4]
    1e1c:	05000004 	streq	r0, [r0, #-4]
    1e20:	079e22cc 	ldreq	r2, [lr, ip, asr #5]
    1e24:	079e0000 	ldreq	r0, [lr, r0]
    1e28:	a2050000 	andge	r0, r5, #0
    1e2c:	0004c722 	andeq	ip, r4, r2, lsr #14
    1e30:	0004c700 	andeq	ip, r4, r0, lsl #14
    1e34:	21de0500 	bicscs	r0, lr, r0, lsl #10
    1e38:	000009cb 	andeq	r0, r0, fp, asr #19
    1e3c:	000009cb 	andeq	r0, r0, fp, asr #19
    1e40:	22018206 	andcs	r8, r1, #1610612736	; 0x60000000
    1e44:	0000046d 	andeq	r0, r0, sp, ror #8
    1e48:	0000046d 	andeq	r0, r0, sp, ror #8
    1e4c:	9c21a30a 	stcls	3, cr10, [r1], #-40	; 0xffffffd8
    1e50:	9c00000a 	stcls	0, cr0, [r0], {10}
    1e54:	0700000a 	streq	r0, [r0, -sl]
    1e58:	8421078b 	strthi	r0, [r1], #-1931	; 0xfffff875
    1e5c:	84000005 	strhi	r0, [r0], #-5
    1e60:	07000005 	streq	r0, [r0, -r5]
    1e64:	5d210779 	stcpl	7, cr0, [r1, #-484]!	; 0xfffffe1c
    1e68:	5d000004 	stcpl	0, cr0, [r0, #-16]
    1e6c:	07000004 	streq	r0, [r0, -r4]
    1e70:	3f2103e5 	svccc	0x002103e5
    1e74:	3f000009 	svccc	0x00000009
    1e78:	07000009 	streq	r0, [r0, -r9]
    1e7c:	ec21077f 	stc	7, cr0, [r1], #-508	; 0xfffffe04
    1e80:	ec000006 	stc	0, cr0, [r0], {6}
    1e84:	07000006 	streq	r0, [r0, -r6]
    1e88:	8f210736 	svchi	0x00210736
    1e8c:	8f000004 	svchi	0x00000004
    1e90:	07000004 	streq	r0, [r0, -r4]
    1e94:	1021041b 	eorne	r0, r1, fp, lsl r4
    1e98:	1000000a 	andne	r0, r0, sl
    1e9c:	0700000a 	streq	r0, [r0, -sl]
    1ea0:	f0220774 			; <UNDEFINED> instruction: 0xf0220774
    1ea4:	f0000009 			; <UNDEFINED> instruction: 0xf0000009
    1ea8:	05000009 	streq	r0, [r0, #-9]
    1eac:	054f21a3 	strbeq	r2, [pc, #-419]	; 1d11 <_sbrk_r+0x21>
    1eb0:	054f0000 	strbeq	r0, [pc, #-0]	; 1eb8 <__exidx_end+0x110>
    1eb4:	91070000 	mrsls	r0, (UNDEF: 7)
    1eb8:	07022107 	streq	r2, [r2, -r7, lsl #2]
    1ebc:	07020000 	streq	r0, [r2, -r0]
    1ec0:	c8070000 	stmdagt	r7, {}	; <UNPREDICTABLE>
    1ec4:	044e2207 	strbeq	r2, [lr], #-519	; 0xfffffdf9
    1ec8:	044e0000 	strbeq	r0, [lr], #-0
    1ecc:	a40a0000 	strge	r0, [sl], #-0
    1ed0:	0007e221 	andeq	lr, r7, r1, lsr #4
    1ed4:	0007e200 	andeq	lr, r7, r0, lsl #4
    1ed8:	07440700 	strbeq	r0, [r4, -r0, lsl #14]
    1edc:	00029600 	andeq	r9, r2, r0, lsl #12
    1ee0:	6f000400 	svcvs	0x00000400
    1ee4:	04000005 	streq	r0, [r0], #-5
    1ee8:	00006701 	andeq	r6, r0, r1, lsl #14
    1eec:	0b450c00 	bleq	1144ef4 <__exidx_end+0x114314c>
    1ef0:	02de0000 	sbcseq	r0, lr, #0
    1ef4:	01180000 	tsteq	r8, r0
    1ef8:	00000000 	andeq	r0, r0, r0
    1efc:	0a850000 	beq	fe141f04 <__stack+0xde13bf04>
    1f00:	04020000 	streq	r0, [r2], #-0
    1f04:	0001ed07 	andeq	lr, r1, r7, lsl #26
    1f08:	05040300 	streq	r0, [r4, #-768]	; 0xfffffd00
    1f0c:	00746e69 	rsbseq	r6, r4, r9, ror #28
    1f10:	d2060102 	andle	r0, r6, #-2147483648	; 0x80000000
    1f14:	02000001 	andeq	r0, r0, #1
    1f18:	01d00801 	bicseq	r0, r0, r1, lsl #16
    1f1c:	02020000 	andeq	r0, r2, #0
    1f20:	00016d05 	andeq	r6, r1, r5, lsl #26
    1f24:	07020200 	streq	r0, [r2, -r0, lsl #4]
    1f28:	00000215 	andeq	r0, r0, r5, lsl r2
    1f2c:	7c050402 	cfstrsvc	mvf0, [r5], {2}
    1f30:	04000001 	streq	r0, [r0], #-1
    1f34:	00000053 	andeq	r0, r0, r3, asr r0
    1f38:	00614102 	rsbeq	r4, r1, r2, lsl #2
    1f3c:	04020000 	streq	r0, [r2], #-0
    1f40:	0001e807 	andeq	lr, r1, r7, lsl #16
    1f44:	05080200 	streq	r0, [r8, #-512]	; 0xfffffe00
    1f48:	00000177 	andeq	r0, r0, r7, ror r1
    1f4c:	e3070802 	movw	r0, #30722	; 0x7802
    1f50:	02000001 	andeq	r0, r0, #1
    1f54:	01850704 	orreq	r0, r5, r4, lsl #14
    1f58:	04050000 	streq	r0, [r5], #-0
    1f5c:	d9080102 	stmdble	r8, {r1, r8}
    1f60:	04000001 	streq	r0, [r0], #-1
    1f64:	00000055 	andeq	r0, r0, r5, asr r0
    1f68:	00563003 	subseq	r3, r6, r3
    1f6c:	ee040000 	cdp	0, 0, cr0, cr4, cr0, {0}
    1f70:	04000003 	streq	r0, [r0], #-3
    1f74:	0000617a 	andeq	r6, r0, sl, ror r1
    1f78:	03750400 	cmneq	r5, #0, 8
    1f7c:	85040000 	strhi	r0, [r4, #-0]
    1f80:	00000086 	andeq	r0, r0, r6, lsl #1
    1f84:	00057906 	andeq	r7, r5, r6, lsl #18
    1f88:	b5051400 	strlt	r1, [r5, #-1024]	; 0xfffffc00
    1f8c:	000000f0 	strdeq	r0, [r0], -r0	; <UNPREDICTABLE>
    1f90:	00090c07 	andeq	r0, r9, r7, lsl #24
    1f94:	9cb80500 	cfldr32ls	mvfx0, [r8]
    1f98:	00000000 	andeq	r0, r0, r0
    1f9c:	00083907 	andeq	r3, r8, r7, lsl #18
    1fa0:	f0b90500 			; <UNDEFINED> instruction: 0xf0b90500
    1fa4:	04000000 	streq	r0, [r0], #-0
    1fa8:	00066c07 	andeq	r6, r6, r7, lsl #24
    1fac:	f0ba0500 			; <UNDEFINED> instruction: 0xf0ba0500
    1fb0:	08000000 	stmdaeq	r0, {}	; <UNPREDICTABLE>
    1fb4:	000a0807 	andeq	r0, sl, r7, lsl #16
    1fb8:	7dbb0500 	cfldr32vc	mvfx0, [fp]
    1fbc:	0c000000 	stceq	0, cr0, [r0], {-0}
    1fc0:	0008d807 	andeq	sp, r8, r7, lsl #16
    1fc4:	7dbc0500 	cfldr32vc	mvfx0, [ip]
    1fc8:	10000000 	andne	r0, r0, r0
    1fcc:	a7040800 	strge	r0, [r4, -r0, lsl #16]
    1fd0:	04000000 	streq	r0, [r0], #-0
    1fd4:	000007d7 	ldrdeq	r0, [r0], -r7
    1fd8:	00a7bf05 	adceq	fp, r7, r5, lsl #30
    1fdc:	aa060000 	bge	181fe4 <__exidx_end+0x18023c>
    1fe0:	0c000006 	stceq	0, cr0, [r0], {6}
    1fe4:	0132c105 	teqeq	r2, r5, lsl #2
    1fe8:	0c070000 	stceq	0, cr0, [r7], {-0}
    1fec:	05000009 	streq	r0, [r0, #-9]
    1ff0:	00009cc4 	andeq	r9, r0, r4, asr #25
    1ff4:	39070000 	stmdbcc	r7, {}	; <UNPREDICTABLE>
    1ff8:	05000008 	streq	r0, [r0, #-8]
    1ffc:	0000f0c5 	andeq	pc, r0, r5, asr #1
    2000:	6c070400 	cfstrsvs	mvf0, [r7], {-0}
    2004:	05000006 	streq	r0, [r0, #-6]
    2008:	0000f0c6 	andeq	pc, r0, r6, asr #1
    200c:	04000800 	streq	r0, [r0], #-2048	; 0xfffff800
    2010:	000007d3 	ldrdeq	r0, [r0], -r3
    2014:	0101c805 	tsteq	r1, r5, lsl #16
    2018:	ba060000 	blt	182020 <__exidx_end+0x180278>
    201c:	14000006 	strne	r0, [r0], #-6
    2020:	016ecd05 	cmneq	lr, r5, lsl #26
    2024:	a5070000 	strge	r0, [r7, #-0]
    2028:	05000004 	streq	r0, [r0, #-4]
    202c:	000091d0 	ldrdeq	r9, [r0], -r0
    2030:	47070000 	strmi	r0, [r7, -r0]
    2034:	05000005 	streq	r0, [r0, #-5]
    2038:	00016ed1 	ldrdeq	r6, [r1], -r1
    203c:	95070400 	strls	r0, [r7, #-1024]	; 0xfffffc00
    2040:	05000007 	streq	r0, [r0, #-7]
    2044:	000132d2 	ldrdeq	r3, [r1], -r2
    2048:	08000800 	stmdaeq	r0, {fp}
    204c:	0000f604 	andeq	pc, r0, r4, lsl #12
    2050:	08850400 	stmeq	r5, {sl}
    2054:	d4050000 	strle	r0, [r5], #-0
    2058:	0000013d 	andeq	r0, r0, sp, lsr r1
    205c:	0009cb09 	andeq	ip, r9, r9, lsl #22
    2060:	ee4f0100 	dvfe	f0, f7, f0
    2064:	1600000b 	strne	r0, [r0], -fp
    2068:	01000000 	mrseq	r0, (UNDEF: 0)
    206c:	0001a29c 	muleq	r1, ip, r2
    2070:	0b3e0a00 	bleq	f84878 <__exidx_end+0xf82ad0>
    2074:	4f010000 	svcmi	0x00010000
    2078:	000001a8 	andeq	r0, r0, r8, lsr #3
    207c:	08005001 	stmdaeq	r0, {r0, ip, lr}
    2080:	00017404 	andeq	r7, r1, r4, lsl #8
    2084:	01a20b00 			; <UNDEFINED> instruction: 0x01a20b00
    2088:	ea090000 	b	242090 <__exidx_end+0x2402e8>
    208c:	0100000a 	tsteq	r0, sl
    2090:	000c0468 	andeq	r0, ip, r8, ror #8
    2094:	00000600 	andeq	r0, r0, r0, lsl #12
    2098:	d09c0100 	addsle	r0, ip, r0, lsl #2
    209c:	0a000001 	beq	20a8 <__exidx_end+0x300>
    20a0:	00000b1f 	andeq	r0, r0, pc, lsl fp
    20a4:	01d06801 	bicseq	r6, r0, r1, lsl #16
    20a8:	50010000 	andpl	r0, r1, r0
    20ac:	016e0b00 	cmneq	lr, r0, lsl #22
    20b0:	fe090000 	cdp2	0, 0, cr0, cr9, cr0, {0}
    20b4:	0100000a 	tsteq	r0, sl
    20b8:	000c0a74 	andeq	r0, ip, r4, ror sl
    20bc:	00001800 	andeq	r1, r0, r0, lsl #16
    20c0:	149c0100 	ldrne	r0, [ip], #256	; 0x100
    20c4:	0a000002 	beq	20d4 <__exidx_end+0x32c>
    20c8:	00000b3e 	andeq	r0, r0, lr, lsr fp
    20cc:	01a87401 			; <UNDEFINED> instruction: 0x01a87401
    20d0:	50010000 	andpl	r0, r1, r0
    20d4:	000b640a 	andeq	r6, fp, sl, lsl #8
    20d8:	d0740100 	rsbsle	r0, r4, r0, lsl #2
    20dc:	01000001 	tsteq	r0, r1
    20e0:	05470c51 	strbeq	r0, [r7, #-3153]	; 0xfffff3af
    20e4:	76010000 	strvc	r0, [r1], -r0
    20e8:	000001d0 	ldrdeq	r0, [r0], -r0	; <UNPREDICTABLE>
    20ec:	00001777 	andeq	r1, r0, r7, ror r7
    20f0:	0b720900 	bleq	1c844f8 <__exidx_end+0x1c82750>
    20f4:	8d010000 	stchi	0, cr0, [r1, #-0]
    20f8:	00000c22 	andeq	r0, r0, r2, lsr #24
    20fc:	00000030 	andeq	r0, r0, r0, lsr r0
    2100:	02629c01 	rsbeq	r9, r2, #256	; 0x100
    2104:	3e0a0000 	cdpcc	0, 0, cr0, cr10, cr0, {0}
    2108:	0100000b 	tsteq	r0, fp
    210c:	0001a88d 	andeq	sl, r1, sp, lsl #17
    2110:	0a500100 	beq	1402518 <__exidx_end+0x1400770>
    2114:	00000b64 	andeq	r0, r0, r4, ror #22
    2118:	01d08d01 	bicseq	r8, r0, r1, lsl #26
    211c:	51010000 	mrspl	r0, (UNDEF: 1)
    2120:	000b260c 	andeq	r2, fp, ip, lsl #12
    2124:	6e8f0100 	rmfvse	f0, f7, f0
    2128:	8a000001 	bhi	2134 <__exidx_end+0x38c>
    212c:	0c000017 	stceq	0, cr0, [r0], {23}
    2130:	00000b0d 	andeq	r0, r0, sp, lsl #22
    2134:	02629001 	rsbeq	r9, r2, #1
    2138:	17a80000 	strne	r0, [r8, r0]!
    213c:	0b000000 	bleq	2144 <__exidx_end+0x39c>
    2140:	0000009c 	muleq	r0, ip, r0
    2144:	000b310d 	andeq	r3, fp, sp, lsl #2
    2148:	91d00100 	bicsls	r0, r0, r0, lsl #2
    214c:	52000000 	andpl	r0, r0, #0
    2150:	2400000c 	strcs	r0, [r0], #-12
    2154:	01000000 	mrseq	r0, (UNDEF: 0)
    2158:	0adb0e9c 	beq	ff6c5bd0 <__stack+0xdf6bfbd0>
    215c:	d0010000 	andle	r0, r1, r0
    2160:	000001d0 	ldrdeq	r0, [r0], -r0	; <UNPREDICTABLE>
    2164:	000017c7 	andeq	r1, r0, r7, asr #15
    2168:	000b3e0f 	andeq	r3, fp, pc, lsl #28
    216c:	a8d40100 	ldmge	r4, {r8}^
    2170:	01000001 	tsteq	r0, r1
    2174:	ab000053 	blge	22c8 <__exidx_end+0x520>
    2178:	0400001e 	streq	r0, [r0], #-30	; 0xffffffe2
    217c:	00064b00 	andeq	r4, r6, r0, lsl #22
    2180:	67010400 	strvs	r0, [r1, -r0, lsl #8]
    2184:	0c000000 	stceq	0, cr0, [r0], {-0}
    2188:	00000fa7 	andeq	r0, r0, r7, lsr #31
    218c:	000002de 	ldrdeq	r0, [r0], -lr
    2190:	000001e0 	andeq	r0, r0, r0, ror #3
    2194:	00000000 	andeq	r0, r0, r0
    2198:	00000c37 	andeq	r0, r0, r7, lsr ip
    219c:	00042602 	andeq	r2, r4, r2, lsl #12
    21a0:	30d80200 	sbcscc	r0, r8, r0, lsl #4
    21a4:	03000000 	movweq	r0, #0
    21a8:	01ed0704 	mvneq	r0, r4, lsl #14
    21ac:	04040000 	streq	r0, [r4], #-0
    21b0:	746e6905 	strbtvc	r6, [lr], #-2309	; 0xfffff6fb
    21b4:	06010300 	streq	r0, [r1], -r0, lsl #6
    21b8:	000001d2 	ldrdeq	r0, [r0], -r2
    21bc:	00020002 	andeq	r0, r2, r2
    21c0:	501d0300 	andspl	r0, sp, r0, lsl #6
    21c4:	03000000 	movweq	r0, #0
    21c8:	01d00801 	bicseq	r0, r0, r1, lsl #16
    21cc:	02030000 	andeq	r0, r3, #0
    21d0:	00016d05 	andeq	r6, r1, r5, lsl #26
    21d4:	0dcd0200 	sfmeq	f0, 2, [sp]
    21d8:	2b030000 	blcs	c21e0 <__exidx_end+0xc0438>
    21dc:	00000069 	andeq	r0, r0, r9, rrx
    21e0:	15070203 	strne	r0, [r7, #-515]	; 0xfffffdfd
    21e4:	03000002 	movweq	r0, #2
    21e8:	017c0504 	cmneq	ip, r4, lsl #10
    21ec:	53020000 	movwpl	r0, #8192	; 0x2000
    21f0:	03000000 	movweq	r0, #0
    21f4:	00008241 	andeq	r8, r0, r1, asr #4
    21f8:	07040300 	streq	r0, [r4, -r0, lsl #6]
    21fc:	000001e8 	andeq	r0, r0, r8, ror #3
    2200:	77050803 	strvc	r0, [r5, -r3, lsl #16]
    2204:	03000001 	movweq	r0, #1
    2208:	01e30708 	mvneq	r0, r8, lsl #14
    220c:	04030000 	streq	r0, [r3], #-0
    2210:	00018507 	andeq	r8, r1, r7, lsl #10
    2214:	03040500 	movweq	r0, #17664	; 0x4500
    2218:	01d90801 	bicseq	r0, r9, r1, lsl #16
    221c:	04060000 	streq	r0, [r6], #-0
    2220:	000000ad 	andeq	r0, r0, sp, lsr #1
    2224:	0000a007 	andeq	sl, r0, r7
    2228:	02020200 	andeq	r0, r2, #0, 4
    222c:	18040000 	stmdane	r4, {}	; <UNPREDICTABLE>
    2230:	00000045 	andeq	r0, r0, r5, asr #32
    2234:	000dcf02 	andeq	ip, sp, r2, lsl #30
    2238:	5e240400 	cdppl	4, 2, cr0, cr4, cr0, {0}
    223c:	02000000 	andeq	r0, r0, #0
    2240:	00000055 	andeq	r0, r0, r5, asr r0
    2244:	00773004 	rsbseq	r3, r7, r4
    2248:	f1020000 	cps	#0
    224c:	0500000f 	streq	r0, [r0, #-15]
    2250:	0000de4d 	andeq	sp, r0, sp, asr #28
    2254:	e4040600 	str	r0, [r4], #-1536	; 0xfffffa00
    2258:	08000000 	stmdaeq	r0, {}	; <UNPREDICTABLE>
    225c:	000000ef 	andeq	r0, r0, pc, ror #1
    2260:	00009e09 	andeq	r9, r0, r9, lsl #28
    2264:	41020000 	mrsmi	r0, (UNDEF: 2)
    2268:	0600000c 	streq	r0, [r0], -ip
    226c:	00008276 	andeq	r8, r0, r6, ror r2
    2270:	03ef0200 	mvneq	r0, #0, 4
    2274:	79060000 	stmdbvc	r6, {}	; <UNPREDICTABLE>
    2278:	00000070 	andeq	r0, r0, r0, ror r0
    227c:	0003ee02 	andeq	lr, r3, r2, lsl #28
    2280:	827a0600 	rsbshi	r0, sl, #0, 12
    2284:	02000000 	andeq	r0, r0, #0
    2288:	00000375 	andeq	r0, r0, r5, ror r3
    228c:	00c88506 	sbceq	r8, r8, r6, lsl #10
    2290:	04060000 	streq	r0, [r6], #-0
    2294:	000000b2 	strheq	r0, [r0], -r2
    2298:	0005790a 	andeq	r7, r5, sl, lsl #18
    229c:	b5071400 	strlt	r1, [r7, #-1024]	; 0xfffffc00
    22a0:	0000016a 	andeq	r0, r0, sl, ror #2
    22a4:	00090c0b 	andeq	r0, r9, fp, lsl #24
    22a8:	10b80700 	adcsne	r0, r8, r0, lsl #14
    22ac:	00000001 	andeq	r0, r0, r1
    22b0:	0008390b 	andeq	r3, r8, fp, lsl #18
    22b4:	6ab90700 	bvs	fee43ebc <__stack+0xdee3debc>
    22b8:	04000001 	streq	r0, [r0], #-1
    22bc:	00066c0b 	andeq	r6, r6, fp, lsl #24
    22c0:	6aba0700 	bvs	fee83ec8 <__stack+0xdee7dec8>
    22c4:	08000001 	stmdaeq	r0, {r0}
    22c8:	000a080b 	andeq	r0, sl, fp, lsl #16
    22cc:	9ebb0700 	cdpls	7, 11, cr0, cr11, cr0, {0}
    22d0:	0c000000 	stceq	0, cr0, [r0], {-0}
    22d4:	0008d80b 	andeq	sp, r8, fp, lsl #16
    22d8:	9ebc0700 	cdpls	7, 11, cr0, cr12, cr0, {0}
    22dc:	10000000 	andne	r0, r0, r0
    22e0:	21040600 	tstcs	r4, r0, lsl #12
    22e4:	02000001 	andeq	r0, r0, #1
    22e8:	000007d7 	ldrdeq	r0, [r0], -r7
    22ec:	0121bf07 			; <UNDEFINED> instruction: 0x0121bf07
    22f0:	aa0a0000 	bge	2822f8 <__exidx_end+0x280550>
    22f4:	0c000006 	stceq	0, cr0, [r0], {6}
    22f8:	01acc107 			; <UNDEFINED> instruction: 0x01acc107
    22fc:	0c0b0000 	stceq	0, cr0, [fp], {-0}
    2300:	07000009 	streq	r0, [r0, -r9]
    2304:	000110c4 	andeq	r1, r1, r4, asr #1
    2308:	390b0000 	stmdbcc	fp, {}	; <UNPREDICTABLE>
    230c:	07000008 	streq	r0, [r0, -r8]
    2310:	00016ac5 	andeq	r6, r1, r5, asr #21
    2314:	6c0b0400 	cfstrsvs	mvf0, [fp], {-0}
    2318:	07000006 	streq	r0, [r0, -r6]
    231c:	00016ac6 	andeq	r6, r1, r6, asr #21
    2320:	02000800 	andeq	r0, r0, #0, 16
    2324:	000007d3 	ldrdeq	r0, [r0], -r3
    2328:	017bc807 	cmneq	fp, r7, lsl #16
    232c:	ba0a0000 	blt	282334 <__exidx_end+0x28058c>
    2330:	14000006 	strne	r0, [r0], #-6
    2334:	01e8cd07 	mvneq	ip, r7, lsl #26
    2338:	a50b0000 	strge	r0, [fp, #-0]
    233c:	07000004 	streq	r0, [r0, -r4]
    2340:	000105d0 	ldrdeq	r0, [r1], -r0	; <UNPREDICTABLE>
    2344:	470b0000 	strmi	r0, [fp, -r0]
    2348:	07000005 	streq	r0, [r0, -r5]
    234c:	0001e8d1 	ldrdeq	lr, [r1], -r1
    2350:	950b0400 	strls	r0, [fp, #-1024]	; 0xfffffc00
    2354:	07000007 	streq	r0, [r0, -r7]
    2358:	0001acd2 	ldrdeq	sl, [r1], -r2
    235c:	06000800 	streq	r0, [r0], -r0, lsl #16
    2360:	00017004 	andeq	r7, r1, r4
    2364:	08850200 	stmeq	r5, {r9}
    2368:	d4070000 	strle	r0, [r7], #-0
    236c:	000001b7 			; <UNDEFINED> instruction: 0x000001b7
    2370:	00106c02 	andseq	r6, r0, r2, lsl #24
    2374:	9e670800 	cdpls	8, 6, cr0, cr7, cr0, {0}
    2378:	0c000000 	stceq	0, cr0, [r0], {-0}
    237c:	00005001 	andeq	r5, r0, r1
    2380:	2f7b0800 	svccs	0x007b0800
    2384:	0d000002 	stceq	0, cr0, [r0, #-8]
    2388:	00000bf3 	strdeq	r0, [r0], -r3
    238c:	10cd0d00 	sbcne	r0, sp, r0, lsl #26
    2390:	0d010000 	stceq	0, cr0, [r1, #-0]
    2394:	00001362 	andeq	r1, r0, r2, ror #6
    2398:	0d470d02 	stcleq	13, cr0, [r7, #-8]
    239c:	0d030000 	stceq	0, cr0, [r3, #-0]
    23a0:	00000ed4 	ldrdeq	r0, [r0], -r4
    23a4:	1c020004 	stcne	0, cr0, [r2], {4}
    23a8:	0800000e 	stmdaeq	r0, {r1, r2, r3}
    23ac:	00020481 	andeq	r0, r2, r1, lsl #9
    23b0:	05640a00 	strbeq	r0, [r4, #-2560]!	; 0xfffff600
    23b4:	08080000 	stmdaeq	r8, {}	; <UNPREDICTABLE>
    23b8:	00025f86 	andeq	r5, r2, r6, lsl #31
    23bc:	05c40b00 	strbeq	r0, [r4, #2816]	; 0xb00
    23c0:	88080000 	stmdahi	r8, {}	; <UNPREDICTABLE>
    23c4:	000000fa 	strdeq	r0, [r0], -sl
    23c8:	08290b00 	stmdaeq	r9!, {r8, r9, fp}
    23cc:	89080000 	stmdbhi	r8, {}	; <UNPREDICTABLE>
    23d0:	00000110 	andeq	r0, r0, r0, lsl r1
    23d4:	4b020004 	blmi	823ec <__exidx_end+0x80644>
    23d8:	08000008 	stmdaeq	r0, {r3}
    23dc:	00023a8a 	andeq	r3, r2, sl, lsl #21
    23e0:	10f00a00 	rscsne	r0, r0, r0, lsl #20
    23e4:	080c0000 	stmdaeq	ip, {}	; <UNPREDICTABLE>
    23e8:	00029b8f 	andeq	r9, r2, pc, lsl #23
    23ec:	123b0b00 	eorsne	r0, fp, #0, 22
    23f0:	91080000 	mrsls	r0, (UNDEF: 8)
    23f4:	0000009e 	muleq	r0, lr, r0
    23f8:	0f970b00 	svceq	0x00970b00
    23fc:	92080000 	andls	r0, r8, #0
    2400:	000000c8 	andeq	r0, r0, r8, asr #1
    2404:	0cbd0b04 	vpopeq	{d0-d1}
    2408:	93080000 	movwls	r0, #32768	; 0x8000
    240c:	000000c8 	andeq	r0, r0, r8, asr #1
    2410:	49020008 	stmdbmi	r2, {r3}
    2414:	0800000f 	stmdaeq	r0, {r0, r1, r2, r3}
    2418:	00026a94 	muleq	r2, r4, sl
    241c:	00a70700 	adceq	r0, r7, r0, lsl #14
    2420:	04060000 	streq	r0, [r6], #-0
    2424:	000000ef 	andeq	r0, r0, pc, ror #1
    2428:	0050010c 	subseq	r0, r0, ip, lsl #2
    242c:	83010000 	movwhi	r0, #4096	; 0x1000
    2430:	000002d0 	ldrdeq	r0, [r0], -r0	; <UNPREDICTABLE>
    2434:	0011eb0d 	andseq	lr, r1, sp, lsl #22
    2438:	000d0000 	andeq	r0, sp, r0
    243c:	01000010 	tsteq	r0, r0, lsl r0
    2440:	000c5f0d 	andeq	r5, ip, sp, lsl #30
    2444:	02000200 	andeq	r0, r0, #0, 4
    2448:	000010ac 	andeq	r1, r0, ip, lsr #1
    244c:	02b18701 	adcseq	r8, r1, #262144	; 0x40000
    2450:	b40a0000 	strlt	r0, [sl], #-0
    2454:	5000000b 	andpl	r0, r0, fp
    2458:	03608e01 	cmneq	r0, #1, 28
    245c:	a30b0000 	movwge	r0, #45056	; 0xb000
    2460:	01000013 	tsteq	r0, r3, lsl r0
    2464:	00036090 	muleq	r3, r0, r0
    2468:	ac0b0000 	stcge	0, cr0, [fp], {-0}
    246c:	0100000c 	tsteq	r0, ip
    2470:	00017097 	muleq	r1, r7, r0
    2474:	d40b0400 	strle	r0, [fp], #-1024	; 0xfffffc00
    2478:	01000013 	tsteq	r0, r3, lsl r0
    247c:	00017098 	muleq	r1, r8, r0
    2480:	9d0b1800 	stcls	8, cr1, [fp, #-0]
    2484:	0100000b 	tsteq	r0, fp
    2488:	00010599 	muleq	r1, r9, r5
    248c:	990b2c00 	stmdbls	fp, {sl, fp, sp}
    2490:	01000011 	tsteq	r0, r1, lsl r0
    2494:	0002ab9a 	muleq	r2, sl, fp
    2498:	7e0b3000 	cdpvc	0, 0, cr3, cr11, cr0, {0}
    249c:	0100000b 	tsteq	r0, fp
    24a0:	00036b9b 	muleq	r3, fp, fp
    24a4:	9f0b3400 	svcls	0x000b3400
    24a8:	01000012 	tsteq	r0, r2, lsl r0
    24ac:	000105ab 	andeq	r0, r1, fp, lsr #11
    24b0:	c60b4000 	strgt	r4, [fp], -r0
    24b4:	0100000e 	tsteq	r0, lr
    24b8:	000105ac 	andeq	r0, r1, ip, lsr #11
    24bc:	b60b4400 	strlt	r4, [fp], -r0, lsl #8
    24c0:	0100000e 	tsteq	r0, lr
    24c4:	00037bc3 	andeq	r7, r3, r3, asr #23
    24c8:	ef0b4800 	svc	0x000b4800
    24cc:	0100000c 	tsteq	r0, ip
    24d0:	000380c4 	andeq	r8, r3, r4, asr #1
    24d4:	06004c00 	streq	r4, [r0], -r0, lsl #24
    24d8:	00036604 	andeq	r6, r3, r4, lsl #12
    24dc:	00ef0e00 	rsceq	r0, pc, r0, lsl #28
    24e0:	a00f0000 	andge	r0, pc, r0
    24e4:	7b000000 	blvc	24ec <__exidx_end+0x744>
    24e8:	10000003 	andne	r0, r0, r3
    24ec:	00000097 	muleq	r0, r7, r0
    24f0:	c80e000b 	stmdagt	lr, {r0, r1, r3}
    24f4:	0e000000 	cdpeq	0, 0, cr0, cr0, cr0, {0}
    24f8:	000002d0 	ldrdeq	r0, [r0], -r0	; <UNPREDICTABLE>
    24fc:	000d1202 	andeq	r1, sp, r2, lsl #4
    2500:	dbc70100 	blle	ff1c2908 <__stack+0xdf1bc908>
    2504:	02000002 	andeq	r0, r0, #2
    2508:	000012d4 	ldrdeq	r1, [r0], -r4
    250c:	0385cb01 	orreq	ip, r5, #1024	; 0x400
    2510:	c7110000 	ldrgt	r0, [r1, -r0]
    2514:	0100000f 	tsteq	r0, pc
    2518:	b5010cca 	strlt	r0, [r1, #-3274]	; 0xfffff336
    251c:	12000003 	andne	r0, r0, #3
    2520:	00001379 	andeq	r1, r0, r9, ror r3
    2524:	b50ccc01 	strlt	ip, [ip, #-3073]	; 0xfffff3ff
    2528:	00000003 	andeq	r0, r0, r3
    252c:	03900406 	orrseq	r0, r0, #100663296	; 0x6000000
    2530:	64130000 	ldrvs	r0, [r3], #-0
    2534:	01000011 	tsteq	r0, r1, lsl r0
    2538:	00fa0561 	rscseq	r0, sl, r1, ror #10
    253c:	f1010000 	setend	le
    2540:	14000003 	strne	r0, [r0], #-3
    2544:	000010c7 	andeq	r1, r0, r7, asr #1
    2548:	f1056101 			; <UNDEFINED> instruction: 0xf1056101
    254c:	12000003 	andne	r0, r0, #3
    2550:	0000073b 	andeq	r0, r0, fp, lsr r7
    2554:	fa056301 	blx	15b160 <__exidx_end+0x1593b8>
    2558:	12000000 	andne	r0, r0, #0
    255c:	00001379 	andeq	r1, r0, r9, ror r3
    2560:	01056401 	tsteq	r5, r1, lsl #8
    2564:	00000004 	andeq	r0, r0, r4
    2568:	0001f907 	andeq	pc, r1, r7, lsl #18
    256c:	fc040600 	stc2	6, cr0, [r4], {-0}
    2570:	07000003 	streq	r0, [r0, -r3]
    2574:	00000390 	muleq	r0, r0, r3
    2578:	0003f607 	andeq	pc, r3, r7, lsl #12
    257c:	10d61100 	sbcsne	r1, r6, r0, lsl #2
    2580:	f9010000 			; <UNDEFINED> instruction: 0xf9010000
    2584:	045a010a 	ldrbeq	r0, [sl], #-266	; 0xfffffef6
    2588:	79140000 	ldmdbvc	r4, {}	; <UNPREDICTABLE>
    258c:	01000013 	tsteq	r0, r3, lsl r0
    2590:	045a0af9 	ldrbeq	r0, [sl], #-2809	; 0xfffff507
    2594:	8d140000 	ldchi	0, cr0, [r4, #-0]
    2598:	0100000e 	tsteq	r0, lr
    259c:	02a60af9 	adceq	r0, r6, #1019904	; 0xf9000
    25a0:	9d140000 	ldcls	0, cr0, [r4, #-0]
    25a4:	0100000b 	tsteq	r0, fp
    25a8:	01050af9 	strdeq	r0, [r5, -r9]
    25ac:	1f140000 	svcne	0x00140000
    25b0:	01000013 	tsteq	r0, r3, lsl r0
    25b4:	046a0af9 	strbteq	r0, [sl], #-2809	; 0xfffff507
    25b8:	28140000 	ldmdacs	r4, {}	; <UNPREDICTABLE>
    25bc:	0100000d 	tsteq	r0, sp
    25c0:	046f0af9 	strbteq	r0, [pc], #-2809	; 25c8 <__exidx_end+0x820>
    25c4:	78150000 	ldmdavc	r5, {}	; <UNPREDICTABLE>
    25c8:	0afb0100 	beq	ffec29d0 <__stack+0xdfebc9d0>
    25cc:	00000105 	andeq	r0, r0, r5, lsl #2
    25d0:	03b50700 			; <UNDEFINED> instruction: 0x03b50700
    25d4:	04060000 	streq	r0, [r6], #-0
    25d8:	00000465 	andeq	r0, r0, r5, ror #8
    25dc:	00029b07 	andeq	r9, r2, r7, lsl #22
    25e0:	045f0700 	ldrbeq	r0, [pc], #-1792	; 25e8 <__exidx_end+0x840>
    25e4:	bd070000 	stclt	0, cr0, [r7, #-0]
    25e8:	11000000 	mrsne	r0, (UNDEF: 0)
    25ec:	00001328 	andeq	r1, r0, r8, lsr #6
    25f0:	010bb601 	tsteq	fp, r1, lsl #12
    25f4:	0000048e 	andeq	r0, r0, lr, lsl #9
    25f8:	00136d14 	andseq	r6, r3, r4, lsl sp
    25fc:	0bb60100 	bleq	fed82a04 <__stack+0xded7ca04>
    2600:	0000048e 	andeq	r0, r0, lr, lsl #9
    2604:	01100700 	tsteq	r0, r0, lsl #14
    2608:	0b160000 	bleq	582610 <__exidx_end+0x580868>
    260c:	01000011 	tsteq	r0, r1, lsl r0
    2610:	af01089f 	svcge	0x0001089f
    2614:	17000004 	strne	r0, [r0, -r4]
    2618:	000ba812 	andeq	sl, fp, r2, lsl r8
    261c:	08cd0100 	stmiaeq	sp, {r8}^
    2620:	000004b5 			; <UNDEFINED> instruction: 0x000004b5
    2624:	04060000 	streq	r0, [r6], #-0
    2628:	000001ee 	andeq	r0, r0, lr, ror #3
    262c:	0004af07 	andeq	sl, r4, r7, lsl #30
    2630:	039b1800 	orrseq	r1, fp, #0, 16
    2634:	0c780000 	ldcleq	0, cr0, [r8], #-0
    2638:	00280000 	eoreq	r0, r8, r0
    263c:	9c010000 	stcls	0, cr0, [r1], {-0}
    2640:	000004e6 	andeq	r0, r0, r6, ror #9
    2644:	0003a819 	andeq	sl, r3, r9, lsl r8
    2648:	0c8a1a00 	vstmiaeq	sl, {s2-s1}
    264c:	000a0000 	andeq	r0, sl, r0
    2650:	a81b0000 	ldmdage	fp, {}	; <UNPREDICTABLE>
    2654:	e8000003 	stmda	r0, {r0, r1}
    2658:	00000017 	andeq	r0, r0, r7, lsl r0
    265c:	03bb1800 			; <UNDEFINED> instruction: 0x03bb1800
    2660:	00000000 	andeq	r0, r0, r0
    2664:	00300000 	eorseq	r0, r0, r0
    2668:	9c010000 	stcls	0, cr0, [r1], {-0}
    266c:	00000549 	andeq	r0, r0, r9, asr #10
    2670:	0003cc1c 	andeq	ip, r3, ip, lsl ip
    2674:	00181600 	andseq	r1, r8, r0, lsl #12
    2678:	03d81b00 	bicseq	r1, r8, #0, 22
    267c:	18500000 	ldmdane	r0, {}^	; <UNPREDICTABLE>
    2680:	e41b0000 	ldr	r0, [fp], #-0
    2684:	64000003 	strvs	r0, [r0], #-3
    2688:	1d000018 	stcne	0, cr0, [r0, #-96]	; 0xffffffa0
    268c:	00000000 	andeq	r0, r0, r0
    2690:	00000008 	andeq	r0, r0, r8
    2694:	0000053f 	andeq	r0, r0, pc, lsr r5
    2698:	0003cc1c 	andeq	ip, r3, ip, lsl ip
    269c:	00189e00 	andseq	r9, r8, r0, lsl #28
    26a0:	00001a00 	andeq	r1, r0, r0, lsl #20
    26a4:	00080000 	andeq	r0, r8, r0
    26a8:	d8190000 	ldmdale	r9, {}	; <UNPREDICTABLE>
    26ac:	19000003 	stmdbne	r0, {r0, r1}
    26b0:	000003e4 	andeq	r0, r0, r4, ror #7
    26b4:	001e0000 	andseq	r0, lr, r0
    26b8:	ed000000 	stc	0, cr0, [r0, #-0]
    26bc:	0000001d 	andeq	r0, r0, sp, lsl r0
    26c0:	00047418 	andeq	r7, r4, r8, lsl r4
    26c4:	000ca000 	andeq	sl, ip, r0
    26c8:	00004c00 	andeq	r4, r0, r0, lsl #24
    26cc:	8f9c0100 	svchi	0x009c0100
    26d0:	1c000005 	stcne	0, cr0, [r0], {5}
    26d4:	00000481 	andeq	r0, r0, r1, lsl #9
    26d8:	000018bf 			; <UNDEFINED> instruction: 0x000018bf
    26dc:	000cb21d 	andeq	fp, ip, sp, lsl r2
    26e0:	00000e00 	andeq	r0, r0, r0, lsl #28
    26e4:	00058500 	andeq	r8, r5, r0, lsl #10
    26e8:	04811c00 	streq	r1, [r1], #3072	; 0xc00
    26ec:	19010000 	stmdbne	r1, {}	; <UNPREDICTABLE>
    26f0:	be1e0000 	cdplt	0, 1, cr0, cr14, cr0, {0}
    26f4:	f800000c 			; <UNDEFINED> instruction: 0xf800000c
    26f8:	0000001d 	andeq	r0, r0, sp, lsl r0
    26fc:	000ccc1e 	andeq	ip, ip, lr, lsl ip
    2700:	001df800 	andseq	pc, sp, r0, lsl #16
    2704:	ca130000 	bgt	4c270c <__exidx_end+0x4c0964>
    2708:	0100000c 	tsteq	r0, ip
    270c:	03b50bd4 			; <UNDEFINED> instruction: 0x03b50bd4
    2710:	d3010000 	movwle	r0, #4096	; 0x1000
    2714:	14000005 	strne	r0, [r0], #-5
    2718:	00000d28 	andeq	r0, r0, r8, lsr #26
    271c:	6f0bd401 	svcvs	0x000bd401
    2720:	14000004 	strne	r0, [r0], #-4
    2724:	00001394 	muleq	r0, r4, r3
    2728:	d30bd401 	movwle	sp, #46081	; 0xb401
    272c:	12000005 	andne	r0, r0, #5
    2730:	00000f35 	andeq	r0, r0, r5, lsr pc
    2734:	b50bd601 	strlt	sp, [fp, #-1537]	; 0xfffff9ff
    2738:	17000003 	strne	r0, [r0, -r3]
    273c:	00119912 	andseq	r9, r1, r2, lsl r9
    2740:	0bf20100 	bleq	ffc82b48 <__stack+0xdfc7cb48>
    2744:	000002ab 	andeq	r0, r0, fp, lsr #5
    2748:	ab070000 	blge	1c2750 <__exidx_end+0x1c09a8>
    274c:	11000002 	tstne	r0, r2
    2750:	000013bc 			; <UNDEFINED> instruction: 0x000013bc
    2754:	010b6d01 	tsteq	fp, r1, lsl #26
    2758:	000005f2 	strdeq	r0, [r0], -r2
    275c:	000b9d12 	andeq	r9, fp, r2, lsl sp
    2760:	0b6f0100 	bleq	1bc2b68 <__exidx_end+0x1bc0dc0>
    2764:	00000105 	andeq	r0, r0, r5, lsl #2
    2768:	03121f00 	tsteq	r2, #0, 30
    276c:	2b010000 	blcs	42774 <__exidx_end+0x409cc>
    2770:	0000fa02 	andeq	pc, r0, r2, lsl #20
    2774:	000cec00 	andeq	lr, ip, r0, lsl #24
    2778:	0001ac00 	andeq	sl, r1, r0, lsl #24
    277c:	d29c0100 	addsle	r0, ip, #0, 2
    2780:	20000008 	andcs	r0, r0, r8
    2784:	00000f3e 	andeq	r0, r0, lr, lsr pc
    2788:	d3022b01 	movwle	r2, #11009	; 0x2b01
    278c:	1f000000 	svcne	0x00000000
    2790:	20000019 	andcs	r0, r0, r9, lsl r0
    2794:	00000e8d 	andeq	r0, r0, sp, lsl #29
    2798:	a6022b01 	strge	r2, [r2], -r1, lsl #22
    279c:	90000002 	andls	r0, r0, r2
    27a0:	20000019 	andcs	r0, r0, r9, lsl r0
    27a4:	00000d28 	andeq	r0, r0, r8, lsr #26
    27a8:	6f022b01 	svcvs	0x00022b01
    27ac:	05000004 	streq	r0, [r0, #-4]
    27b0:	2000001a 	andcs	r0, r0, sl, lsl r0
    27b4:	000003bb 			; <UNDEFINED> instruction: 0x000003bb
    27b8:	d2022b01 	andle	r2, r2, #1024	; 0x400
    27bc:	58000008 	stmdapl	r0, {r3}
    27c0:	2100001a 	tstcs	r0, sl, lsl r0
    27c4:	00000b9d 	muleq	r0, sp, fp
    27c8:	05022b01 	streq	r2, [r2, #-2817]	; 0xfffff4ff
    27cc:	02000001 	andeq	r0, r0, #1
    27d0:	e3210091 			; <UNDEFINED> instruction: 0xe3210091
    27d4:	01000013 	tsteq	r0, r3, lsl r0
    27d8:	08dd022b 	ldmeq	sp, {r0, r1, r3, r5, r9}^
    27dc:	91020000 	mrsls	r0, (UNDEF: 2)
    27e0:	13942104 	orrsne	r2, r4, #4, 2
    27e4:	2b010000 	blcs	427ec <__exidx_end+0x40a44>
    27e8:	0005d302 	andeq	sp, r5, r2, lsl #6
    27ec:	08910200 	ldmeq	r1, {r9}
    27f0:	00131f21 	andseq	r1, r3, r1, lsr #30
    27f4:	022b0100 	eoreq	r0, fp, #0, 2
    27f8:	0000046a 	andeq	r0, r0, sl, ror #8
    27fc:	220c9102 	andcs	r9, ip, #-2147483648	; 0x80000000
    2800:	0000073b 	andeq	r0, r0, fp, lsr r7
    2804:	fa022d01 	blx	8dc10 <__exidx_end+0x8be68>
    2808:	8e000000 	cdphi	0, 0, cr0, cr0, cr0, {0}
    280c:	2300001a 	movwcs	r0, #26
    2810:	00000f35 	andeq	r0, r0, r5, lsr pc
    2814:	b5022e01 	strlt	r2, [r2, #-3585]	; 0xfffff1ff
    2818:	01000003 	tsteq	r0, r3
    281c:	13a32254 			; <UNDEFINED> instruction: 0x13a32254
    2820:	2f010000 	svccs	0x00010000
    2824:	0002ab02 	andeq	sl, r2, r2, lsl #22
    2828:	001aaf00 	andseq	sl, sl, r0, lsl #30
    282c:	058f2400 	streq	r2, [pc, #1024]	; 2c34 <__exidx_end+0xe8c>
    2830:	0d0c0000 	stceq	0, cr0, [ip, #-0]
    2834:	01480000 	mrseq	r0, (UNDEF: 72)
    2838:	36010000 	strcc	r0, [r1], -r0
    283c:	00075502 	andeq	r5, r7, r2, lsl #10
    2840:	05ac1c00 	streq	r1, [ip, #3072]!	; 0xc00
    2844:	1afc0000 	bne	fff0284c <__stack+0xdfefc84c>
    2848:	a01c0000 	andsge	r0, ip, r0
    284c:	1c000005 	stcne	0, cr0, [r0], {5}
    2850:	2500001b 	strcs	r0, [r0, #-27]	; 0xffffffe5
    2854:	00000148 	andeq	r0, r0, r8, asr #2
    2858:	0005b81b 	andeq	fp, r5, fp, lsl r8
    285c:	001b4500 	andseq	r4, fp, r0, lsl #10
    2860:	01602600 	cmneq	r0, r0, lsl #12
    2864:	07370000 	ldreq	r0, [r7, -r0]!
    2868:	c51b0000 	ldrgt	r0, [fp, #-0]
    286c:	79000005 	stmdbvc	r0, {r0, r2}
    2870:	2700001b 	smladcs	r0, fp, r0, r0
    2874:	00000d18 	andeq	r0, r0, r8, lsl sp
    2878:	00001e04 	andeq	r1, r0, r4, lsl #28
    287c:	00000712 	andeq	r0, r0, r2, lsl r7
    2880:	04500128 	ldrbeq	r0, [r0], #-296	; 0xfffffed8
    2884:	24320077 	ldrtcs	r0, [r2], #-119	; 0xffffff89
    2888:	0d242700 	stceq	7, cr2, [r4, #-0]
    288c:	1e040000 	cdpne	0, 0, cr0, cr4, cr0, {0}
    2890:	07260000 	streq	r0, [r6, -r0]!
    2894:	01280000 			; <UNDEFINED> instruction: 0x01280000
    2898:	50080250 	andpl	r0, r8, r0, asr r2
    289c:	0d4a2900 	stcleq	9, cr2, [sl, #-0]
    28a0:	1e0f0000 	cdpne	0, 0, cr0, cr15, cr0, {0}
    28a4:	01280000 			; <UNDEFINED> instruction: 0x01280000
    28a8:	00750250 	rsbseq	r0, r5, r0, asr r2
    28ac:	36290000 	strtcc	r0, [r9], -r0
    28b0:	1a00000d 	bne	28ec <__exidx_end+0xb44>
    28b4:	2800001e 	stmdacs	r0, {r1, r2, r3, r4}
    28b8:	75025001 	strvc	r5, [r2, #-1]
    28bc:	51012800 	tstpl	r1, r0, lsl #16
    28c0:	28a50802 	stmiacs	r5!, {r1, fp}
    28c4:	77025201 	strvc	r5, [r2, -r1, lsl #4]
    28c8:	00000000 	andeq	r0, r0, r0
    28cc:	00040624 	andeq	r0, r4, r4, lsr #12
    28d0:	000d4000 	andeq	r4, sp, r0
    28d4:	00018000 	andeq	r8, r1, r0
    28d8:	02710100 	rsbseq	r0, r1, #0, 2
    28dc:	000007c7 	andeq	r0, r0, r7, asr #15
    28e0:	0004371c 	andeq	r3, r4, ip, lsl r7
    28e4:	001ba200 	andseq	sl, fp, r0, lsl #4
    28e8:	04432a00 	strbeq	r2, [r3], #-2560	; 0xfffff600
    28ec:	2b1c0000 	blcs	7028f4 <__exidx_end+0x700b4c>
    28f0:	c2000004 	andgt	r0, r0, #4
    28f4:	1c00001b 	stcne	0, cr0, [r0], {27}
    28f8:	0000041f 	andeq	r0, r0, pc, lsl r4
    28fc:	00001be2 	andeq	r1, r0, r2, ror #23
    2900:	0004131c 	andeq	r1, r4, ip, lsl r3
    2904:	001c0200 	andseq	r0, ip, r0, lsl #4
    2908:	01802500 	orreq	r2, r0, r0, lsl #10
    290c:	4f1b0000 	svcmi	0x001b0000
    2910:	20000004 	andcs	r0, r0, r4
    2914:	2700001c 	smladcs	r0, ip, r0, r0
    2918:	00000d7e 	andeq	r0, r0, lr, ror sp
    291c:	00001e25 	andeq	r1, r0, r5, lsr #28
    2920:	000007b5 			; <UNDEFINED> instruction: 0x000007b5
    2924:	03500128 	cmpeq	r0, #40, 2
    2928:	0006007d 	andeq	r0, r6, sp, ror r0
    292c:	000d8629 	andeq	r8, sp, r9, lsr #12
    2930:	001e2500 	andseq	r2, lr, r0, lsl #10
    2934:	50012800 	andpl	r2, r1, r0, lsl #16
    2938:	00187402 	andseq	r7, r8, r2, lsl #8
    293c:	d82b0000 	stmdale	fp!, {}	; <UNPREDICTABLE>
    2940:	ca000005 	bgt	295c <__exidx_end+0xbb4>
    2944:	3e00000d 	cdpcc	0, 0, cr0, cr0, cr13, {0}
    2948:	01000000 	mrseq	r0, (UNDEF: 0)
    294c:	086e029d 	stmdaeq	lr!, {r0, r2, r3, r4, r7, r9}^
    2950:	ca1a0000 	bgt	682958 <__exidx_end+0x680bb0>
    2954:	3e00000d 	cdpcc	0, 0, cr0, cr0, cr13, {0}
    2958:	19000000 	stmdbne	r0, {}	; <UNPREDICTABLE>
    295c:	000005e5 	andeq	r0, r0, r5, ror #11
    2960:	000dd827 	andeq	sp, sp, r7, lsr #16
    2964:	001e3100 	andseq	r3, lr, r0, lsl #2
    2968:	00080300 	andeq	r0, r8, r0, lsl #6
    296c:	50012800 	andpl	r2, r1, r0, lsl #16
    2970:	03007608 	movweq	r7, #1544	; 0x608
    2974:	1fffe180 	svcne	0x00ffe180
    2978:	e4270022 	strt	r0, [r7], #-34	; 0xffffffde
    297c:	3100000d 	tstcc	r0, sp
    2980:	1700001e 	smladne	r0, lr, r0, r0
    2984:	28000008 	stmdacs	r0, {r3}
    2988:	77025001 	strvc	r5, [r2, -r1]
    298c:	ec270000 	stc	0, cr0, [r7], #-0
    2990:	3100000d 	tstcc	r0, sp
    2994:	2b00001e 	blcs	2a14 <__exidx_end+0xc6c>
    2998:	28000008 	stmdacs	r0, {r3}
    299c:	76025001 	strvc	r5, [r2], -r1
    29a0:	f2270000 	vhadd.s32	d0, d7, d0
    29a4:	3100000d 	tstcc	r0, sp
    29a8:	4200001e 	andmi	r0, r0, #30
    29ac:	28000008 	stmdacs	r0, {r3}
    29b0:	03055001 	movweq	r5, #20481	; 0x5001
    29b4:	1fffe314 	svcne	0x00ffe314
    29b8:	0df82700 	ldcleq	7, cr2, [r8]
    29bc:	1e310000 	cdpne	0, 3, cr0, cr1, cr0, {0}
    29c0:	08590000 	ldmdaeq	r9, {}^	; <UNPREDICTABLE>
    29c4:	01280000 			; <UNDEFINED> instruction: 0x01280000
    29c8:	fc030550 	stc2	5, cr0, [r3], {80}	; 0x50
    29cc:	001fffe2 	andseq	pc, pc, r2, ror #31
    29d0:	000dfe29 	andeq	pc, sp, r9, lsr #28
    29d4:	001e3100 	andseq	r3, lr, r0, lsl #2
    29d8:	50012800 	andpl	r2, r1, r0, lsl #16
    29dc:	e33c0305 	teq	ip, #335544320	; 0x14000000
    29e0:	00001fff 	strdeq	r1, [r0], -pc	; <UNPREDICTABLE>
    29e4:	0cfe1e00 	ldcleq	14, cr1, [lr]
    29e8:	1ded0000 	stclne	0, cr0, [sp]
    29ec:	0a1e0000 	beq	7829f4 <__exidx_end+0x780c4c>
    29f0:	ed00000d 	stc	0, cr0, [r0, #-52]	; 0xffffffcc
    29f4:	2700001d 	smladcs	r0, sp, r0, r0
    29f8:	00000da4 	andeq	r0, r0, r4, lsr #27
    29fc:	00001e3d 	andeq	r1, r0, sp, lsr lr
    2a00:	000008a1 	andeq	r0, r0, r1, lsr #17
    2a04:	02500128 	subseq	r0, r0, #40, 2
    2a08:	01280077 			; <UNDEFINED> instruction: 0x01280077
    2a0c:	00760251 	rsbseq	r0, r6, r1, asr r2
    2a10:	03520128 	cmpeq	r2, #40, 2
    2a14:	00066491 	muleq	r6, r1, r4
    2a18:	000db21e 	andeq	fp, sp, lr, lsl r2
    2a1c:	001e4800 	andseq	r4, lr, r0, lsl #16
    2a20:	0e3e2700 	cdpeq	7, 3, cr2, cr14, cr0, {0}
    2a24:	1e530000 	cdpne	0, 5, cr0, cr3, cr0, {0}
    2a28:	08bf0000 	ldmeq	pc!, {}	; <UNPREDICTABLE>
    2a2c:	01280000 			; <UNDEFINED> instruction: 0x01280000
    2a30:	007d0351 	rsbseq	r0, sp, r1, asr r3
    2a34:	421e0006 	andsmi	r0, lr, #6
    2a38:	5f00000e 	svcpl	0x0000000e
    2a3c:	1e00001e 	mcrne	0, 0, r0, cr0, cr14, {0}
    2a40:	00000e5a 	andeq	r0, r0, sl, asr lr
    2a44:	00001e6a 	andeq	r1, r0, sl, ror #28
    2a48:	009e0700 	addseq	r0, lr, r0, lsl #14
    2a4c:	04060000 	streq	r0, [r6], #-0
    2a50:	000001f9 	strdeq	r0, [r0], -r9
    2a54:	0008d707 	andeq	sp, r8, r7, lsl #14
    2a58:	10ff2c00 	rscsne	r2, pc, r0, lsl #24
    2a5c:	ec010000 	stc	0, cr0, [r1], {-0}
    2a60:	00000002 	andeq	r0, r0, r2
    2a64:	00008c00 	andeq	r8, r0, r0, lsl #24
    2a68:	9d9c0100 	ldflss	f0, [ip]
    2a6c:	20000009 	andcs	r0, r0, r9
    2a70:	000011a1 	andeq	r1, r0, r1, lsr #3
    2a74:	f902ec01 			; <UNDEFINED> instruction: 0xf902ec01
    2a78:	3f000001 	svccc	0x00000001
    2a7c:	2200001c 	andcs	r0, r0, #28
    2a80:	00001379 	andeq	r1, r0, r9, ror r3
    2a84:	b502ee01 	strlt	lr, [r2, #-3585]	; 0xfffff1ff
    2a88:	5d000003 	stcpl	0, cr0, [r0, #-12]
    2a8c:	1e00001c 	mcrne	0, 0, r0, cr0, cr12, {0}
    2a90:	00000000 	andeq	r0, r0, r0
    2a94:	00001e48 	andeq	r1, r0, r8, asr #28
    2a98:	00000027 	andeq	r0, r0, r7, lsr #32
    2a9c:	001e7500 	andseq	r7, lr, r0, lsl #10
    2aa0:	00093500 	andeq	r3, r9, r0, lsl #10
    2aa4:	50012800 	andpl	r2, r1, r0, lsl #16
    2aa8:	00007502 	andeq	r7, r0, r2, lsl #10
    2aac:	00000027 	andeq	r0, r0, r7, lsr #32
    2ab0:	001e7500 	andseq	r7, lr, r0, lsl #10
    2ab4:	00094900 	andeq	r4, r9, r0, lsl #18
    2ab8:	50012800 	andpl	r2, r1, r0, lsl #16
    2abc:	00187402 	andseq	r7, r8, r2, lsl #8
    2ac0:	00000027 	andeq	r0, r0, r7, lsr #32
    2ac4:	001e5300 	andseq	r5, lr, r0, lsl #6
    2ac8:	00096600 	andeq	r6, r9, r0, lsl #12
    2acc:	50012800 	andpl	r2, r1, r0, lsl #16
    2ad0:	e2fc0305 	rscs	r0, ip, #335544320	; 0x14000000
    2ad4:	01281fff 	strdeq	r1, [r8, -pc]!
    2ad8:	00750251 	rsbseq	r0, r5, r1, asr r2
    2adc:	00001e00 	andeq	r1, r0, r0, lsl #28
    2ae0:	1e5f0000 	cdpne	0, 5, cr0, cr15, cr0, {0}
    2ae4:	001e0000 	andseq	r0, lr, r0
    2ae8:	ed000000 	stc	0, cr0, [r0, #-0]
    2aec:	1e00001d 	mcrne	0, 0, r0, cr0, cr13, {0}
    2af0:	00000000 	andeq	r0, r0, r0
    2af4:	00001e6a 	andeq	r1, r0, sl, ror #28
    2af8:	0000001e 	andeq	r0, r0, lr, lsl r0
    2afc:	001e4800 	andseq	r4, lr, r0, lsl #16
    2b00:	00001e00 	andeq	r1, r0, r0, lsl #28
    2b04:	039b0000 	orrseq	r0, fp, #0
    2b08:	001e0000 	andseq	r0, lr, r0
    2b0c:	5f000000 	svcpl	0x00000000
    2b10:	0000001e 	andeq	r0, r0, lr, lsl r0
    2b14:	000e581f 	andeq	r5, lr, pc, lsl r8
    2b18:	04260100 	strteq	r0, [r6], #-256	; 0xffffff00
    2b1c:	00000105 	andeq	r0, r0, r5, lsl #2
    2b20:	00000000 	andeq	r0, r0, r0
    2b24:	00000020 	andeq	r0, r0, r0, lsr #32
    2b28:	09fa9c01 	ldmibeq	sl!, {r0, sl, fp, ip, pc}^
    2b2c:	c7200000 	strgt	r0, [r0, -r0]!
    2b30:	01000010 	tsteq	r0, r0, lsl r0
    2b34:	01f90426 	mvnseq	r0, r6, lsr #8
    2b38:	1c7d0000 	ldclne	0, cr0, [sp], #-0
    2b3c:	79220000 	stmdbvc	r2!, {}	; <UNPREDICTABLE>
    2b40:	01000013 	tsteq	r0, r3, lsl r0
    2b44:	03b50428 			; <UNDEFINED> instruction: 0x03b50428
    2b48:	1c9b0000 	ldcne	0, cr0, [fp], {0}
    2b4c:	fc220000 	stc2	0, cr0, [r2], #-0
    2b50:	01000005 	tsteq	r0, r5
    2b54:	01050429 	tsteq	r5, r9, lsr #8
    2b58:	1cae0000 	stcne	0, cr0, [lr]
    2b5c:	001e0000 	andseq	r0, lr, r0
    2b60:	48000000 	stmdami	r0, {}	; <UNPREDICTABLE>
    2b64:	1e00001e 	mcrne	0, 0, r0, cr0, cr14, {0}
    2b68:	00000000 	andeq	r0, r0, r0
    2b6c:	00001e5f 	andeq	r1, r0, pc, asr lr
    2b70:	10341f00 	eorsne	r1, r4, r0, lsl #30
    2b74:	3c010000 	stccc	0, cr0, [r1], {-0}
    2b78:	00010504 	andeq	r0, r1, r4, lsl #10
    2b7c:	00000000 	andeq	r0, r0, r0
    2b80:	00002000 	andeq	r2, r0, r0
    2b84:	679c0100 	ldrvs	r0, [ip, r0, lsl #2]
    2b88:	2000000a 	andcs	r0, r0, sl
    2b8c:	000010c7 	andeq	r1, r0, r7, asr #1
    2b90:	f9043c01 			; <UNDEFINED> instruction: 0xf9043c01
    2b94:	cc000001 	stcgt	0, cr0, [r0], {1}
    2b98:	2200001c 	andcs	r0, r0, #28
    2b9c:	00001379 	andeq	r1, r0, r9, ror r3
    2ba0:	b5043e01 	strlt	r3, [r4, #-3585]	; 0xfffff1ff
    2ba4:	ea000003 	b	2bb8 <__exidx_end+0xe10>
    2ba8:	2200001c 	andcs	r0, r0, #28
    2bac:	000005fc 	strdeq	r0, [r0], -ip
    2bb0:	05043f01 	streq	r3, [r4, #-3841]	; 0xfffff0ff
    2bb4:	fd000001 	stc2	0, cr0, [r0, #-4]
    2bb8:	2200001c 	andcs	r0, r0, #28
    2bbc:	00000d77 	andeq	r0, r0, r7, ror sp
    2bc0:	05043f01 	streq	r3, [r4, #-3841]	; 0xfffff0ff
    2bc4:	1b000001 	blne	2bd0 <__exidx_end+0xe28>
    2bc8:	1e00001d 	mcrne	0, 0, r0, cr0, cr13, {0}
    2bcc:	00000000 	andeq	r0, r0, r0
    2bd0:	00001ded 	andeq	r1, r0, sp, ror #27
    2bd4:	0000001e 	andeq	r0, r0, lr, lsl r0
    2bd8:	001e8100 	andseq	r8, lr, r0, lsl #2
    2bdc:	9b2c0000 	blls	b02be4 <__exidx_end+0xb00e3c>
    2be0:	01000010 	tsteq	r0, r0, lsl r0
    2be4:	00000464 	andeq	r0, r0, r4, ror #8
    2be8:	00a40000 	adceq	r0, r4, r0
    2bec:	9c010000 	stcls	0, cr0, [r1], {-0}
    2bf0:	00000b2a 	andeq	r0, r0, sl, lsr #22
    2bf4:	0010c720 	andseq	ip, r0, r0, lsr #14
    2bf8:	04640100 	strbteq	r0, [r4], #-256	; 0xffffff00
    2bfc:	000001f9 	strdeq	r0, [r0], -r9
    2c00:	00001d2e 	andeq	r1, r0, lr, lsr #26
    2c04:	000fe320 	andeq	lr, pc, r0, lsr #6
    2c08:	04640100 	strbteq	r0, [r4], #-256	; 0xffffff00
    2c0c:	00000105 	andeq	r0, r0, r5, lsl #2
    2c10:	00001d62 	andeq	r1, r0, r2, ror #26
    2c14:	00137922 	andseq	r7, r3, r2, lsr #18
    2c18:	04660100 	strbteq	r0, [r6], #-256	; 0xffffff00
    2c1c:	000003b5 			; <UNDEFINED> instruction: 0x000003b5
    2c20:	00001db1 			; <UNDEFINED> instruction: 0x00001db1
    2c24:	00141122 	andseq	r1, r4, r2, lsr #2
    2c28:	04670100 	strbteq	r0, [r7], #-256	; 0xffffff00
    2c2c:	00000105 	andeq	r0, r0, r5, lsl #2
    2c30:	00001dc4 	andeq	r1, r0, r4, asr #27
    2c34:	0012be22 	andseq	fp, r2, r2, lsr #28
    2c38:	04670100 	strbteq	r0, [r7], #-256	; 0xffffff00
    2c3c:	00000105 	andeq	r0, r0, r5, lsl #2
    2c40:	00001dd7 	ldrdeq	r1, [r0], -r7
    2c44:	00063422 	andeq	r3, r6, r2, lsr #8
    2c48:	04680100 	strbteq	r0, [r8], #-256	; 0xffffff00
    2c4c:	000000fa 	strdeq	r0, [r0], -sl
    2c50:	00001dea 	andeq	r1, r0, sl, ror #27
    2c54:	0000001e 	andeq	r0, r0, lr, lsl r0
    2c58:	001ded00 	andseq	lr, sp, r0, lsl #26
    2c5c:	00001e00 	andeq	r1, r0, r0, lsl #28
    2c60:	1e480000 	cdpne	0, 4, cr0, cr8, cr0, {0}
    2c64:	00270000 	eoreq	r0, r7, r0
    2c68:	75000000 	strvc	r0, [r0, #-0]
    2c6c:	0300001e 	movweq	r0, #30
    2c70:	2800000b 	stmdacs	r0, {r0, r1, r3}
    2c74:	75025001 	strvc	r5, [r2, #-1]
    2c78:	00270000 	eoreq	r0, r7, r0
    2c7c:	53000000 	movwpl	r0, #0
    2c80:	1700001e 	smladne	r0, lr, r0, r0
    2c84:	2800000b 	stmdacs	r0, {r0, r1, r3}
    2c88:	75025101 	strvc	r5, [r2, #-257]	; 0xfffffeff
    2c8c:	001e0000 	andseq	r0, lr, r0
    2c90:	6a000000 	bvs	2c98 <__exidx_end+0xef0>
    2c94:	1e00001e 	mcrne	0, 0, r0, cr0, cr14, {0}
    2c98:	00000000 	andeq	r0, r0, r0
    2c9c:	00001e5f 	andeq	r1, r0, pc, asr lr
    2ca0:	13b02c00 	movsne	r2, #0, 24
    2ca4:	8f010000 	svchi	0x00010000
    2ca8:	00000005 	andeq	r0, r0, r5
    2cac:	00006400 	andeq	r6, r0, r0, lsl #8
    2cb0:	c19c0100 	orrsgt	r0, ip, r0, lsl #2
    2cb4:	2000000b 	andcs	r0, r0, fp
    2cb8:	00000ce1 	andeq	r0, r0, r1, ror #25
    2cbc:	f9058f01 			; <UNDEFINED> instruction: 0xf9058f01
    2cc0:	09000001 	stmdbeq	r0, {r0}
    2cc4:	2200001e 	andcs	r0, r0, #30
    2cc8:	00001379 	andeq	r1, r0, r9, ror r3
    2ccc:	5a059101 	bpl	1670d8 <__exidx_end+0x165330>
    2cd0:	4b000004 	blmi	2ce8 <__exidx_end+0xf40>
    2cd4:	1e00001e 	mcrne	0, 0, r0, cr0, cr14, {0}
    2cd8:	00000000 	andeq	r0, r0, r0
    2cdc:	00001ded 	andeq	r1, r0, sp, ror #27
    2ce0:	0000001e 	andeq	r0, r0, lr, lsl r0
    2ce4:	001e4800 	andseq	r4, lr, r0, lsl #16
    2ce8:	00002700 	andeq	r2, r0, r0, lsl #14
    2cec:	03bb0000 			; <UNDEFINED> instruction: 0x03bb0000
    2cf0:	0b860000 	bleq	fe182cf8 <__stack+0xde17ccf8>
    2cf4:	01280000 			; <UNDEFINED> instruction: 0x01280000
    2cf8:	00740250 	rsbseq	r0, r4, r0, asr r2
    2cfc:	00002700 	andeq	r2, r0, r0, lsl #14
    2d00:	1e750000 	cdpne	0, 7, cr0, cr5, cr0, {0}
    2d04:	0b9a0000 	bleq	fe682d0c <__stack+0xde67cd0c>
    2d08:	01280000 			; <UNDEFINED> instruction: 0x01280000
    2d0c:	00760250 	rsbseq	r0, r6, r0, asr r2
    2d10:	00002700 	andeq	r2, r0, r0, lsl #14
    2d14:	1e530000 	cdpne	0, 5, cr0, cr3, cr0, {0}
    2d18:	0bae0000 	bleq	feb82d20 <__stack+0xdeb7cd20>
    2d1c:	01280000 			; <UNDEFINED> instruction: 0x01280000
    2d20:	00760251 	rsbseq	r0, r6, r1, asr r2
    2d24:	00001e00 	andeq	r1, r0, r0, lsl #28
    2d28:	1e6a0000 	cdpne	0, 6, cr0, cr10, cr0, {0}
    2d2c:	001e0000 	andseq	r0, lr, r0
    2d30:	5f000000 	svcpl	0x00000000
    2d34:	0000001e 	andeq	r0, r0, lr, lsl r0
    2d38:	000dd81f 	andeq	sp, sp, pc, lsl r8
    2d3c:	05c50100 	strbeq	r0, [r5, #256]	; 0x100
    2d40:	000000fa 	strdeq	r0, [r0], -sl
    2d44:	00000000 	andeq	r0, r0, r0
    2d48:	0000007c 	andeq	r0, r0, ip, ror r0
    2d4c:	0c6f9c01 	stcleq	12, cr9, [pc], #-4	; 2d50 <__exidx_end+0xfa8>
    2d50:	e1200000 			; <UNDEFINED> instruction: 0xe1200000
    2d54:	0100000c 	tsteq	r0, ip
    2d58:	01f905c5 	mvnseq	r0, r5, asr #11
    2d5c:	1e8d0000 	cdpne	0, 8, cr0, cr13, cr0, {0}
    2d60:	34220000 	strtcc	r0, [r2], #-0
    2d64:	01000006 	tsteq	r0, r6
    2d68:	00fa05c7 	rscseq	r0, sl, r7, asr #11
    2d6c:	1ecf0000 	cdpne	0, 12, cr0, cr15, cr0, {0}
    2d70:	79220000 	stmdbvc	r2!, {}	; <UNPREDICTABLE>
    2d74:	01000013 	tsteq	r0, r3, lsl r0
    2d78:	045a05c8 	ldrbeq	r0, [sl], #-1480	; 0xfffffa38
    2d7c:	1f100000 	svcne	0x00100000
    2d80:	1d220000 	stcne	0, cr0, [r2, #-0]
    2d84:	01000006 	tsteq	r0, r6
    2d88:	010505c9 	smlabteq	r5, r9, r5, r0
    2d8c:	1f520000 	svcne	0x00520000
    2d90:	001e0000 	andseq	r0, lr, r0
    2d94:	ed000000 	stc	0, cr0, [r0, #-0]
    2d98:	1e00001d 	mcrne	0, 0, r0, cr0, cr13, {0}
    2d9c:	00000000 	andeq	r0, r0, r0
    2da0:	00001ded 	andeq	r1, r0, sp, ror #27
    2da4:	00000027 	andeq	r0, r0, r7, lsr #32
    2da8:	0003bb00 	andeq	fp, r3, r0, lsl #22
    2dac:	000c4100 	andeq	r4, ip, r0, lsl #2
    2db0:	50012800 	andpl	r2, r1, r0, lsl #16
    2db4:	00007402 	andeq	r7, r0, r2, lsl #8
    2db8:	00000027 	andeq	r0, r0, r7, lsr #32
    2dbc:	001e7500 	andseq	r7, lr, r0, lsl #10
    2dc0:	000c5500 	andeq	r5, ip, r0, lsl #10
    2dc4:	50012800 	andpl	r2, r1, r0, lsl #16
    2dc8:	00007702 	andeq	r7, r0, r2, lsl #14
    2dcc:	0000001e 	andeq	r0, r0, lr, lsl r0
    2dd0:	001e5300 	andseq	r5, lr, r0, lsl #6
    2dd4:	00002900 	andeq	r2, r0, r0, lsl #18
    2dd8:	1e810000 	cdpne	0, 8, cr0, cr1, cr0, {0}
    2ddc:	01280000 			; <UNDEFINED> instruction: 0x01280000
    2de0:	00760250 	rsbseq	r0, r6, r0, asr r2
    2de4:	852c0000 	strhi	r0, [ip, #-0]!
    2de8:	01000003 	tsteq	r0, r3
    2dec:	0e98060b 	cdpeq	6, 9, cr0, cr8, cr11, {0}
    2df0:	005c0000 	subseq	r0, ip, r0
    2df4:	9c010000 	stcls	0, cr0, [r1], {-0}
    2df8:	00000d02 	andeq	r0, r0, r2, lsl #26
    2dfc:	00073b22 	andeq	r3, r7, r2, lsr #22
    2e00:	060d0100 	streq	r0, [sp], -r0, lsl #2
    2e04:	000000fa 	strdeq	r0, [r0], -sl
    2e08:	00001f70 	andeq	r1, r0, r0, ror pc
    2e0c:	000eb227 	andeq	fp, lr, r7, lsr #4
    2e10:	0005f200 	andeq	pc, r5, r0, lsl #4
    2e14:	000cdd00 	andeq	sp, ip, r0, lsl #26
    2e18:	50012800 	andpl	r2, r1, r0, lsl #16
    2e1c:	113d0305 	teqne	sp, r5, lsl #6
    2e20:	01280000 			; <UNDEFINED> instruction: 0x01280000
    2e24:	8a030551 	bhi	c4370 <__exidx_end+0xc25c8>
    2e28:	2800001d 	stmdacs	r0, {r0, r2, r3, r4}
    2e2c:	08025201 	stmdaeq	r2, {r0, r9, ip, lr}
    2e30:	530128c8 	movwpl	r2, #6344	; 0x18c8
    2e34:	28007402 	stmdacs	r0, {r1, sl, ip, sp, lr}
    2e38:	02007d02 	andeq	r7, r0, #2, 26	; 0x80
    2e3c:	02280074 	eoreq	r0, r8, #116	; 0x74
    2e40:	7402047d 	strvc	r0, [r2], #-1149	; 0xfffffb83
    2e44:	7d022800 	stcvc	8, cr2, [r2, #-0]
    2e48:	00740208 	rsbseq	r0, r4, r8, lsl #4
    2e4c:	0c7d0228 	lfmeq	f0, 2, [sp], #-160	; 0xffffff60
    2e50:	00007402 	andeq	r7, r0, r2, lsl #8
    2e54:	000ebc1e 	andeq	fp, lr, lr, lsl ip
    2e58:	001e8c00 	andseq	r8, lr, r0, lsl #24
    2e5c:	0ec61e00 	cdpeq	14, 12, cr1, cr6, cr0, {0}
    2e60:	1ded0000 	stclne	0, cr0, [sp]
    2e64:	d21e0000 	andsle	r0, lr, #0
    2e68:	9800000e 	stmdals	r0, {r1, r2, r3}
    2e6c:	1e00001e 	mcrne	0, 0, r0, cr0, cr14, {0}
    2e70:	00000edc 	ldrdeq	r0, [r0], -ip
    2e74:	00001ded 	andeq	r1, r0, sp, ror #27
    2e78:	0e462c00 	cdpeq	12, 4, cr2, cr6, cr0, {0}
    2e7c:	59010000 	stmdbpl	r1, {}	; <UNPREDICTABLE>
    2e80:	00000006 	andeq	r0, r0, r6
    2e84:	00001800 	andeq	r1, r0, r0, lsl #16
    2e88:	2b9c0100 	blcs	fe703290 <__stack+0xde6fd290>
    2e8c:	1e00000d 	cdpne	0, 0, cr0, cr0, cr13, {0}
    2e90:	00000000 	andeq	r0, r0, r0
    2e94:	00001ded 	andeq	r1, r0, sp, ror #27
    2e98:	0000001e 	andeq	r0, r0, lr, lsl r0
    2e9c:	001ea300 	andseq	sl, lr, r0, lsl #6
    2ea0:	5d2d0000 	stcpl	0, cr0, [sp, #-0]
    2ea4:	01000004 	tsteq	r0, r4
    2ea8:	0ef40664 	cdpeq	6, 15, cr0, cr4, cr4, {3}
    2eac:	00100000 	andseq	r0, r0, r0
    2eb0:	9c010000 	stcls	0, cr0, [r1], {-0}
    2eb4:	00104d1f 	andseq	r4, r0, pc, lsl sp
    2eb8:	06e70100 	strbteq	r0, [r7], r0, lsl #2
    2ebc:	00000110 	andeq	r0, r0, r0, lsl r1
    2ec0:	00000f04 	andeq	r0, r0, r4, lsl #30
    2ec4:	00000018 	andeq	r0, r0, r8, lsl r0
    2ec8:	0d7a9c01 	ldcleq	12, cr9, [sl, #-4]!
    2ecc:	34220000 	strtcc	r0, [r2], #-0
    2ed0:	01000012 	tsteq	r0, r2, lsl r0
    2ed4:	011006e9 	tsteq	r0, r9, ror #13
    2ed8:	1fba0000 	svcne	0x00ba0000
    2edc:	0a1e0000 	beq	782ee4 <__exidx_end+0x78113c>
    2ee0:	4800000f 	stmdami	r0, {r0, r1, r2, r3}
    2ee4:	1e00001e 	mcrne	0, 0, r0, cr0, cr14, {0}
    2ee8:	00000f12 	andeq	r0, r0, r2, lsl pc
    2eec:	00001e5f 	andeq	r1, r0, pc, asr lr
    2ef0:	0d5e1f00 	ldcleq	15, cr1, [lr, #-0]
    2ef4:	f6010000 			; <UNDEFINED> instruction: 0xf6010000
    2ef8:	00011006 	andeq	r1, r1, r6
    2efc:	00000000 	andeq	r0, r0, r0
    2f00:	00001800 	andeq	r1, r0, r0, lsl #16
    2f04:	c79c0100 	ldrgt	r0, [ip, r0, lsl #2]
    2f08:	2200000d 	andcs	r0, r0, #13
    2f0c:	0000073b 	andeq	r0, r0, fp, lsr r7
    2f10:	1006f801 	andne	pc, r6, r1, lsl #16
    2f14:	d8000001 	stmdale	r0, {r0}
    2f18:	2200001f 	andcs	r0, r0, #31
    2f1c:	0000061d 	andeq	r0, r0, sp, lsl r6
    2f20:	0506f901 	streq	pc, [r6, #-2305]	; 0xfffff6ff
    2f24:	f6000001 			; <UNDEFINED> instruction: 0xf6000001
    2f28:	1e00001f 	mcrne	0, 0, r0, cr0, cr15, {0}
    2f2c:	00000000 	andeq	r0, r0, r0
    2f30:	00001ded 	andeq	r1, r0, sp, ror #27
    2f34:	0000001e 	andeq	r0, r0, lr, lsl r0
    2f38:	001e8100 	andseq	r8, lr, r0, lsl #2
    2f3c:	dc2e0000 	stcle	0, cr0, [lr], #-0
    2f40:	0100000b 	tsteq	r0, fp
    2f44:	01050715 	tsteq	r5, r5, lsl r7
    2f48:	00000000 	andeq	r0, r0, r0
    2f4c:	000c0000 	andeq	r0, ip, r0
    2f50:	9c010000 	stcls	0, cr0, [r1], {-0}
    2f54:	000c751f 	andeq	r7, ip, pc, lsl r5
    2f58:	07960100 	ldreq	r0, [r6, r0, lsl #2]
    2f5c:	000000fa 	strdeq	r0, [r0], -sl
    2f60:	00000f1c 	andeq	r0, r0, ip, lsl pc
    2f64:	00000104 	andeq	r0, r0, r4, lsl #2
    2f68:	0ea79c01 	cdpeq	12, 10, cr9, cr7, cr1, {0}
    2f6c:	79220000 	stmdbvc	r2!, {}	; <UNPREDICTABLE>
    2f70:	01000013 	tsteq	r0, r3, lsl r0
    2f74:	03b50798 			; <UNDEFINED> instruction: 0x03b50798
    2f78:	20090000 	andcs	r0, r9, r0
    2f7c:	0c220000 	stceq	0, cr0, [r2], #-0
    2f80:	01000009 	tsteq	r0, r9
    2f84:	01100799 			; <UNDEFINED> instruction: 0x01100799
    2f88:	20270000 	eorcs	r0, r7, r0
    2f8c:	7b220000 	blvc	882f94 <__exidx_end+0x8811ec>
    2f90:	01000011 	tsteq	r0, r1, lsl r0
    2f94:	00fa079a 	smlalseq	r0, sl, sl, r7
    2f98:	20510000 	subscs	r0, r1, r0
    2f9c:	a0250000 	eorge	r0, r5, r0
    2fa0:	22000001 	andcs	r0, r0, #1
    2fa4:	00000e6a 	andeq	r0, r0, sl, ror #28
    2fa8:	8e07a901 	cdphi	9, 0, cr10, cr7, cr1, {0}
    2fac:	9d000004 	stcls	0, cr0, [r0, #-16]
    2fb0:	1d000020 	stcne	0, cr0, [r0, #-128]	; 0xffffff80
    2fb4:	00000f34 	andeq	r0, r0, r4, lsr pc
    2fb8:	00000026 	andeq	r0, r0, r6, lsr #32
    2fbc:	00000e6c 	andeq	r0, r0, ip, ror #28
    2fc0:	00124922 	andseq	r4, r2, r2, lsr #18
    2fc4:	07ad0100 	streq	r0, [sp, r0, lsl #2]!
    2fc8:	000004af 	andeq	r0, r0, pc, lsr #9
    2fcc:	000020bb 	strheq	r2, [r0], -fp
    2fd0:	000f421e 	andeq	r4, pc, lr, lsl r2	; <UNPREDICTABLE>
    2fd4:	001ded00 	andseq	lr, sp, r0, lsl #26
    2fd8:	0f5a1e00 	svceq	0x005a1e00
    2fdc:	039b0000 	orrseq	r0, fp, #0
    2fe0:	27000000 	strcs	r0, [r0, -r0]
    2fe4:	00000fb8 			; <UNDEFINED> instruction: 0x00000fb8
    2fe8:	00001e75 	andeq	r1, r0, r5, ror lr
    2fec:	00000e81 	andeq	r0, r0, r1, lsl #29
    2ff0:	03500128 	cmpeq	r0, #40, 2
    2ff4:	00066491 	muleq	r6, r1, r4
    2ff8:	000fc627 	andeq	ip, pc, r7, lsr #12
    2ffc:	001e7500 	andseq	r7, lr, r0, lsl #10
    3000:	000e9500 	andeq	r9, lr, r0, lsl #10
    3004:	50012800 	andpl	r2, r1, r0, lsl #16
    3008:	00187402 	andseq	r7, r8, r2, lsl #8
    300c:	000fe029 	andeq	lr, pc, r9, lsr #32
    3010:	001e5300 	andseq	r5, lr, r0, lsl #6
    3014:	51012800 	tstpl	r1, r0, lsl #16
    3018:	00047402 	andeq	r7, r4, r2, lsl #8
    301c:	8f1f0000 	svchi	0x001f0000
    3020:	01000004 	tsteq	r0, r4
    3024:	00fa068a 	rscseq	r0, sl, sl, lsl #13
    3028:	10200000 	eorne	r0, r0, r0
    302c:	00d00000 	sbcseq	r0, r0, r0
    3030:	9c010000 	stcls	0, cr0, [r1], {-0}
    3034:	00000f4b 	andeq	r0, r0, fp, asr #30
    3038:	00137922 	andseq	r7, r3, r2, lsr #18
    303c:	068c0100 	streq	r0, [ip], r0, lsl #2
    3040:	000003b5 			; <UNDEFINED> instruction: 0x000003b5
    3044:	000020ce 	andeq	r2, r0, lr, asr #1
    3048:	0012f422 	andseq	pc, r2, r2, lsr #8
    304c:	068d0100 	streq	r0, [sp], r0, lsl #2
    3050:	000000fa 	strdeq	r0, [r0], -sl
    3054:	000020e1 	andeq	r2, r0, r1, ror #1
    3058:	00102e1e 	andseq	r2, r0, lr, lsl lr
    305c:	001ded00 	andseq	lr, sp, r0, lsl #26
    3060:	10341e00 	eorsne	r1, r4, r0, lsl #28
    3064:	1e480000 	cdpne	0, 4, cr0, cr8, cr0, {0}
    3068:	66270000 	strtvs	r0, [r7], -r0
    306c:	75000010 	strvc	r0, [r0, #-16]
    3070:	0700001e 	smladeq	r0, lr, r0, r0
    3074:	2800000f 	stmdacs	r0, {r0, r1, r2, r3}
    3078:	74025001 	strvc	r5, [r2], #-1
    307c:	6c270018 	stcvs	0, cr0, [r7], #-96	; 0xffffffa0
    3080:	75000010 	strvc	r0, [r0, #-16]
    3084:	1b00001e 	blne	3104 <__exidx_end+0x135c>
    3088:	2800000f 	stmdacs	r0, {r0, r1, r2, r3}
    308c:	75025001 	strvc	r5, [r2, #-1]
    3090:	84270000 	strthi	r0, [r7], #-0
    3094:	53000010 	movwpl	r0, #16
    3098:	2f00001e 	svccs	0x0000001e
    309c:	2800000f 	stmdacs	r0, {r0, r1, r2, r3}
    30a0:	75025101 	strvc	r5, [r2, #-257]	; 0xfffffeff
    30a4:	aa1e0000 	bge	7830ac <__exidx_end+0x781304>
    30a8:	6a000010 	bvs	30f0 <__exidx_end+0x1348>
    30ac:	1e00001e 	mcrne	0, 0, r0, cr0, cr14, {0}
    30b0:	000010b8 	strheq	r1, [r0], -r8
    30b4:	00000ddd 	ldrdeq	r0, [r0], -sp
    30b8:	0010cc1e 	andseq	ip, r0, lr, lsl ip
    30bc:	001e5f00 	andseq	r5, lr, r0, lsl #30
    30c0:	ae2c0000 	cdpge	0, 2, cr0, cr12, cr0, {0}
    30c4:	01000012 	tsteq	r0, r2, lsl r0
    30c8:	0000033e 	andeq	r0, r0, lr, lsr r3
    30cc:	007c0000 	rsbseq	r0, ip, r0
    30d0:	9c010000 	stcls	0, cr0, [r1], {-0}
    30d4:	0000101b 	andeq	r1, r0, fp, lsl r0
    30d8:	0011d820 	andseq	sp, r1, r0, lsr #16
    30dc:	033e0100 	teqeq	lr, #0, 2
    30e0:	00001021 	andeq	r1, r0, r1, lsr #32
    30e4:	00002123 	andeq	r2, r0, r3, lsr #2
    30e8:	00135e20 	andseq	r5, r3, r0, lsr #28
    30ec:	033e0100 	teqeq	lr, #0, 2
    30f0:	0000048e 	andeq	r0, r0, lr, lsl #9
    30f4:	00002191 	muleq	r0, r1, r1
    30f8:	00136d22 	andseq	r6, r3, r2, lsr #26
    30fc:	03400100 	movteq	r0, #256	; 0x100
    3100:	00000110 	andeq	r0, r0, r0, lsl r1
    3104:	000021ff 	strdeq	r2, [r0], -pc	; <UNPREDICTABLE>
    3108:	0012f422 	andseq	pc, r2, r2, lsr #8
    310c:	03410100 	movteq	r0, #4352	; 0x1100
    3110:	000000fa 	strdeq	r0, [r0], -sl
    3114:	00002212 	andeq	r2, r0, r2, lsl r2
    3118:	000efe22 	andeq	pc, lr, r2, lsr #28
    311c:	03410100 	movteq	r0, #4352	; 0x1100
    3120:	000000fa 	strdeq	r0, [r0], -sl
    3124:	00002225 	andeq	r2, r0, r5, lsr #4
    3128:	0001c026 	andeq	ip, r1, r6, lsr #32
    312c:	000fe400 	andeq	lr, pc, r0, lsl #8
    3130:	0e6a2200 	cdpeq	2, 6, cr2, cr10, cr0, {0}
    3134:	4b010000 	blmi	4313c <__exidx_end+0x41394>
    3138:	00048e03 	andeq	r8, r4, r3, lsl #28
    313c:	00223900 	eoreq	r3, r2, r0, lsl #18
    3140:	00001e00 	andeq	r1, r0, r0, lsl #28
    3144:	1e750000 	cdpne	0, 7, cr0, cr5, cr0, {0}
    3148:	00290000 	eoreq	r0, r9, r0
    314c:	74000000 	strvc	r0, [r0], #-0
    3150:	28000004 	stmdacs	r0, {r2}
    3154:	74025001 	strvc	r5, [r2], #-1
    3158:	1e000000 	cdpne	0, 0, cr0, cr0, cr0, {0}
    315c:	00000000 	andeq	r0, r0, r0
    3160:	00001ded 	andeq	r1, r0, sp, ror #27
    3164:	0000001e 	andeq	r0, r0, lr, lsl r0
    3168:	001ded00 	andseq	lr, sp, r0, lsl #26
    316c:	00001e00 	andeq	r1, r0, r0, lsl #28
    3170:	1ded0000 	stclne	0, cr0, [sp]
    3174:	001e0000 	andseq	r0, lr, r0
    3178:	2b000000 	blcs	3180 <__exidx_end+0x13d8>
    317c:	1e00000d 	cdpne	0, 0, cr0, cr0, cr13, {0}
    3180:	00000000 	andeq	r0, r0, r0
    3184:	00000ea7 	andeq	r0, r0, r7, lsr #29
    3188:	0000001e 	andeq	r0, r0, lr, lsl r0
    318c:	001e6a00 	andseq	r6, lr, r0, lsl #20
    3190:	04060000 	streq	r0, [r6], #-0
    3194:	00000110 	andeq	r0, r0, r0, lsl r1
    3198:	00101b07 	andseq	r1, r0, r7, lsl #22
    319c:	033f2c00 	teqeq	pc, #0, 24
    31a0:	9e010000 	cdpls	0, 0, cr0, cr1, cr0, {0}
    31a4:	0010f003 	andseq	pc, r0, r3
    31a8:	00004c00 	andeq	r4, r0, r0, lsl #24
    31ac:	ae9c0100 	fmlgee	f0, f4, f0
    31b0:	20000010 	andcs	r0, r0, r0, lsl r0
    31b4:	00001026 	andeq	r1, r0, r6, lsr #32
    31b8:	8e039e01 	cdphi	14, 0, cr9, cr3, cr1, {0}
    31bc:	4c000004 	stcmi	0, cr0, [r0], {4}
    31c0:	22000022 	andcs	r0, r0, #34	; 0x22
    31c4:	0000136d 	andeq	r1, r0, sp, ror #6
    31c8:	1003a001 	andne	sl, r3, r1
    31cc:	a7000001 	strge	r0, [r0, -r1]
    31d0:	22000022 	andcs	r0, r0, #34	; 0x22
    31d4:	000012f4 	strdeq	r1, [r0], -r4
    31d8:	fa03a101 	blx	eb5e4 <__exidx_end+0xe983c>
    31dc:	ba000000 	blt	31e4 <__exidx_end+0x143c>
    31e0:	1e000022 	cdpne	0, 0, cr0, cr0, cr2, {1}
    31e4:	000010fa 	strdeq	r1, [r0], -sl
    31e8:	00001e6a 	andeq	r1, r0, sl, ror #28
    31ec:	0011081e 	andseq	r0, r1, lr, lsl r8
    31f0:	001ded00 	andseq	lr, sp, r0, lsl #26
    31f4:	110e1e00 	tstne	lr, r0, lsl #28
    31f8:	0d2b0000 	stceq	0, cr0, [fp, #-0]
    31fc:	1e1e0000 	cdpne	0, 1, cr0, cr14, cr0, {0}
    3200:	75000011 	strvc	r0, [r0, #-17]	; 0xffffffef
    3204:	2700001e 	smladcs	r0, lr, r0, r0
    3208:	00001124 	andeq	r1, r0, r4, lsr #2
    320c:	00000474 	andeq	r0, r0, r4, ror r4
    3210:	000010a4 	andeq	r1, r0, r4, lsr #1
    3214:	02500128 	subseq	r0, r0, #40, 2
    3218:	1e000074 	mcrne	0, 0, r0, cr0, cr4, {3}
    321c:	00001128 	andeq	r1, r0, r8, lsr #2
    3220:	00000ea7 	andeq	r0, r0, r7, lsr #29
    3224:	13f11100 	mvnsne	r1, #0, 2
    3228:	8d010000 	stchi	0, cr0, [r1, #-0]
    322c:	10d8010b 	sbcsne	r0, r8, fp, lsl #2
    3230:	12170000 	andsne	r0, r7, #0
    3234:	00000f17 	andeq	r0, r0, r7, lsl pc
    3238:	fa0b9101 	blx	2e7644 <__exidx_end+0x2e589c>
    323c:	17000000 	strne	r0, [r0, -r0]
    3240:	00137912 	andseq	r7, r3, r2, lsl r9
    3244:	0b9f0100 	bleq	fe7c364c <__stack+0xde7bd64c>
    3248:	000003b5 			; <UNDEFINED> instruction: 0x000003b5
    324c:	11000000 	mrsne	r0, (UNDEF: 0)
    3250:	000012da 	ldrdeq	r1, [r0], -sl
    3254:	010ca601 	tsteq	ip, r1, lsl #12
    3258:	000010f2 	strdeq	r1, [r0], -r2
    325c:	00137914 	andseq	r7, r3, r4, lsl r9
    3260:	0ca60100 	stfeqs	f0, [r6]
    3264:	000003b5 			; <UNDEFINED> instruction: 0x000003b5
    3268:	0f0b2f00 	svceq	0x000b2f00
    326c:	66010000 	strvs	r0, [r1], -r0
    3270:	00113c0a 	andseq	r3, r1, sl, lsl #24
    3274:	00006800 	andeq	r6, r0, r0, lsl #16
    3278:	d09c0100 	addsle	r0, ip, r0, lsl #2
    327c:	20000011 	andcs	r0, r0, r1, lsl r0
    3280:	000003bb 			; <UNDEFINED> instruction: 0x000003bb
    3284:	9e0a6601 	cfmadd32ls	mvax0, mvfx6, mvfx10, mvfx1
    3288:	e5000000 	str	r0, [r0, #-0]
    328c:	2b000022 	blcs	331c <__exidx_end+0x1574>
    3290:	000010ae 	andeq	r1, r0, lr, lsr #1
    3294:	0000113e 	andeq	r1, r0, lr, lsr r1
    3298:	00000046 	andeq	r0, r0, r6, asr #32
    329c:	c60a6e01 	strgt	r6, [sl], -r1, lsl #28
    32a0:	1a000011 	bne	32ec <__exidx_end+0x1544>
    32a4:	0000113e 	andeq	r1, r0, lr, lsr r1
    32a8:	00000046 	andeq	r0, r0, r6, asr #32
    32ac:	0010bc1b 	andseq	fp, r0, fp, lsl ip
    32b0:	00230600 	eoreq	r0, r3, r0, lsl #12
    32b4:	11561d00 	cmpne	r6, r0, lsl #26
    32b8:	002e0000 	eoreq	r0, lr, r0
    32bc:	11b20000 			; <UNDEFINED> instruction: 0x11b20000
    32c0:	c91b0000 	ldmdbgt	fp, {}	; <UNPREDICTABLE>
    32c4:	20000010 	andcs	r0, r0, r0, lsl r0
    32c8:	2b000023 	blcs	335c <__exidx_end+0x15b4>
    32cc:	000010d8 	ldrdeq	r1, [r0], -r8
    32d0:	00001176 	andeq	r1, r0, r6, ror r1
    32d4:	0000000e 	andeq	r0, r0, lr
    32d8:	8b0baa01 	blhi	2edae4 <__exidx_end+0x2ebd3c>
    32dc:	1c000011 	stcne	0, cr0, [r0], {17}
    32e0:	000010e5 	andeq	r1, r0, r5, ror #1
    32e4:	00002333 	andeq	r2, r0, r3, lsr r3
    32e8:	00117c1e 	andseq	r7, r1, lr, lsl ip
    32ec:	001e0f00 	andseq	r0, lr, r0, lsl #30
    32f0:	11822900 	orrne	r2, r2, r0, lsl #18
    32f4:	1e0f0000 	cdpne	0, 0, cr0, cr15, cr0, {0}
    32f8:	01280000 			; <UNDEFINED> instruction: 0x01280000
    32fc:	00750250 	rsbseq	r0, r5, r0, asr r2
    3300:	5a1e0000 	bpl	783308 <__exidx_end+0x781560>
    3304:	48000011 	stmdami	r0, {r0, r4}
    3308:	2700001e 	smladcs	r0, lr, r0, r0
    330c:	00001164 	andeq	r1, r0, r4, ror #2
    3310:	00001e75 	andeq	r1, r0, r5, ror lr
    3314:	000011a8 	andeq	r1, r0, r8, lsr #3
    3318:	02500128 	subseq	r0, r0, #40, 2
    331c:	1e000475 	mcrne	4, 0, r0, cr0, cr5, {3}
    3320:	00001176 	andeq	r1, r0, r6, ror r1
    3324:	00001e5f 	andeq	r1, r0, pc, asr lr
    3328:	114a1e00 	cmpne	sl, r0, lsl #28
    332c:	0d2b0000 	stceq	0, cr0, [fp, #-0]
    3330:	521e0000 	andspl	r0, lr, #0
    3334:	a7000011 	smladge	r0, r1, r0, r0
    3338:	0000000e 	andeq	r0, r0, lr
    333c:	11901e00 	orrsne	r1, r0, r0, lsl #28
    3340:	1e6a0000 	cdpne	0, 6, cr0, cr10, cr0, {0}
    3344:	18000000 	stmdane	r0, {}	; <UNPREDICTABLE>
    3348:	00000493 	muleq	r0, r3, r4
    334c:	000011a4 	andeq	r1, r0, r4, lsr #3
    3350:	00000078 	andeq	r0, r0, r8, ror r0
    3354:	12049c01 	andne	r9, r4, #256	; 0x100
    3358:	dc1d0000 	ldcle	0, cr0, [sp], {-0}
    335c:	2a000011 	bcs	33a8 <__exidx_end+0x1600>
    3360:	fa000000 	blx	3368 <__exidx_end+0x15c0>
    3364:	1b000011 	blne	33b0 <__exidx_end+0x1608>
    3368:	000004a1 	andeq	r0, r0, r1, lsr #9
    336c:	00002346 	andeq	r2, r0, r6, asr #6
    3370:	11d21e00 	bicsne	r1, r2, r0, lsl #28
    3374:	1ded0000 	stclne	0, cr0, [sp]
    3378:	2c000000 	stccs	0, cr0, [r0], {-0}
    337c:	000012e7 	andeq	r1, r0, r7, ror #5
    3380:	00050801 	andeq	r0, r5, r1, lsl #16
    3384:	90000000 	andls	r0, r0, r0
    3388:	01000000 	mrseq	r0, (UNDEF: 0)
    338c:	0012c59c 	mulseq	r2, ip, r5
    3390:	11b72000 			; <UNDEFINED> instruction: 0x11b72000
    3394:	08010000 	stmdaeq	r1, {}	; <UNPREDICTABLE>
    3398:	0001f905 	andeq	pc, r1, r5, lsl #18
    339c:	00236300 	eoreq	r6, r3, r0, lsl #6
    33a0:	13792200 	cmnne	r9, #0, 4
    33a4:	0a010000 	beq	433ac <__exidx_end+0x41604>
    33a8:	0003b505 	andeq	fp, r3, r5, lsl #10
    33ac:	00238100 	eoreq	r8, r3, r0, lsl #2
    33b0:	00001e00 	andeq	r1, r0, r0, lsl #28
    33b4:	1e480000 	cdpne	0, 4, cr0, cr8, cr0, {0}
    33b8:	00270000 	eoreq	r0, r7, r0
    33bc:	75000000 	strvc	r0, [r0, #-0]
    33c0:	5700001e 	smladpl	r0, lr, r0, r0
    33c4:	28000012 	stmdacs	r0, {r1, r4}
    33c8:	77025001 	strvc	r5, [r2, -r1]
    33cc:	00270000 	eoreq	r0, r7, r0
    33d0:	75000000 	strvc	r0, [r0, #-0]
    33d4:	6b00001e 	blvs	3454 <__exidx_end+0x16ac>
    33d8:	28000012 	stmdacs	r0, {r1, r4}
    33dc:	74025001 	strvc	r5, [r2], #-1
    33e0:	00270018 	eoreq	r0, r7, r8, lsl r0
    33e4:	53000000 	movwpl	r0, #0
    33e8:	8500001e 	strhi	r0, [r0, #-30]	; 0xffffffe2
    33ec:	28000012 	stmdacs	r0, {r1, r4}
    33f0:	76025001 	strvc	r5, [r2], -r1
    33f4:	51012800 	tstpl	r1, r0, lsl #16
    33f8:	00007702 	andeq	r7, r0, r2, lsl #14
    33fc:	0000001e 	andeq	r0, r0, lr, lsl r0
    3400:	001e5f00 	andseq	r5, lr, r0, lsl #30
    3404:	00001e00 	andeq	r1, r0, r0, lsl #28
    3408:	1ded0000 	stclne	0, cr0, [sp]
    340c:	001e0000 	andseq	r0, lr, r0
    3410:	6a000000 	bvs	3418 <__exidx_end+0x1670>
    3414:	1e00001e 	mcrne	0, 0, r0, cr0, cr14, {0}
    3418:	00000000 	andeq	r0, r0, r0
    341c:	00000493 	muleq	r0, r3, r4
    3420:	0000001e 	andeq	r0, r0, lr, lsl r0
    3424:	001e4800 	andseq	r4, lr, r0, lsl #16
    3428:	00001e00 	andeq	r1, r0, r0, lsl #28
    342c:	039b0000 	orrseq	r0, fp, #0
    3430:	001e0000 	andseq	r0, lr, r0
    3434:	5f000000 	svcpl	0x00000000
    3438:	0000001e 	andeq	r0, r0, lr, lsl r0
    343c:	0006ec2c 	andeq	lr, r6, ip, lsr #24
    3440:	08db0100 	ldmeq	fp, {r8}^
    3444:	0000121c 	andeq	r1, r0, ip, lsl r2
    3448:	00000048 	andeq	r0, r0, r8, asr #32
    344c:	13479c01 	movtne	r9, #31745	; 0x7c01
    3450:	23200000 	nopcs	{0}	; <UNPREDICTABLE>
    3454:	0100000c 	tsteq	r0, ip
    3458:	04b508db 	ldrteq	r0, [r5], #2267	; 0x8db
    345c:	23a10000 			; <UNDEFINED> instruction: 0x23a10000
    3460:	92200000 	eorls	r0, r0, #0
    3464:	01000012 	tsteq	r0, r2, lsl r0
    3468:	048e08db 	streq	r0, [lr], #2267	; 0x8db
    346c:	23db0000 	bicscs	r0, fp, #0
    3470:	6d220000 	stcvs	0, cr0, [r2, #-0]
    3474:	01000013 	tsteq	r0, r3, lsl r0
    3478:	011008dd 			; <UNDEFINED> instruction: 0x011008dd
    347c:	241d0000 	ldrcs	r0, [sp], #-0
    3480:	281e0000 	ldmdacs	lr, {}	; <UNPREDICTABLE>
    3484:	ed000012 	stc	0, cr0, [r0, #-72]	; 0xffffffb8
    3488:	1e00001d 	mcrne	0, 0, r0, cr0, cr13, {0}
    348c:	00001234 	andeq	r1, r0, r4, lsr r2
    3490:	00001df8 	strdeq	r1, [r0], -r8
    3494:	00123c1e 	andseq	r3, r2, lr, lsl ip
    3498:	001e7500 	andseq	r7, lr, r0, lsl #10
    349c:	124a2700 	subne	r2, sl, #0, 14
    34a0:	1e530000 	cdpne	0, 5, cr0, cr3, cr0, {0}
    34a4:	133d0000 	teqne	sp, #0
    34a8:	01280000 			; <UNDEFINED> instruction: 0x01280000
    34ac:	3c030550 	cfstr32cc	mvfx0, [r3], {80}	; 0x50
    34b0:	001fffe3 	andseq	pc, pc, r3, ror #31
    34b4:	0012561e 	andseq	r5, r2, lr, lsl r6
    34b8:	00047400 	andeq	r7, r4, r0, lsl #8
    34bc:	502c0000 	eorpl	r0, ip, r0
    34c0:	01000012 	tsteq	r0, r2, lsl r0
    34c4:	00000916 	andeq	r0, r0, r6, lsl r9
    34c8:	00640000 	rsbeq	r0, r4, r0
    34cc:	9c010000 	stcls	0, cr0, [r1], {-0}
    34d0:	000013e2 	andeq	r1, r0, r2, ror #7
    34d4:	000c2320 	andeq	r2, ip, r0, lsr #6
    34d8:	09160100 	ldmdbeq	r6, {r8}
    34dc:	000004af 	andeq	r0, r0, pc, lsr #9
    34e0:	00002440 	andeq	r2, r0, r0, asr #8
    34e4:	00090c20 	andeq	r0, r9, r0, lsr #24
    34e8:	09160100 	ldmdbeq	r6, {r8}
    34ec:	0000048e 	andeq	r0, r0, lr, lsl #9
    34f0:	00002493 	muleq	r0, r3, r4
    34f4:	00129220 	andseq	r9, r2, r0, lsr #4
    34f8:	09160100 	ldmdbeq	r6, {r8}
    34fc:	0000048e 	andeq	r0, r0, lr, lsl #9
    3500:	000024e6 	andeq	r2, r0, r6, ror #9
    3504:	00136d22 	andseq	r6, r3, r2, lsr #26
    3508:	09180100 	ldmdbeq	r8, {r8}
    350c:	00000110 	andeq	r0, r0, r0, lsl r1
    3510:	0000253e 	andeq	r2, r0, lr, lsr r5
    3514:	0000001e 	andeq	r0, r0, lr, lsl r0
    3518:	001ded00 	andseq	lr, sp, r0, lsl #26
    351c:	00001e00 	andeq	r1, r0, r0, lsl #28
    3520:	1ded0000 	stclne	0, cr0, [sp]
    3524:	001e0000 	andseq	r0, lr, r0
    3528:	53000000 	movwpl	r0, #0
    352c:	1e00001e 	mcrne	0, 0, r0, cr0, cr14, {0}
    3530:	00000000 	andeq	r0, r0, r0
    3534:	00001e75 	andeq	r1, r0, r5, ror lr
    3538:	00000027 	andeq	r0, r0, r7, lsr #32
    353c:	001e5300 	andseq	r5, lr, r0, lsl #6
    3540:	0013d800 	andseq	sp, r3, r0, lsl #16
    3544:	50012800 	andpl	r2, r1, r0, lsl #16
    3548:	e33c0305 	teq	ip, #335544320	; 0x14000000
    354c:	1e001fff 	mcrne	15, 0, r1, cr0, cr15, {7}
    3550:	00000000 	andeq	r0, r0, r0
    3554:	00000474 	andeq	r0, r0, r4, ror r4
    3558:	07e22c00 	strbeq	r2, [r2, r0, lsl #24]!
    355c:	5a010000 	bpl	43564 <__exidx_end+0x417bc>
    3560:	00126409 	andseq	r6, r2, r9, lsl #8
    3564:	00003400 	andeq	r3, r0, r0, lsl #8
    3568:	4d9c0100 	ldfmis	f0, [ip]
    356c:	20000014 	andcs	r0, r0, r4, lsl r0
    3570:	00000c23 	andeq	r0, r0, r3, lsr #24
    3574:	b5095a01 	strlt	r5, [r9, #-2561]	; 0xfffff5ff
    3578:	61000004 	tstvs	r0, r4
    357c:	20000025 	andcs	r0, r0, r5, lsr #32
    3580:	00001292 	muleq	r0, r2, r2
    3584:	8e095a01 	vmlahi.f32	s10, s18, s2
    3588:	9b000004 	blls	35a0 <__exidx_end+0x17f8>
    358c:	22000025 	andcs	r0, r0, #37	; 0x25
    3590:	0000136d 	andeq	r1, r0, sp, ror #6
    3594:	10095c01 	andne	r5, r9, r1, lsl #24
    3598:	dd000001 	stcle	0, cr0, [r0, #-4]
    359c:	1e000025 	cdpne	0, 0, cr0, cr0, cr5, {1}
    35a0:	00001270 	andeq	r1, r0, r0, ror r2
    35a4:	00001ded 	andeq	r1, r0, sp, ror #27
    35a8:	00127c1e 	andseq	r7, r2, lr, lsl ip
    35ac:	001e5300 	andseq	r5, lr, r0, lsl #6
    35b0:	12841e00 	addne	r1, r4, #0, 28
    35b4:	1e750000 	cdpne	0, 7, cr0, cr5, cr0, {0}
    35b8:	8e1e0000 	cdphi	0, 1, cr0, cr14, cr0, {0}
    35bc:	74000012 	strvc	r0, [r0], #-18	; 0xffffffee
    35c0:	00000004 	andeq	r0, r0, r4
    35c4:	00075b1f 	andeq	r5, r7, pc, lsl fp
    35c8:	09850100 	stmibeq	r5, {r8}
    35cc:	000000fa 	strdeq	r0, [r0], -sl
    35d0:	00001298 	muleq	r0, r8, r2
    35d4:	00000078 	andeq	r0, r0, r8, ror r0
    35d8:	14d29c01 	ldrbne	r9, [r2], #3073	; 0xc01
    35dc:	23200000 	nopcs	{0}	; <UNPREDICTABLE>
    35e0:	0100000c 	tsteq	r0, ip
    35e4:	14dd0985 	ldrbne	r0, [sp], #2437	; 0x985
    35e8:	26000000 	strcs	r0, [r0], -r0
    35ec:	19220000 	stmdbne	r2!, {}	; <UNPREDICTABLE>
    35f0:	0100000d 	tsteq	r0, sp
    35f4:	03b50987 			; <UNDEFINED> instruction: 0x03b50987
    35f8:	263a0000 	ldrtcs	r0, [sl], -r0
    35fc:	3b220000 	blcc	883604 <__exidx_end+0x88185c>
    3600:	01000007 	tsteq	r0, r7
    3604:	00fa0988 	rscseq	r0, sl, r8, lsl #19
    3608:	264d0000 	strbcs	r0, [sp], -r0
    360c:	a61e0000 	ldrge	r0, [lr], -r0
    3610:	ed000012 	stc	0, cr0, [r0, #-72]	; 0xffffffb8
    3614:	2700001d 	smladcs	r0, sp, r0, r0
    3618:	000012b2 			; <UNDEFINED> instruction: 0x000012b2
    361c:	00001e75 	andeq	r1, r0, r5, ror lr
    3620:	000014b4 			; <UNDEFINED> instruction: 0x000014b4
    3624:	02500128 	subseq	r0, r0, #40, 2
    3628:	27000075 	smlsdxcs	r0, r5, r0, r0
    362c:	000012c2 	andeq	r1, r0, r2, asr #5
    3630:	00001e75 	andeq	r1, r0, r5, ror lr
    3634:	000014c8 	andeq	r1, r0, r8, asr #9
    3638:	02500128 	subseq	r0, r0, #40, 2
    363c:	1e000075 	mcrne	0, 0, r0, cr0, cr5, {3}
    3640:	000012e2 	andeq	r1, r0, r2, ror #5
    3644:	00001e53 	andeq	r1, r0, r3, asr lr
    3648:	d8040600 	stmdale	r4, {r9, sl}
    364c:	07000014 	smladeq	r0, r4, r0, r0
    3650:	000001ee 	andeq	r0, r0, lr, ror #3
    3654:	0014d207 	andseq	sp, r4, r7, lsl #4
    3658:	126f1f00 	rsbne	r1, pc, #0, 30
    365c:	c9010000 	stmdbgt	r1, {}	; <UNPREDICTABLE>
    3660:	0000fa09 	andeq	pc, r0, r9, lsl #20
    3664:	00000000 	andeq	r0, r0, r0
    3668:	00007400 	andeq	r7, r0, r0, lsl #8
    366c:	7c9c0100 	ldfvcs	f0, [ip], {0}
    3670:	20000015 	andcs	r0, r0, r5, lsl r0
    3674:	000013d3 	ldrdeq	r1, [r0], -r3
    3678:	e809c901 	stmda	r9, {r0, r8, fp, lr, pc}
    367c:	6c000001 	stcvs	0, cr0, [r0], {1}
    3680:	20000026 	andcs	r0, r0, r6, lsr #32
    3684:	0000090c 	andeq	r0, r0, ip, lsl #18
    3688:	8e09c901 	cdphi	9, 0, cr12, cr9, cr1, {0}
    368c:	bf000004 	svclt	0x00000004
    3690:	22000026 	andcs	r0, r0, #38	; 0x26
    3694:	00000d19 	andeq	r0, r0, r9, lsl sp
    3698:	b509cb01 	strlt	ip, [r9, #-2817]	; 0xfffff4ff
    369c:	f9000003 			; <UNDEFINED> instruction: 0xf9000003
    36a0:	22000026 	andcs	r0, r0, #38	; 0x26
    36a4:	0000073b 	andeq	r0, r0, fp, lsr r7
    36a8:	fa09cc01 	blx	2766b4 <__exidx_end+0x27490c>
    36ac:	19000000 	stmdbne	r0, {}	; <UNPREDICTABLE>
    36b0:	1e000027 	cdpne	0, 0, cr0, cr0, cr7, {1}
    36b4:	00000000 	andeq	r0, r0, r0
    36b8:	00001ded 	andeq	r1, r0, sp, ror #27
    36bc:	0000001e 	andeq	r0, r0, lr, lsl r0
    36c0:	001ded00 	andseq	lr, sp, r0, lsl #26
    36c4:	00001e00 	andeq	r1, r0, r0, lsl #28
    36c8:	1e750000 	cdpne	0, 7, cr0, cr5, cr0, {0}
    36cc:	00270000 	eoreq	r0, r7, r0
    36d0:	75000000 	strvc	r0, [r0, #-0]
    36d4:	6b00001e 	blvs	3754 <__exidx_end+0x19ac>
    36d8:	28000015 	stmdacs	r0, {r0, r2, r4}
    36dc:	75025001 	strvc	r5, [r2, #-1]
    36e0:	00290000 	eoreq	r0, r9, r0
    36e4:	53000000 	movwpl	r0, #0
    36e8:	2800001e 	stmdacs	r0, {r1, r2, r3, r4}
    36ec:	75025101 	strvc	r5, [r2, #-257]	; 0xfffffeff
    36f0:	2c000000 	stccs	0, cr0, [r0], {-0}
    36f4:	00000584 	andeq	r0, r0, r4, lsl #11
    36f8:	1009f601 	andne	pc, r9, r1, lsl #12
    36fc:	24000013 	strcs	r0, [r0], #-19	; 0xffffffed
    3700:	01000000 	mrseq	r0, (UNDEF: 0)
    3704:	0015ac9c 	mulseq	r5, ip, ip
    3708:	101c2000 	andsne	r2, ip, r0
    370c:	f6010000 			; <UNDEFINED> instruction: 0xf6010000
    3710:	0015b209 	andseq	fp, r5, r9, lsl #4
    3714:	00273800 	eoreq	r3, r7, r0, lsl #16
    3718:	131a1e00 	tstne	sl, #0, 28
    371c:	1ded0000 	stclne	0, cr0, [sp]
    3720:	06000000 	streq	r0, [r0], -r0
    3724:	00025f04 	andeq	r5, r2, r4, lsl #30
    3728:	15ac0700 	strne	r0, [ip, #1792]!	; 0x700
    372c:	3f1f0000 	svccc	0x001f0000
    3730:	01000009 	tsteq	r0, r9
    3734:	00fa09fe 	ldrshteq	r0, [sl], #158	; 0x9e
    3738:	13340000 	teqne	r4, #0
    373c:	00640000 	rsbeq	r0, r4, r0
    3740:	9c010000 	stcls	0, cr0, [r1], {-0}
    3744:	00001654 	andeq	r1, r0, r4, asr r6
    3748:	00101c20 	andseq	r1, r0, r0, lsr #24
    374c:	09fe0100 	ldmibeq	lr!, {r8}^
    3750:	000015b2 			; <UNDEFINED> instruction: 0x000015b2
    3754:	00002764 	andeq	r2, r0, r4, ror #14
    3758:	00129120 	andseq	r9, r2, r0, lsr #2
    375c:	09fe0100 	ldmibeq	lr!, {r8}^
    3760:	00001021 	andeq	r1, r0, r1, lsr #32
    3764:	000027bc 			; <UNDEFINED> instruction: 0x000027bc
    3768:	00073b22 	andeq	r3, r7, r2, lsr #22
    376c:	0a000100 	beq	3b74 <__exidx_end+0x1dcc>
    3770:	000000fa 	strdeq	r0, [r0], -sl
    3774:	00002814 	andeq	r2, r0, r4, lsl r8
    3778:	0013521d 	andseq	r5, r3, sp, lsl r2
    377c:	00003400 	andeq	r3, r0, r0, lsl #8
    3780:	00162f00 	andseq	r2, r6, r0, lsl #30
    3784:	0e6a2200 	cdpeq	2, 6, cr2, cr10, cr0, {0}
    3788:	08010000 	stmdaeq	r1, {}	; <UNPREDICTABLE>
    378c:	00048e0a 	andeq	r8, r4, sl, lsl #28
    3790:	00283e00 	eoreq	r3, r8, r0, lsl #28
    3794:	13842900 	orrne	r2, r4, #0, 18
    3798:	157c0000 	ldrbne	r0, [ip, #-0]!
    379c:	01280000 			; <UNDEFINED> instruction: 0x01280000
    37a0:	00740250 	rsbseq	r0, r4, r0, asr r2
    37a4:	421e0000 	andsmi	r0, lr, #0
    37a8:	ed000013 	stc	0, cr0, [r0, #-76]	; 0xffffffb4
    37ac:	1e00001d 	mcrne	0, 0, r0, cr0, cr13, {0}
    37b0:	0000134c 	andeq	r1, r0, ip, asr #6
    37b4:	00001ded 	andeq	r1, r0, sp, ror #27
    37b8:	0013521e 	andseq	r5, r3, lr, lsl r2
    37bc:	001e4800 	andseq	r4, lr, r0, lsl #16
    37c0:	138a1e00 	orrne	r1, sl, #0, 28
    37c4:	1e5f0000 	cdpne	0, 5, cr0, cr15, cr0, {0}
    37c8:	2d000000 	stccs	0, cr0, [r0, #-0]
    37cc:	00000993 	muleq	r0, r3, r9
    37d0:	980a2f01 	stmdals	sl, {r0, r8, r9, sl, fp, sp}
    37d4:	0c000013 	stceq	0, cr0, [r0], {19}
    37d8:	01000000 	mrseq	r0, (UNDEF: 0)
    37dc:	1304139c 	movwne	r1, #17308	; 0x439c
    37e0:	76010000 	strvc	r0, [r1], -r0
    37e4:	0000bd0c 	andeq	fp, r0, ip, lsl #26
    37e8:	16900100 	ldrne	r0, [r0], r0, lsl #2
    37ec:	39140000 	ldmdbcc	r4, {}	; <UNPREDICTABLE>
    37f0:	0100000e 	tsteq	r0, lr
    37f4:	16900c76 			; <UNDEFINED> instruction: 0x16900c76
    37f8:	94120000 	ldrls	r0, [r2], #-0
    37fc:	0100000e 	tsteq	r0, lr
    3800:	00c80c78 	sbceq	r0, r8, r8, ror ip
    3804:	06000000 	streq	r0, [r0], -r0
    3808:	00169604 	andseq	r9, r6, r4, lsl #12
    380c:	00b20700 	adcseq	r0, r2, r0, lsl #14
    3810:	eb1f0000 	bl	7c3818 <__exidx_end+0x7c1a70>
    3814:	0100000d 	tsteq	r0, sp
    3818:	01050c8a 	smlabbeq	r5, sl, ip, r0
    381c:	00000000 	andeq	r0, r0, r0
    3820:	00240000 	eoreq	r0, r4, r0
    3824:	9c010000 	stcls	0, cr0, [r1], {-0}
    3828:	00001721 	andeq	r1, r0, r1, lsr #14
    382c:	0010c720 	andseq	ip, r0, r0, lsr #14
    3830:	0c8a0100 	stfeqs	f0, [sl], {0}
    3834:	000001f9 	strdeq	r0, [r0], -r9
    3838:	00002851 	andeq	r2, r0, r1, asr r8
    383c:	00137922 	andseq	r7, r3, r2, lsr #18
    3840:	0c8c0100 	stfeqs	f0, [ip], {0}
    3844:	000003b5 			; <UNDEFINED> instruction: 0x000003b5
    3848:	00002864 	andeq	r2, r0, r4, ror #16
    384c:	00122623 	andseq	r2, r2, r3, lsr #12
    3850:	0c8d0100 	stfeqs	f0, [sp], {0}
    3854:	0000011b 	andeq	r0, r0, fp, lsl r1
    3858:	fc225201 	stc2	2, cr5, [r2], #-4
    385c:	01000005 	tsteq	r0, r5
    3860:	01050c8e 	smlabbeq	r5, lr, ip, r0
    3864:	28770000 	ldmdacs	r7!, {}^	; <UNPREDICTABLE>
    3868:	66300000 	ldrtvs	r0, [r0], -r0
    386c:	00000016 	andeq	r0, r0, r6, lsl r0
    3870:	0c000000 	stceq	0, cr0, [r0], {-0}
    3874:	01000000 	mrseq	r0, (UNDEF: 0)
    3878:	771c0c9c 			; <UNDEFINED> instruction: 0x771c0c9c
    387c:	a8000016 	stmdage	r0, {r1, r2, r4}
    3880:	1a000028 	bne	3928 <__exidx_end+0x1b80>
    3884:	00000000 	andeq	r0, r0, r0
    3888:	0000000c 	andeq	r0, r0, ip
    388c:	0016831b 	andseq	r8, r6, fp, lsl r3
    3890:	0028c600 	eoreq	ip, r8, r0, lsl #12
    3894:	00000000 	andeq	r0, r0, r0
    3898:	000a101f 	andeq	r1, sl, pc, lsl r0
    389c:	0ce50100 	stfeqe	f0, [r5]
    38a0:	000001f9 	strdeq	r0, [r0], -r9
    38a4:	00000000 	andeq	r0, r0, r0
    38a8:	0000000c 	andeq	r0, r0, ip
    38ac:	174a9c01 	strbne	r9, [sl, -r1, lsl #24]
    38b0:	3b230000 	blcc	8c38b8 <__exidx_end+0x8c1b10>
    38b4:	01000007 	tsteq	r0, r7
    38b8:	01f90ce7 	mvnseq	r0, r7, ror #25
    38bc:	50010000 	andpl	r0, r1, r0
    38c0:	0a9c1f00 	beq	fe70b4c8 <__stack+0xde7054c8>
    38c4:	f6010000 			; <UNDEFINED> instruction: 0xf6010000
    38c8:	0000fa0c 	andeq	pc, r0, ip, lsl #20
    38cc:	0013a400 	andseq	sl, r3, r0, lsl #8
    38d0:	00002000 	andeq	r2, r0, r0
    38d4:	739c0100 	orrsvc	r0, ip, #0, 2
    38d8:	23000017 	movwcs	r0, #23
    38dc:	0000073b 	andeq	r0, r0, fp, lsr r7
    38e0:	fa0cf801 	blx	3418ec <__exidx_end+0x33fb44>
    38e4:	01000000 	mrseq	r0, (UNDEF: 0)
    38e8:	4f2c0050 	svcmi	0x002c0050
    38ec:	01000005 	tsteq	r0, r5
    38f0:	13c40d12 	bicne	r0, r4, #1152	; 0x480
    38f4:	006c0000 	rsbeq	r0, ip, r0
    38f8:	9c010000 	stcls	0, cr0, [r1], {-0}
    38fc:	000017ce 	andeq	r1, r0, lr, asr #15
    3900:	00118b20 	andseq	r8, r1, r0, lsr #22
    3904:	0d120100 	ldfeqs	f0, [r2, #-0]
    3908:	000003f1 	strdeq	r0, [r0], -r1
    390c:	000028f5 	strdeq	r2, [r0], -r5
    3910:	00137922 	andseq	r7, r3, r2, lsr #18
    3914:	0d140100 	ldfeqs	f0, [r4, #-0]
    3918:	0000045a 	andeq	r0, r0, sl, asr r4
    391c:	00002921 	andeq	r2, r0, r1, lsr #18
    3920:	0013fe27 	andseq	pc, r3, r7, lsr #28
    3924:	001e7500 	andseq	r7, lr, r0, lsl #10
    3928:	0017bd00 	andseq	fp, r7, r0, lsl #26
    392c:	50012800 	andpl	r2, r1, r0, lsl #16
    3930:	00007602 	andeq	r7, r0, r2, lsl #12
    3934:	00141a29 	andseq	r1, r4, r9, lsr #20
    3938:	001e5300 	andseq	r5, lr, r0, lsl #6
    393c:	51012800 	tstpl	r1, r0, lsl #16
    3940:	00007602 	andeq	r7, r0, r2, lsl #12
    3944:	07431f00 	strbeq	r1, [r3, -r0, lsl #30]
    3948:	51010000 	mrspl	r0, (UNDEF: 1)
    394c:	0000fa0d 	andeq	pc, r0, sp, lsl #20
    3950:	00143000 	andseq	r3, r4, r0
    3954:	00005c00 	andeq	r5, r0, r0, lsl #24
    3958:	469c0100 	ldrmi	r0, [ip], r0, lsl #2
    395c:	20000018 	andcs	r0, r0, r8, lsl r0
    3960:	0000118b 	andeq	r1, r0, fp, lsl #3
    3964:	f10d5101 			; <UNDEFINED> instruction: 0xf10d5101
    3968:	4d000003 	stcmi	0, cr0, [r0, #-12]
    396c:	22000029 	andcs	r0, r0, #41	; 0x29
    3970:	00001379 	andeq	r1, r0, r9, ror r3
    3974:	5a0d5301 	bpl	358580 <__exidx_end+0x3567d8>
    3978:	a5000004 	strge	r0, [r0, #-4]
    397c:	22000029 	andcs	r0, r0, #41	; 0x29
    3980:	0000073b 	andeq	r0, r0, fp, lsr r7
    3984:	fa0d5401 	blx	358990 <__exidx_end+0x356be8>
    3988:	fd000000 	stc2	0, cr0, [r0, #-0]
    398c:	1e000029 	cdpne	0, 0, cr0, cr0, cr9, {1}
    3990:	00001444 	andeq	r1, r0, r4, asr #8
    3994:	00001ded 	andeq	r1, r0, sp, ror #27
    3998:	00145e27 	andseq	r5, r4, r7, lsr #28
    399c:	001e7500 	andseq	r7, lr, r0, lsl #10
    39a0:	00183500 	andseq	r3, r8, r0, lsl #10
    39a4:	50012800 	andpl	r2, r1, r0, lsl #16
    39a8:	00007502 	andeq	r7, r0, r2, lsl #10
    39ac:	00148029 	andseq	r8, r4, r9, lsr #32
    39b0:	001e5300 	andseq	r5, lr, r0, lsl #6
    39b4:	51012800 	tstpl	r1, r0, lsl #16
    39b8:	00007502 	andeq	r7, r0, r2, lsl #10
    39bc:	10811f00 	addne	r1, r1, r0, lsl #30
    39c0:	e7010000 	str	r0, [r1, -r0]
    39c4:	0001100e 	andeq	r1, r1, lr
    39c8:	00000000 	andeq	r0, r0, r0
    39cc:	00001800 	andeq	r1, r0, r0, lsl #16
    39d0:	6f9c0100 	svcvs	0x009c0100
    39d4:	23000018 	movwcs	r0, #24
    39d8:	000005fc 	strdeq	r0, [r0], -ip
    39dc:	100ee901 	andne	lr, lr, r1, lsl #18
    39e0:	01000001 	tsteq	r0, r1
    39e4:	022e0050 	eoreq	r0, lr, #80	; 0x50
    39e8:	01000007 	tsteq	r0, r7
    39ec:	009e0ef7 			; <UNDEFINED> instruction: 0x009e0ef7
    39f0:	148c0000 	strne	r0, [ip], #0
    39f4:	00180000 	andseq	r0, r8, r0
    39f8:	9c010000 	stcls	0, cr0, [r1], {-0}
    39fc:	000f241f 	andeq	r2, pc, pc, lsl r4	; <UNPREDICTABLE>
    3a00:	0f080100 	svceq	0x00080100
    3a04:	000000c8 	andeq	r0, r0, r8, asr #1
    3a08:	00000000 	andeq	r0, r0, r0
    3a0c:	00000088 	andeq	r0, r0, r8, lsl #1
    3a10:	19369c01 	ldmdbne	r6!, {r0, sl, fp, ip, pc}
    3a14:	35200000 	strcc	r0, [r0, #-0]!
    3a18:	0100000d 	tsteq	r0, sp
    3a1c:	00fa0f08 	rscseq	r0, sl, r8, lsl #30
    3a20:	2a280000 	bcs	a03a28 <__exidx_end+0xa01c80>
    3a24:	92200000 	eorls	r0, r0, #0
    3a28:	01000012 	tsteq	r0, r2, lsl r0
    3a2c:	01100f08 	tsteq	r0, r8, lsl #30
    3a30:	2a540000 	bcs	1503a38 <__exidx_end+0x1501c90>
    3a34:	6d220000 	stcvs	0, cr0, [r2, #-0]
    3a38:	01000013 	tsteq	r0, r3, lsl r0
    3a3c:	01100f0a 	tsteq	r0, sl, lsl #30
    3a40:	2a800000 	bcs	fe003a48 <__stack+0xddffda48>
    3a44:	8e220000 	cdphi	0, 2, cr0, cr2, cr0, {0}
    3a48:	0100000f 	tsteq	r0, pc
    3a4c:	00c80f0b 	sbceq	r0, r8, fp, lsl #30
    3a50:	2aa30000 	bcs	fe8c3a58 <__stack+0xde8bda58>
    3a54:	001e0000 	andseq	r0, lr, r0
    3a58:	48000000 	stmdami	r0, {}	; <UNPREDICTABLE>
    3a5c:	1e00001e 	mcrne	0, 0, r0, cr0, cr14, {0}
    3a60:	00000000 	andeq	r0, r0, r0
    3a64:	00001e75 	andeq	r1, r0, r5, ror lr
    3a68:	00000027 	andeq	r0, r0, r7, lsr #32
    3a6c:	001e5300 	andseq	r5, lr, r0, lsl #6
    3a70:	00190800 	andseq	r0, r9, r0, lsl #16
    3a74:	50012800 	andpl	r2, r1, r0, lsl #16
    3a78:	e33c0305 	teq	ip, #335544320	; 0x14000000
    3a7c:	1e001fff 	mcrne	15, 0, r1, cr0, cr15, {7}
    3a80:	00000000 	andeq	r0, r0, r0
    3a84:	00000474 	andeq	r0, r0, r4, ror r4
    3a88:	0000001e 	andeq	r0, r0, lr, lsl r0
    3a8c:	001e6a00 	andseq	r6, lr, r0, lsl #20
    3a90:	00001e00 	andeq	r1, r0, r0, lsl #28
    3a94:	1e5f0000 	cdpne	0, 5, cr0, cr15, cr0, {0}
    3a98:	001e0000 	andseq	r0, lr, r0
    3a9c:	48000000 	stmdami	r0, {}	; <UNPREDICTABLE>
    3aa0:	1e00001e 	mcrne	0, 0, r0, cr0, cr14, {0}
    3aa4:	00000000 	andeq	r0, r0, r0
    3aa8:	00001e5f 	andeq	r1, r0, pc, asr lr
    3aac:	0eee1f00 	cdpeq	15, 14, cr1, cr14, cr0, {0}
    3ab0:	76010000 	strvc	r0, [r1], -r0
    3ab4:	0000fa0f 	andeq	pc, r0, pc, lsl #20
    3ab8:	00000000 	andeq	r0, r0, r0
    3abc:	00009c00 	andeq	r9, r0, r0, lsl #24
    3ac0:	079c0100 	ldreq	r0, [ip, r0, lsl #2]
    3ac4:	2000001a 	andcs	r0, r0, sl, lsl r0
    3ac8:	00000d8d 	andeq	r0, r0, sp, lsl #27
    3acc:	c80f7601 	stmdagt	pc, {r0, r9, sl, ip, sp, lr}	; <UNPREDICTABLE>
    3ad0:	c1000000 	mrsgt	r0, (UNDEF: 0)
    3ad4:	2000002a 	andcs	r0, r0, sl, lsr #32
    3ad8:	00000bc8 	andeq	r0, r0, r8, asr #23
    3adc:	c80f7601 	stmdagt	pc, {r0, r9, sl, ip, sp, lr}	; <UNPREDICTABLE>
    3ae0:	e0000000 	and	r0, r0, r0
    3ae4:	2000002a 	andcs	r0, r0, sl, lsr #32
    3ae8:	00001203 	andeq	r1, r0, r3, lsl #4
    3aec:	070f7601 	streq	r7, [pc, -r1, lsl #12]
    3af0:	0c00001a 	stceq	0, cr0, [r0], {26}
    3af4:	2000002b 	andcs	r0, r0, fp, lsr #32
    3af8:	00001292 	muleq	r0, r2, r2
    3afc:	100f7601 	andne	r7, pc, r1, lsl #12
    3b00:	38000001 	stmdacc	r0, {r0}
    3b04:	2200002b 	andcs	r0, r0, #43	; 0x2b
    3b08:	0000136d 	andeq	r1, r0, sp, ror #6
    3b0c:	100f7801 	andne	r7, pc, r1, lsl #16
    3b10:	64000001 	strvs	r0, [r0], #-1
    3b14:	2200002b 	andcs	r0, r0, #43	; 0x2b
    3b18:	0000073b 	andeq	r0, r0, fp, lsr r7
    3b1c:	fa0f7901 	blx	3e1f28 <__exidx_end+0x3e0180>
    3b20:	87000000 	strhi	r0, [r0, -r0]
    3b24:	1e00002b 	cdpne	0, 0, cr0, cr0, cr11, {1}
    3b28:	00000000 	andeq	r0, r0, r0
    3b2c:	00001e48 	andeq	r1, r0, r8, asr #28
    3b30:	0000001e 	andeq	r0, r0, lr, lsl r0
    3b34:	001e7500 	andseq	r7, lr, r0, lsl #10
    3b38:	00002700 	andeq	r2, r0, r0, lsl #14
    3b3c:	1e530000 	cdpne	0, 5, cr0, cr3, cr0, {0}
    3b40:	19d90000 	ldmibne	r9, {}^	; <UNPREDICTABLE>
    3b44:	01280000 			; <UNDEFINED> instruction: 0x01280000
    3b48:	3c030550 	cfstr32cc	mvfx0, [r3], {80}	; 0x50
    3b4c:	001fffe3 	andseq	pc, pc, r3, ror #31
    3b50:	0000001e 	andeq	r0, r0, lr, lsl r0
    3b54:	00047400 	andeq	r7, r4, r0, lsl #8
    3b58:	00001e00 	andeq	r1, r0, r0, lsl #28
    3b5c:	1e6a0000 	cdpne	0, 6, cr0, cr10, cr0, {0}
    3b60:	001e0000 	andseq	r0, lr, r0
    3b64:	5f000000 	svcpl	0x00000000
    3b68:	1e00001e 	mcrne	0, 0, r0, cr0, cr14, {0}
    3b6c:	00000000 	andeq	r0, r0, r0
    3b70:	00001e48 	andeq	r1, r0, r8, asr #28
    3b74:	0000001e 	andeq	r0, r0, lr, lsl r0
    3b78:	001e5f00 	andseq	r5, lr, r0, lsl #30
    3b7c:	04060000 	streq	r0, [r6], #-0
    3b80:	000000c8 	andeq	r0, r0, r8, asr #1
    3b84:	000c691f 	andeq	r6, ip, pc, lsl r9
    3b88:	0fef0100 	svceq	0x00ef0100
    3b8c:	000000fa 	strdeq	r0, [r0], -sl
    3b90:	00000000 	andeq	r0, r0, r0
    3b94:	000000a0 	andeq	r0, r0, r0, lsr #1
    3b98:	1ada9c01 	bne	ff6aaba4 <__stack+0xdf6a4ba4>
    3b9c:	b9200000 	stmdblt	r0!, {}	; <UNPREDICTABLE>
    3ba0:	01000010 	tsteq	r0, r0, lsl r0
    3ba4:	01f90fef 	mvnseq	r0, pc, ror #31
    3ba8:	2ba50000 	blcs	fe943bb0 <__stack+0xde93dbb0>
    3bac:	af200000 	svcge	0x00200000
    3bb0:	01000011 	tsteq	r0, r1, lsl r0
    3bb4:	00c80fef 	sbceq	r0, r8, pc, ror #31
    3bb8:	2c000000 	stccs	0, cr0, [r0], {-0}
    3bbc:	79200000 	stmdbvc	r0!, {}	; <UNPREDICTABLE>
    3bc0:	01000010 	tsteq	r0, r0, lsl r0
    3bc4:	022f0fef 	eoreq	r0, pc, #956	; 0x3bc
    3bc8:	2c740000 	ldclcs	0, cr0, [r4], #-0
    3bcc:	79220000 	stmdbvc	r2!, {}	; <UNPREDICTABLE>
    3bd0:	01000013 	tsteq	r0, r3, lsl r0
    3bd4:	03b50ff1 			; <UNDEFINED> instruction: 0x03b50ff1
    3bd8:	2cae0000 	stccs	0, cr0, [lr]
    3bdc:	07220000 	streq	r0, [r2, -r0]!
    3be0:	0100000e 	tsteq	r0, lr
    3be4:	02d00ff2 	sbcseq	r0, r0, #968	; 0x3c8
    3be8:	2cf30000 	ldclcs	0, cr0, [r3]
    3bec:	3b310000 	blcc	c43bf4 <__exidx_end+0xc41e4c>
    3bf0:	01000007 	tsteq	r0, r7
    3bf4:	00fa0ff3 	ldrshteq	r0, [sl], #243	; 0xf3
    3bf8:	1e010000 	cdpne	0, 0, cr0, cr1, cr0, {0}
    3bfc:	00000000 	andeq	r0, r0, r0
    3c00:	00001ded 	andeq	r1, r0, sp, ror #27
    3c04:	0000001e 	andeq	r0, r0, lr, lsl r0
    3c08:	001e4800 	andseq	r4, lr, r0, lsl #16
    3c0c:	00002700 	andeq	r2, r0, r0, lsl #14
    3c10:	1e750000 	cdpne	0, 7, cr0, cr5, cr0, {0}
    3c14:	1aaa0000 	bne	fea83c1c <__stack+0xdea7dc1c>
    3c18:	01280000 			; <UNDEFINED> instruction: 0x01280000
    3c1c:	00750250 	rsbseq	r0, r5, r0, asr r2
    3c20:	00002700 	andeq	r2, r0, r0, lsl #14
    3c24:	1e530000 	cdpne	0, 5, cr0, cr3, cr0, {0}
    3c28:	1abe0000 	bne	fef83c30 <__stack+0xdef7dc30>
    3c2c:	01280000 			; <UNDEFINED> instruction: 0x01280000
    3c30:	00750251 	rsbseq	r0, r5, r1, asr r2
    3c34:	00001e00 	andeq	r1, r0, r0, lsl #28
    3c38:	1ded0000 	stclne	0, cr0, [sp]
    3c3c:	001e0000 	andseq	r0, lr, r0
    3c40:	6a000000 	bvs	3c48 <__exidx_end+0x1ea0>
    3c44:	1e00001e 	mcrne	0, 0, r0, cr0, cr14, {0}
    3c48:	00000000 	andeq	r0, r0, r0
    3c4c:	00001e5f 	andeq	r1, r0, pc, asr lr
    3c50:	0c101f00 	ldceq	15, cr1, [r0], {-0}
    3c54:	43010000 	movwmi	r0, #4096	; 0x1000
    3c58:	0000fa10 	andeq	pc, r0, r0, lsl sl	; <UNPREDICTABLE>
    3c5c:	00000000 	andeq	r0, r0, r0
    3c60:	0000c800 	andeq	ip, r0, r0, lsl #16
    3c64:	ba9c0100 	blt	fe70406c <__stack+0xde6fe06c>
    3c68:	2000001b 	andcs	r0, r0, fp, lsl r0
    3c6c:	000010b9 	strheq	r1, [r0], -r9
    3c70:	f9104301 			; <UNDEFINED> instruction: 0xf9104301
    3c74:	11000001 	tstne	r0, r1
    3c78:	2000002d 	andcs	r0, r0, sp, lsr #32
    3c7c:	000011af 	andeq	r1, r0, pc, lsr #3
    3c80:	c8104301 	ldmdagt	r0, {r0, r8, r9, lr}
    3c84:	85000000 	strhi	r0, [r0, #-0]
    3c88:	2000002d 	andcs	r0, r0, sp, lsr #32
    3c8c:	00001079 	andeq	r1, r0, r9, ror r0
    3c90:	2f104301 	svccs	0x00104301
    3c94:	f9000002 			; <UNDEFINED> instruction: 0xf9000002
    3c98:	2000002d 	andcs	r0, r0, sp, lsr #32
    3c9c:	00000505 	andeq	r0, r0, r5, lsl #10
    3ca0:	ba104301 	blt	4148ac <__exidx_end+0x412b04>
    3ca4:	3300001b 	movwcc	r0, #27
    3ca8:	2200002e 	andcs	r0, r0, #46	; 0x2e
    3cac:	00001379 	andeq	r1, r0, r9, ror r3
    3cb0:	b5104501 	ldrlt	r4, [r0, #-1281]	; 0xfffffaff
    3cb4:	75000003 	strvc	r0, [r0, #-3]
    3cb8:	2200002e 	andcs	r0, r0, #46	; 0x2e
    3cbc:	00000e07 	andeq	r0, r0, r7, lsl #28
    3cc0:	d0104601 	andsle	r4, r0, r1, lsl #12
    3cc4:	d3000002 	movwle	r0, #2
    3cc8:	3100002e 	tstcc	r0, lr, lsr #32
    3ccc:	0000073b 	andeq	r0, r0, fp, lsr r7
    3cd0:	fa104701 	blx	4158dc <__exidx_end+0x413b34>
    3cd4:	01000000 	mrseq	r0, (UNDEF: 0)
    3cd8:	00061d22 	andeq	r1, r6, r2, lsr #26
    3cdc:	10480100 	subne	r0, r8, r0, lsl #2
    3ce0:	00000105 	andeq	r0, r0, r5, lsl #2
    3ce4:	00002efc 	strdeq	r2, [r0], -ip
    3ce8:	0000001e 	andeq	r0, r0, lr, lsl r0
    3cec:	001ded00 	andseq	lr, sp, r0, lsl #26
    3cf0:	00001e00 	andeq	r1, r0, r0, lsl #28
    3cf4:	1ded0000 	stclne	0, cr0, [sp]
    3cf8:	001e0000 	andseq	r0, lr, r0
    3cfc:	ed000000 	stc	0, cr0, [r0, #-0]
    3d00:	2700001d 	smladcs	r0, sp, r0, r0
    3d04:	00000000 	andeq	r0, r0, r0
    3d08:	00001e75 	andeq	r1, r0, r5, ror lr
    3d0c:	00001ba0 	andeq	r1, r0, r0, lsr #23
    3d10:	02500128 	subseq	r0, r0, #40, 2
    3d14:	1e000075 	mcrne	0, 0, r0, cr0, cr5, {3}
    3d18:	00000000 	andeq	r0, r0, r0
    3d1c:	00001e53 	andeq	r1, r0, r3, asr lr
    3d20:	00000029 	andeq	r0, r0, r9, lsr #32
    3d24:	001e8100 	andseq	r8, lr, r0, lsl #2
    3d28:	50012800 	andpl	r2, r1, r0, lsl #16
    3d2c:	00007702 	andeq	r7, r0, r2, lsl #14
    3d30:	fa040600 	blx	105538 <__exidx_end+0x103790>
    3d34:	2c000000 	stccs	0, cr0, [r0], {-0}
    3d38:	0000113b 	andeq	r1, r0, fp, lsr r1
    3d3c:	0010b301 	andseq	fp, r0, r1, lsl #6
    3d40:	98000000 	stmdals	r0, {}	; <UNPREDICTABLE>
    3d44:	01000000 	mrseq	r0, (UNDEF: 0)
    3d48:	001c6f9c 	mulseq	ip, ip, pc	; <UNPREDICTABLE>
    3d4c:	10b92000 	adcsne	r2, r9, r0
    3d50:	b3010000 	movwlt	r0, #4096	; 0x1000
    3d54:	0001f910 	andeq	pc, r1, r0, lsl r9	; <UNPREDICTABLE>
    3d58:	002f1a00 	eoreq	r1, pc, r0, lsl #20
    3d5c:	05052000 	streq	r2, [r5, #-0]
    3d60:	b3010000 	movwlt	r0, #4096	; 0x1000
    3d64:	001bba10 	andseq	fp, fp, r0, lsl sl
    3d68:	002f5c00 	eoreq	r5, pc, r0, lsl #24
    3d6c:	13792200 	cmnne	r9, #0, 4
    3d70:	b5010000 	strlt	r0, [r1, #-0]
    3d74:	0003b510 	andeq	fp, r3, r0, lsl r5
    3d78:	002f9e00 	eoreq	r9, pc, r0, lsl #28
    3d7c:	0e072200 	cdpeq	2, 0, cr2, cr7, cr0, {0}
    3d80:	b6010000 	strlt	r0, [r1], -r0
    3d84:	0002d010 	andeq	sp, r2, r0, lsl r0
    3d88:	002fca00 	eoreq	ip, pc, r0, lsl #20
    3d8c:	061d2200 	ldreq	r2, [sp], -r0, lsl #4
    3d90:	b7010000 	strlt	r0, [r1, -r0]
    3d94:	00010510 	andeq	r0, r1, r0, lsl r5
    3d98:	002ff300 	eoreq	pc, pc, r0, lsl #6
    3d9c:	00001e00 	andeq	r1, r0, r0, lsl #28
    3da0:	1ded0000 	stclne	0, cr0, [sp]
    3da4:	001e0000 	andseq	r0, lr, r0
    3da8:	ed000000 	stc	0, cr0, [r0, #-0]
    3dac:	1e00001d 	mcrne	0, 0, r0, cr0, cr13, {0}
    3db0:	00000000 	andeq	r0, r0, r0
    3db4:	00001ded 	andeq	r1, r0, sp, ror #27
    3db8:	00000027 	andeq	r0, r0, r7, lsr #32
    3dbc:	001e7500 	andseq	r7, lr, r0, lsl #10
    3dc0:	001c5500 	andseq	r5, ip, r0, lsl #10
    3dc4:	50012800 	andpl	r2, r1, r0, lsl #16
    3dc8:	00007602 	andeq	r7, r0, r2, lsl #12
    3dcc:	0000001e 	andeq	r0, r0, lr, lsl r0
    3dd0:	001e5300 	andseq	r5, lr, r0, lsl #6
    3dd4:	00002900 	andeq	r2, r0, r0, lsl #18
    3dd8:	1e810000 	cdpne	0, 8, cr0, cr1, cr0, {0}
    3ddc:	01280000 			; <UNDEFINED> instruction: 0x01280000
    3de0:	00770250 	rsbseq	r0, r7, r0, asr r2
    3de4:	ee0f0000 	cdp	0, 0, cr0, cr15, cr0, {0}
    3de8:	7f000001 	svcvc	0x00000001
    3dec:	1000001c 	andne	r0, r0, ip, lsl r0
    3df0:	00000097 	muleq	r0, r7, r0
    3df4:	4d320011 	ldcmi	0, cr0, [r2, #-68]!	; 0xffffffbc
    3df8:	0100000c 	tsteq	r0, ip
    3dfc:	001c6fdb 			; <UNDEFINED> instruction: 0x001c6fdb
    3e00:	94030500 	strls	r0, [r3], #-1280	; 0xfffffb00
    3e04:	321fffe1 	andscc	pc, pc, #900	; 0x384
    3e08:	00000c88 	andeq	r0, r0, r8, lsl #25
    3e0c:	01eedc01 	mvneq	sp, r1, lsl #24
    3e10:	03050000 	movweq	r0, #20480	; 0x5000
    3e14:	1fffe168 	svcne	0x00ffe168
    3e18:	000c9a32 	andeq	r9, ip, r2, lsr sl
    3e1c:	eedd0100 	cdp	1, 13, cr0, cr13, cr0, {0}
    3e20:	05000001 	streq	r0, [r0, #-1]
    3e24:	ffe17c03 			; <UNDEFINED> instruction: 0xffe17c03
    3e28:	1152321f 	cmpne	r2, pc, lsl r2
    3e2c:	de010000 	cdple	0, 0, cr0, cr1, cr0, {0}
    3e30:	00001cc3 	andeq	r1, r0, r3, asr #25
    3e34:	e15c0305 	cmp	ip, r5, lsl #6
    3e38:	af0e1fff 	svcge	0x000e1fff
    3e3c:	32000004 	andcc	r0, r0, #4
    3e40:	00000e9c 	muleq	r0, ip, lr
    3e44:	1cc3df01 	stclne	15, cr13, [r3], {1}
    3e48:	03050000 	movweq	r0, #20480	; 0x5000
    3e4c:	1fffe330 	svcne	0x00ffe330
    3e50:	000da232 	andeq	sl, sp, r2, lsr r2
    3e54:	eee00100 	cdp	1, 14, cr0, cr0, cr0, {0}
    3e58:	05000001 	streq	r0, [r0, #-1]
    3e5c:	ffe31403 			; <UNDEFINED> instruction: 0xffe31403
    3e60:	0db4321f 	lfmeq	f3, 4, [r4, #124]!	; 0x7c
    3e64:	e4010000 	str	r0, [r1], #-0
    3e68:	000001ee 	andeq	r0, r0, lr, ror #3
    3e6c:	e2fc0305 	rscs	r0, ip, #335544320	; 0x14000000
    3e70:	2a321fff 	bcs	c8be74 <__exidx_end+0xc8a0cc>
    3e74:	0100000e 	tsteq	r0, lr
    3e78:	001d0ce5 	andseq	r0, sp, r5, ror #25
    3e7c:	64030500 	strvs	r0, [r3], #-1280	; 0xfffffb00
    3e80:	0e1fffe1 	cdpeq	15, 1, cr15, cr15, cr1, {7}
    3e84:	00000105 	andeq	r0, r0, r5, lsl #2
    3e88:	000e7a32 	andeq	r7, lr, r2, lsr sl
    3e8c:	eeeb0100 	cdp	1, 14, cr0, cr11, cr0, {0}
    3e90:	05000001 	streq	r0, [r0, #-1]
    3e94:	ffe33c03 			; <UNDEFINED> instruction: 0xffe33c03
    3e98:	1347321f 	movtne	r3, #29215	; 0x721f
    3e9c:	f6010000 			; <UNDEFINED> instruction: 0xf6010000
    3ea0:	00001d0c 	andeq	r1, r0, ip, lsl #26
    3ea4:	e3380305 	teq	r8, #335544320	; 0x14000000
    3ea8:	83321fff 	teqhi	r2, #1020	; 0x3fc
    3eac:	0100000f 	tsteq	r0, pc
    3eb0:	001d44f7 			; <UNDEFINED> instruction: 0x001d44f7
    3eb4:	2c030500 	cfstr32cs	mvfx0, [r3], {-0}
    3eb8:	0e1fffe3 	cdpeq	15, 1, cr15, cr15, cr3, {7}
    3ebc:	00000110 	andeq	r0, r0, r0, lsl r1
    3ec0:	000bfd32 	andeq	pc, fp, r2, lsr sp	; <UNPREDICTABLE>
    3ec4:	0cf80100 	ldfeqe	f0, [r8]
    3ec8:	0500001d 	streq	r0, [r0, #-29]	; 0xffffffe3
    3ecc:	ffe35003 			; <UNDEFINED> instruction: 0xffe35003
    3ed0:	0c2f321f 	sfmeq	f3, 4, [pc], #-124	; 3e5c <__exidx_end+0x20b4>
    3ed4:	f9010000 			; <UNDEFINED> instruction: 0xf9010000
    3ed8:	00001d6b 	andeq	r1, r0, fp, ror #26
    3edc:	e1600305 	cmn	r0, r5, lsl #6
    3ee0:	fa0e1fff 	blx	38bee4 <__exidx_end+0x38a13c>
    3ee4:	32000000 	andcc	r0, r0, #0
    3ee8:	00001218 	andeq	r1, r0, r8, lsl r2
    3eec:	1d0cfa01 	vstrne	s30, [ip, #-4]
    3ef0:	03050000 	movweq	r0, #20480	; 0x5000
    3ef4:	1fffe190 	svcne	0x00ffe190
    3ef8:	00142732 	andseq	r2, r4, r2, lsr r7
    3efc:	6bfb0100 	blvs	ffec4304 <__stack+0xdfebe304>
    3f00:	0500001d 	streq	r0, [r0, #-29]	; 0xffffffe3
    3f04:	ffe35403 			; <UNDEFINED> instruction: 0xffe35403
    3f08:	111e321f 	tstne	lr, pc, lsl r2
    3f0c:	fc010000 	stc2	0, cr0, [r1], {-0}
    3f10:	00001d6b 	andeq	r1, r0, fp, ror #26
    3f14:	e1580305 	cmp	r8, r5, lsl #6
    3f18:	5f321fff 	svcpl	0x00321fff
    3f1c:	01000010 	tsteq	r0, r0, lsl r0
    3f20:	000105fd 	strdeq	r0, [r1], -sp
    3f24:	34030500 	strcc	r0, [r3], #-1280	; 0xfffffb00
    3f28:	321fffe3 	andscc	pc, pc, #908	; 0x38c
    3f2c:	00000f58 	andeq	r0, r0, r8, asr pc
    3f30:	1d44fe01 	stclne	14, cr15, [r4, #-4]
    3f34:	03050000 	movweq	r0, #20480	; 0x5000
    3f38:	1fffe0c4 	svcne	0x00ffe0c4
    3f3c:	00137f23 	andseq	r7, r3, r3, lsr #30
    3f40:	01080100 	mrseq	r0, (UNDEF: 24)
    3f44:	00001d0c 	andeq	r1, r0, ip, lsl #26
    3f48:	e3280305 			; <UNDEFINED> instruction: 0xe3280305
    3f4c:	2e331fff 	mrccs	15, 1, r1, cr3, cr15, {7}
    3f50:	01000011 	tsteq	r0, r1, lsl r0
    3f54:	001de8d8 			; <UNDEFINED> instruction: 0x001de8d8
    3f58:	10030500 	andne	r0, r3, r0, lsl #10
    3f5c:	0e1fffe3 	cdpeq	15, 1, cr15, cr15, cr3, {7}
    3f60:	000003b5 			; <UNDEFINED> instruction: 0x000003b5
    3f64:	00079e34 	andeq	r9, r7, r4, lsr lr
    3f68:	00079e00 	andeq	r9, r7, r0, lsl #28
    3f6c:	35a20600 	strcc	r0, [r2, #1536]!	; 0x600
    3f70:	00000b72 	andeq	r0, r0, r2, ror fp
    3f74:	00000b72 	andeq	r0, r0, r2, ror fp
    3f78:	34019a07 	strcc	r9, [r1], #-2567	; 0xfffff5f9
    3f7c:	0000046d 	andeq	r0, r0, sp, ror #8
    3f80:	0000046d 	andeq	r0, r0, sp, ror #8
    3f84:	4e34a309 	cdpmi	3, 3, cr10, cr4, cr9, {0}
    3f88:	4e000004 	cdpmi	0, 0, cr0, cr0, cr4, {0}
    3f8c:	09000004 	stmdbeq	r0, {r2}
    3f90:	101534a4 	andsne	r3, r5, r4, lsr #9
    3f94:	10150000 	andsne	r0, r5, r0
    3f98:	1d0a0000 	stcne	0, cr0, [sl, #-0]
    3f9c:	000aea35 	andeq	lr, sl, r5, lsr sl
    3fa0:	000aea00 	andeq	lr, sl, r0, lsl #20
    3fa4:	018d0700 	orreq	r0, sp, r0, lsl #14
    3fa8:	0009cb35 	andeq	ip, r9, r5, lsr fp
    3fac:	0009cb00 	andeq	ip, r9, r0, lsl #22
    3fb0:	01820700 	orreq	r0, r2, r0, lsl #14
    3fb4:	000f6d34 	andeq	r6, pc, r4, lsr sp	; <UNPREDICTABLE>
    3fb8:	000f6d00 	andeq	r6, pc, r0, lsl #26
    3fbc:	34880900 	strcc	r0, [r8], #2304	; 0x900
    3fc0:	000005d3 	ldrdeq	r0, [r0], -r3
    3fc4:	000005d3 	ldrdeq	r0, [r0], -r3
    3fc8:	fe35cb06 	vselgt.f64	d12, d5, d6
    3fcc:	fe00000a 	cdp2	0, 0, cr0, cr0, cr10, {0}
    3fd0:	0700000a 	streq	r0, [r0, -sl]
    3fd4:	b53401af 	ldrlt	r0, [r4, #-431]!	; 0xfffffe51
    3fd8:	b5000004 	strlt	r0, [r0, #-4]
    3fdc:	06000004 	streq	r0, [r0], -r4
    3fe0:	04c734cc 	strbeq	r3, [r7], #1228	; 0x4cc
    3fe4:	04c70000 	strbeq	r0, [r7], #0
    3fe8:	de060000 	cdple	0, 0, cr0, cr6, cr0, {0}
    3fec:	000b3135 	andeq	r3, fp, r5, lsr r1
    3ff0:	000b3100 	andeq	r3, fp, r0, lsl #2
    3ff4:	01be0700 			; <UNDEFINED> instruction: 0x01be0700
    3ff8:	0009f034 	andeq	pc, r9, r4, lsr r0	; <UNPREDICTABLE>
    3ffc:	0009f000 	andeq	pc, r9, r0
    4000:	35a30600 	strcc	r0, [r3, #1536]!	; 0x600
    4004:	00000cfc 	strdeq	r0, [r0], -ip
    4008:	00000cfc 	strdeq	r0, [r0], -ip
    400c:	34045c0b 	strcc	r5, [r4], #-3083	; 0xfffff3f5
    4010:	00000b89 	andeq	r0, r0, r9, lsl #23
    4014:	00000b89 	andeq	r0, r0, r9, lsl #23
    4018:	c634ad09 	ldrtgt	sl, [r4], -r9, lsl #26
    401c:	c6000011 			; <UNDEFINED> instruction: 0xc6000011
    4020:	09000011 	stmdbeq	r0, {r0, r4}
    4024:	0f7300b4 	svceq	0x007300b4
    4028:	00040000 	andeq	r0, r4, r0
    402c:	00000921 	andeq	r0, r0, r1, lsr #18
    4030:	00670104 	rsbeq	r0, r7, r4, lsl #2
    4034:	150c0000 	strne	r0, [ip, #-0]
    4038:	de000016 	mcrle	0, 0, r0, cr0, cr6, {0}
    403c:	40000002 	andmi	r0, r0, r2
    4040:	00000003 	andeq	r0, r0, r3
    4044:	8e000000 	cdphi	0, 0, cr0, cr0, cr0, {0}
    4048:	02000016 	andeq	r0, r0, #22
    404c:	01ed0704 	mvneq	r0, r4, lsl #14
    4050:	04030000 	streq	r0, [r3], #-0
    4054:	746e6905 	strbtvc	r6, [lr], #-2309	; 0xfffff6fb
    4058:	06010200 	streq	r0, [r1], -r0, lsl #4
    405c:	000001d2 	ldrdeq	r0, [r0], -r2
    4060:	00020004 	andeq	r0, r2, r4
    4064:	451d0200 	ldrmi	r0, [sp, #-512]	; 0xfffffe00
    4068:	02000000 	andeq	r0, r0, #0
    406c:	01d00801 	bicseq	r0, r0, r1, lsl #16
    4070:	02020000 	andeq	r0, r2, #0
    4074:	00016d05 	andeq	r6, r1, r5, lsl #26
    4078:	0dcd0400 	cfstrdeq	mvd0, [sp]
    407c:	2b020000 	blcs	84084 <__exidx_end+0x822dc>
    4080:	0000005e 	andeq	r0, r0, lr, asr r0
    4084:	15070202 	strne	r0, [r7, #-514]	; 0xfffffdfe
    4088:	02000002 	andeq	r0, r0, #2
    408c:	017c0504 	cmneq	ip, r4, lsl #10
    4090:	53040000 	movwpl	r0, #16384	; 0x4000
    4094:	02000000 	andeq	r0, r0, #0
    4098:	00007741 	andeq	r7, r0, r1, asr #14
    409c:	07040200 	streq	r0, [r4, -r0, lsl #4]
    40a0:	000001e8 	andeq	r0, r0, r8, ror #3
    40a4:	77050802 	strvc	r0, [r5, -r2, lsl #16]
    40a8:	02000001 	andeq	r0, r0, #1
    40ac:	01e30708 	mvneq	r0, r8, lsl #14
    40b0:	04020000 	streq	r0, [r2], #-0
    40b4:	00018507 	andeq	r8, r1, r7, lsl #10
    40b8:	02040500 	andeq	r0, r4, #0, 10
    40bc:	01d90801 	bicseq	r0, r9, r1, lsl #16
    40c0:	04060000 	streq	r0, [r6], #-0
    40c4:	000000a2 	andeq	r0, r0, r2, lsr #1
    40c8:	00009507 	andeq	r9, r0, r7, lsl #10
    40cc:	02020400 	andeq	r0, r2, #0, 8
    40d0:	18030000 	stmdane	r3, {}	; <UNPREDICTABLE>
    40d4:	0000003a 	andeq	r0, r0, sl, lsr r0
    40d8:	000dcf04 	andeq	ip, sp, r4, lsl #30
    40dc:	53240300 			; <UNDEFINED> instruction: 0x53240300
    40e0:	04000000 	streq	r0, [r0], #-0
    40e4:	00000055 	andeq	r0, r0, r5, asr r0
    40e8:	006c3003 	rsbeq	r3, ip, r3
    40ec:	ef040000 	svc	0x00040000
    40f0:	04000003 	streq	r0, [r0], #-3
    40f4:	00006579 	andeq	r6, r0, r9, ror r5
    40f8:	03ee0400 	mvneq	r0, #0, 8
    40fc:	7a040000 	bvc	104104 <__exidx_end+0x10235c>
    4100:	00000077 	andeq	r0, r0, r7, ror r0
    4104:	00037504 	andeq	r7, r3, r4, lsl #10
    4108:	bd850400 	cfstrslt	mvf0, [r5]
    410c:	08000000 	stmdaeq	r0, {}	; <UNPREDICTABLE>
    4110:	00000579 	andeq	r0, r0, r9, ror r5
    4114:	32b50514 	adcscc	r0, r5, #20, 10	; 0x5000000
    4118:	09000001 	stmdbeq	r0, {r0}
    411c:	0000090c 	andeq	r0, r0, ip, lsl #18
    4120:	00deb805 	sbcseq	fp, lr, r5, lsl #16
    4124:	09000000 	stmdbeq	r0, {}	; <UNPREDICTABLE>
    4128:	00000839 	andeq	r0, r0, r9, lsr r8
    412c:	0132b905 	teqeq	r2, r5, lsl #18
    4130:	09040000 	stmdbeq	r4, {}	; <UNPREDICTABLE>
    4134:	0000066c 	andeq	r0, r0, ip, ror #12
    4138:	0132ba05 	teqeq	r2, r5, lsl #20
    413c:	09080000 	stmdbeq	r8, {}	; <UNPREDICTABLE>
    4140:	00000a08 	andeq	r0, r0, r8, lsl #20
    4144:	0093bb05 	addseq	fp, r3, r5, lsl #22
    4148:	090c0000 	stmdbeq	ip, {}	; <UNPREDICTABLE>
    414c:	000008d8 	ldrdeq	r0, [r0], -r8
    4150:	0093bc05 	addseq	fp, r3, r5, lsl #24
    4154:	00100000 	andseq	r0, r0, r0
    4158:	00e90406 	rsceq	r0, r9, r6, lsl #8
    415c:	d7040000 	strle	r0, [r4, -r0]
    4160:	05000007 	streq	r0, [r0, #-7]
    4164:	0000e9bf 			; <UNDEFINED> instruction: 0x0000e9bf
    4168:	06aa0800 	strteq	r0, [sl], r0, lsl #16
    416c:	050c0000 	streq	r0, [ip, #-0]
    4170:	000174c1 	andeq	r7, r1, r1, asr #9
    4174:	090c0900 	stmdbeq	ip, {r8, fp}
    4178:	c4050000 	strgt	r0, [r5], #-0
    417c:	000000de 	ldrdeq	r0, [r0], -lr
    4180:	08390900 	ldmdaeq	r9!, {r8, fp}
    4184:	c5050000 	strgt	r0, [r5, #-0]
    4188:	00000132 	andeq	r0, r0, r2, lsr r1
    418c:	066c0904 	strbteq	r0, [ip], -r4, lsl #18
    4190:	c6050000 	strgt	r0, [r5], -r0
    4194:	00000132 	andeq	r0, r0, r2, lsr r1
    4198:	d3040008 	movwle	r0, #16392	; 0x4008
    419c:	05000007 	streq	r0, [r0, #-7]
    41a0:	000143c8 	andeq	r4, r1, r8, asr #7
    41a4:	06ba0800 	ldrteq	r0, [sl], r0, lsl #16
    41a8:	05140000 	ldreq	r0, [r4, #-0]
    41ac:	0001b0cd 	andeq	fp, r1, sp, asr #1
    41b0:	04a50900 	strteq	r0, [r5], #2304	; 0x900
    41b4:	d0050000 	andle	r0, r5, r0
    41b8:	000000d3 	ldrdeq	r0, [r0], -r3
    41bc:	05470900 	strbeq	r0, [r7, #-2304]	; 0xfffff700
    41c0:	d1050000 	mrsle	r0, (UNDEF: 5)
    41c4:	000001b0 			; <UNDEFINED> instruction: 0x000001b0
    41c8:	07950904 	ldreq	r0, [r5, r4, lsl #18]
    41cc:	d2050000 	andle	r0, r5, #0
    41d0:	00000174 	andeq	r0, r0, r4, ror r1
    41d4:	04060008 	streq	r0, [r6], #-8
    41d8:	00000138 	andeq	r0, r0, r8, lsr r1
    41dc:	00088504 	andeq	r8, r8, r4, lsl #10
    41e0:	7fd40500 	svcvc	0x00d40500
    41e4:	07000001 	streq	r0, [r0, -r1]
    41e8:	0000009c 	muleq	r0, ip, r0
    41ec:	00039904 	andeq	r9, r3, r4, lsl #18
    41f0:	93580600 	cmpls	r8, #0, 12
    41f4:	04000000 	streq	r0, [r0], #-0
    41f8:	00001543 	andeq	r1, r0, r3, asr #10
    41fc:	00937607 	addseq	r7, r3, r7, lsl #12
    4200:	0f040000 	svceq	0x00040000
    4204:	07000015 	smladeq	r0, r5, r0, r0
    4208:	0001e77b 	andeq	lr, r1, fp, ror r7
    420c:	ed040600 	stc	6, cr0, [r4, #-0]
    4210:	0a000001 	beq	421c <__exidx_end+0x2474>
    4214:	000001f8 	strdeq	r0, [r0], -r8
    4218:	0001d10b 	andeq	sp, r1, fp, lsl #2
    421c:	d3040000 	movwle	r0, #16384	; 0x4000
    4220:	07000016 	smladeq	r0, r6, r0, r0
    4224:	00020381 	andeq	r0, r2, r1, lsl #7
    4228:	09040600 	stmdbeq	r4, {r9, sl}
    422c:	0a000002 	beq	423c <__exidx_end+0x2494>
    4230:	00000219 	andeq	r0, r0, r9, lsl r2
    4234:	0000930b 	andeq	r9, r0, fp, lsl #6
    4238:	00bd0b00 	adcseq	r0, sp, r0, lsl #22
    423c:	08000000 	stmdaeq	r0, {}	; <UNPREDICTABLE>
    4240:	000017dc 	ldrdeq	r1, [r0], -ip
    4244:	6e680128 	powvsep	f0, f0, #0.0
    4248:	09000002 	stmdbeq	r0, {r1}
    424c:	000014c2 	andeq	r1, r0, r2, asr #9
    4250:	009c6a01 	addseq	r6, ip, r1, lsl #20
    4254:	09000000 	stmdbeq	r0, {}	; <UNPREDICTABLE>
    4258:	000016b7 			; <UNDEFINED> instruction: 0x000016b7
    425c:	01386b01 	teqeq	r8, r1, lsl #22
    4260:	09040000 	stmdbeq	r4, {}	; <UNPREDICTABLE>
    4264:	00001472 	andeq	r1, r0, r2, ror r4
    4268:	00de6c01 	sbcseq	r6, lr, r1, lsl #24
    426c:	09180000 	ldmdbeq	r8, {}	; <UNPREDICTABLE>
    4270:	00001761 	andeq	r1, r0, r1, ror #14
    4274:	00d36d01 	sbcseq	r6, r3, r1, lsl #26
    4278:	091c0000 	ldmdbeq	ip, {}	; <UNPREDICTABLE>
    427c:	00001757 	andeq	r1, r0, r7, asr r7
    4280:	00936e01 	addseq	r6, r3, r1, lsl #28
    4284:	09200000 	stmdbeq	r0!, {}	; <UNPREDICTABLE>
    4288:	00001486 	andeq	r1, r0, r6, lsl #9
    428c:	01dc6f01 	bicseq	r6, ip, r1, lsl #30
    4290:	00240000 	eoreq	r0, r4, r0
    4294:	0015ea04 	andseq	lr, r5, r4, lsl #20
    4298:	19730100 	ldmdbne	r3!, {r8}^
    429c:	04000002 	streq	r0, [r0], #-2
    42a0:	0000176e 	andeq	r1, r0, lr, ror #14
    42a4:	026e7701 	rsbeq	r7, lr, #262144	; 0x40000
    42a8:	49080000 	stmdbmi	r8, {}	; <UNPREDICTABLE>
    42ac:	08000018 	stmdaeq	r0, {r3, r4}
    42b0:	02a97e01 	adceq	r7, r9, #1, 28
    42b4:	b1090000 	mrslt	r0, (UNDEF: 9)
    42b8:	01000017 	tsteq	r0, r7, lsl r0
    42bc:	0000de80 	andeq	sp, r0, r0, lsl #29
    42c0:	a9090000 	stmdbge	r9, {}	; <UNPREDICTABLE>
    42c4:	01000017 	tsteq	r0, r7, lsl r0
    42c8:	0002a981 	andeq	sl, r2, r1, lsl #19
    42cc:	06000400 	streq	r0, [r0], -r0, lsl #8
    42d0:	00027904 	andeq	r7, r2, r4, lsl #18
    42d4:	14f20400 	ldrbtne	r0, [r2], #1024	; 0x400
    42d8:	82010000 	andhi	r0, r1, #0
    42dc:	00000284 	andeq	r0, r0, r4, lsl #5
    42e0:	00163608 	andseq	r3, r6, r8, lsl #12
    42e4:	85010c00 	strhi	r0, [r1, #-3072]	; 0xfffff400
    42e8:	000002eb 	andeq	r0, r0, fp, ror #5
    42ec:	00148609 	andseq	r8, r4, r9, lsl #12
    42f0:	f8870100 			; <UNDEFINED> instruction: 0xf8870100
    42f4:	00000001 	andeq	r0, r0, r1
    42f8:	0016c609 	andseq	ip, r6, r9, lsl #12
    42fc:	93880100 	orrls	r0, r8, #0, 2
    4300:	04000000 	streq	r0, [r0], #-0
    4304:	0014ce09 	andseq	ip, r4, r9, lsl #28
    4308:	bd890100 	stflts	f0, [r9]
    430c:	08000000 	stmdaeq	r0, {}	; <UNPREDICTABLE>
    4310:	15510400 	ldrbne	r0, [r1, #-1024]	; 0xfffffc00
    4314:	8a010000 	bhi	4431c <__exidx_end+0x42574>
    4318:	000002ba 			; <UNDEFINED> instruction: 0x000002ba
    431c:	91010c0c 	tstls	r1, ip, lsl #24
    4320:	00000315 	andeq	r0, r0, r5, lsl r3
    4324:	0014b10d 	andseq	fp, r4, sp, lsl #2
    4328:	af930100 	svcge	0x00930100
    432c:	0d000002 	stceq	0, cr0, [r0, #-8]
    4330:	0000166a 	andeq	r1, r0, sl, ror #12
    4334:	02eb9801 	rsceq	r9, fp, #65536	; 0x10000
    4338:	08000000 	stmdaeq	r0, {}	; <UNPREDICTABLE>
    433c:	000015d5 	ldrdeq	r1, [r0], -r5
    4340:	388e0110 	stmcc	lr, {r4, r8}
    4344:	09000003 	stmdbeq	r0, {r0, r1}
    4348:	00001776 	andeq	r1, r0, r6, ror r7
    434c:	00c89001 	sbceq	r9, r8, r1
    4350:	0e000000 	cdpeq	0, 0, cr0, cr0, cr0, {0}
    4354:	9a010075 	bls	44530 <__exidx_end+0x42788>
    4358:	000002f6 	strdeq	r0, [r0], -r6
    435c:	81040004 	tsthi	r4, r4
    4360:	01000017 	tsteq	r0, r7, lsl r0
    4364:	0003159b 	muleq	r3, fp, r5
    4368:	15a60f00 	strne	r0, [r6, #3840]!	; 0xf00
    436c:	20010000 	andcs	r0, r1, r0
    4370:	0000c802 	andeq	ip, r0, r2, lsl #16
    4374:	03910100 	orrseq	r0, r1, #0, 2
    4378:	a9100000 	ldmdbge	r0, {}	; <UNPREDICTABLE>
    437c:	01000017 	tsteq	r0, r7, lsl r0
    4380:	03910220 	orrseq	r0, r1, #32, 4
    4384:	39100000 	ldmdbcc	r0, {}	; <UNPREDICTABLE>
    4388:	01000018 	tsteq	r0, r8, lsl r0
    438c:	03960220 	orrseq	r0, r6, #32, 4
    4390:	a8100000 	ldmdage	r0, {}	; <UNPREDICTABLE>
    4394:	01000014 	tsteq	r0, r4, lsl r0
    4398:	03960220 	orrseq	r0, r6, #32, 4
    439c:	65100000 	ldrvs	r0, [r0, #-0]
    43a0:	01000014 	tsteq	r0, r4, lsl r0
    43a4:	03960220 	orrseq	r0, r6, #32, 4
    43a8:	32110000 	andscc	r0, r1, #0
    43ac:	01000015 	tsteq	r0, r5, lsl r0
    43b0:	00c80222 	sbceq	r0, r8, r2, lsr #4
    43b4:	07000000 	streq	r0, [r0, -r0]
    43b8:	000002a9 	andeq	r0, r0, r9, lsr #5
    43bc:	0000de07 	andeq	sp, r0, r7, lsl #28
    43c0:	17bf1200 	ldrne	r1, [pc, r0, lsl #4]!
    43c4:	02010000 	andeq	r0, r1, #0
    43c8:	0014a403 	andseq	sl, r4, r3, lsl #8
    43cc:	00005800 	andeq	r5, r0, r0, lsl #16
    43d0:	139c0100 	orrsne	r0, ip, #0, 2
    43d4:	13000004 	movwne	r0, #4
    43d8:	000014aa 	andeq	r1, r0, sl, lsr #9
    43dc:	00000e8c 	andeq	r0, r0, ip, lsl #29
    43e0:	0014ba14 	andseq	fp, r4, r4, lsl sl
    43e4:	000e9700 	andeq	r9, lr, r0, lsl #14
    43e8:	0003ce00 	andeq	ip, r3, r0, lsl #28
    43ec:	50011500 	andpl	r1, r1, r0, lsl #10
    43f0:	00007702 	andeq	r7, r0, r2, lsl #14
    43f4:	0014c214 	andseq	ip, r4, r4, lsl r2
    43f8:	000e9700 	andeq	r9, lr, r0, lsl #14
    43fc:	0003e200 	andeq	lr, r3, r0, lsl #4
    4400:	50011500 	andpl	r1, r1, r0, lsl #10
    4404:	00007602 	andeq	r7, r0, r2, lsl #12
    4408:	0014d414 	andseq	sp, r4, r4, lsl r4
    440c:	000ea300 	andeq	sl, lr, r0, lsl #6
    4410:	00040000 	andeq	r0, r4, r0
    4414:	50011500 	andpl	r1, r1, r0, lsl #10
    4418:	01153a01 	tsteq	r5, r1, lsl #20
    441c:	15400151 	strbne	r0, [r0, #-337]	; 0xfffffeaf
    4420:	75025201 	strvc	r5, [r2, #-513]	; 0xfffffdff
    4424:	de130000 	cdple	0, 1, cr0, cr3, cr0, {0}
    4428:	af000014 	svcge	0x00000014
    442c:	1300000e 	movwne	r0, #14
    4430:	000014e4 	andeq	r1, r0, r4, ror #9
    4434:	00000eba 			; <UNDEFINED> instruction: 0x00000eba
    4438:	03431600 	movteq	r1, #13824	; 0x3600
    443c:	14fc0000 	ldrbtne	r0, [ip], #0
    4440:	003c0000 	eorseq	r0, ip, r0
    4444:	9c010000 	stcls	0, cr0, [r1], {-0}
    4448:	0000049e 	muleq	r0, lr, r4
    444c:	00035417 	andeq	r5, r3, r7, lsl r4
    4450:	00303d00 	eorseq	r3, r0, r0, lsl #26
    4454:	03601700 	cmneq	r0, #0, 14
    4458:	305e0000 	subscc	r0, lr, r0
    445c:	6c170000 	ldcvs	0, cr0, [r7], {-0}
    4460:	b1000003 	tstlt	r0, r3
    4464:	17000030 	smladxne	r0, r0, r0, r0
    4468:	00000378 	andeq	r0, r0, r8, ror r3
    446c:	000030eb 	andeq	r3, r0, fp, ror #1
    4470:	00038418 	andeq	r8, r3, r8, lsl r4
    4474:	00312500 	eorseq	r2, r1, r0, lsl #10
    4478:	15101900 	ldrne	r1, [r0, #-2304]	; 0xfffff700
    447c:	00060000 	andeq	r0, r6, r0
    4480:	04940000 	ldreq	r0, [r4], #0
    4484:	60170000 	andsvs	r0, r7, r0
    4488:	4f000003 	svcmi	0x00000003
    448c:	17000031 	smladxne	r0, r1, r0, r0
    4490:	0000036c 	andeq	r0, r0, ip, ror #6
    4494:	0000316e 	andeq	r3, r0, lr, ror #2
    4498:	00037817 	andeq	r7, r3, r7, lsl r8
    449c:	00318400 	eorseq	r8, r1, r0, lsl #8
    44a0:	03541700 	cmpeq	r4, #0, 14
    44a4:	319a0000 	orrscc	r0, sl, r0
    44a8:	101a0000 	andsne	r0, sl, r0
    44ac:	06000015 			; <UNDEFINED> instruction: 0x06000015
    44b0:	1b000000 	blne	44b8 <__exidx_end+0x2710>
    44b4:	00000384 	andeq	r0, r0, r4, lsl #7
    44b8:	2a130000 	bcs	4c44c0 <__exidx_end+0x4c2718>
    44bc:	c5000015 	strgt	r0, [r0, #-21]	; 0xffffffeb
    44c0:	0000000e 	andeq	r0, r0, lr
    44c4:	000cfc1c 	andeq	pc, ip, ip, lsl ip	; <UNPREDICTABLE>
    44c8:	c8f00100 	ldmgt	r0!, {r8}^
    44cc:	38000000 	stmdacc	r0, {}	; <UNPREDICTABLE>
    44d0:	44000015 	strmi	r0, [r0], #-21	; 0xffffffeb
    44d4:	01000000 	mrseq	r0, (UNDEF: 0)
    44d8:	0005199c 	muleq	r5, ip, r9
    44dc:	073b1d00 	ldreq	r1, [fp, -r0, lsl #26]!
    44e0:	f2010000 	vhadd.s8	d0, d1, d0
    44e4:	000000c8 	andeq	r0, r0, r8, asr #1
    44e8:	000031ad 	andeq	r3, r0, sp, lsr #3
    44ec:	00153e13 	andseq	r3, r5, r3, lsl lr
    44f0:	00039b00 	andeq	r9, r3, r0, lsl #22
    44f4:	154a1300 	strbne	r1, [sl, #-768]	; 0xfffffd00
    44f8:	0eaf0000 	cdpeq	0, 10, cr0, cr15, cr0, {0}
    44fc:	641e0000 	ldrvs	r0, [lr], #-0
    4500:	d1000015 	tstle	r0, r5, lsl r0
    4504:	1500000e 	strne	r0, [r0, #-14]
    4508:	03055001 	movweq	r5, #20481	; 0x5001
    450c:	0000162d 	andeq	r1, r0, sp, lsr #12
    4510:	05510115 	ldrbeq	r0, [r1, #-277]	; 0xfffffeeb
    4514:	001d8f03 	andseq	r8, sp, r3, lsl #30
    4518:	52011500 	andpl	r1, r1, #0, 10
    451c:	01900a03 	orrseq	r0, r0, r3, lsl #20
    4520:	01530115 	cmpeq	r3, r5, lsl r1
    4524:	7d021530 	cfstr32vc	mvfx1, [r2, #-192]	; 0xffffff40
    4528:	15410100 	strbne	r0, [r1, #-256]	; 0xffffff00
    452c:	01047d02 	tsteq	r4, r2, lsl #26
    4530:	7d021530 	cfstr32vc	mvfx1, [r2, #-192]	; 0xffffff40
    4534:	15300108 	ldrne	r0, [r0, #-264]!	; 0xfffffef8
    4538:	010c7d02 	tsteq	ip, r2, lsl #26
    453c:	1f000030 	svcne	0x00000030
    4540:	0000164c 	andeq	r1, r0, ip, asr #12
    4544:	d1011301 	tstle	r1, r1, lsl #6
    4548:	00000001 	andeq	r0, r0, r1
    454c:	3c000000 	stccc	0, cr0, [r0], {-0}
    4550:	01000000 	mrseq	r0, (UNDEF: 0)
    4554:	0005cd9c 	muleq	r5, ip, sp
    4558:	14c22000 	strbne	r2, [r2], #0
    455c:	13010000 	movwne	r0, #4096	; 0x1000
    4560:	0001c101 	andeq	ip, r1, r1, lsl #2
    4564:	0031d800 	eorseq	sp, r1, r0, lsl #16
    4568:	14722000 	ldrbtne	r2, [r2], #-0
    456c:	13010000 	movwne	r0, #4096	; 0x1000
    4570:	00039601 	andeq	r9, r3, r1, lsl #12
    4574:	00321a00 	eorseq	r1, r2, r0, lsl #20
    4578:	17612000 	strbne	r2, [r1, -r0]!
    457c:	13010000 	movwne	r0, #4096	; 0x1000
    4580:	0005cd01 	andeq	ip, r5, r1, lsl #26
    4584:	00325c00 	eorseq	r5, r2, r0, lsl #24
    4588:	17572000 	ldrbne	r2, [r7, -r0]
    458c:	13010000 	movwne	r0, #4096	; 0x1000
    4590:	0005d201 	andeq	sp, r5, r1, lsl #4
    4594:	00329e00 	eorseq	r9, r2, r0, lsl #28
    4598:	14862100 	strne	r2, [r6], #256	; 0x100
    459c:	13010000 	movwne	r0, #4096	; 0x1000
    45a0:	0001dc01 	andeq	sp, r1, r1, lsl #24
    45a4:	00910200 	addseq	r0, r1, r0, lsl #4
    45a8:	00156622 	andseq	r6, r5, r2, lsr #12
    45ac:	01150100 	tsteq	r5, r0, lsl #2
    45b0:	000002a9 	andeq	r0, r0, r9, lsr #5
    45b4:	000032d4 	ldrdeq	r3, [r0], -r4
    45b8:	00000014 	andeq	r0, r0, r4, lsl r0
    45bc:	000edd00 	andeq	sp, lr, r0, lsl #26
    45c0:	0005a600 	andeq	sl, r5, r0, lsl #12
    45c4:	50011500 	andpl	r1, r1, r0, lsl #10
    45c8:	00280802 	eoreq	r0, r8, r2, lsl #16
    45cc:	00000013 	andeq	r0, r0, r3, lsl r0
    45d0:	00039b00 	andeq	r9, r3, r0, lsl #22
    45d4:	00001400 	andeq	r1, r0, r0, lsl #8
    45d8:	0ee80000 	cdpeq	0, 14, cr0, cr8, cr0, {0}
    45dc:	05c30000 	strbeq	r0, [r3]
    45e0:	01150000 	tsteq	r5, r0
    45e4:	04740250 	ldrbteq	r0, [r4], #-592	; 0xfffffdb0
    45e8:	00001300 	andeq	r1, r0, r0, lsl #6
    45ec:	0eaf0000 	cdpeq	0, 10, cr0, cr15, cr0, {0}
    45f0:	07000000 	streq	r0, [r0, -r0]
    45f4:	000000d3 	ldrdeq	r0, [r0], -r3
    45f8:	00009307 	andeq	r9, r0, r7, lsl #6
    45fc:	16e41f00 	strbtne	r1, [r4], r0, lsl #30
    4600:	3c010000 	stccc	0, cr0, [r1], {-0}
    4604:	0000c801 	andeq	ip, r0, r1, lsl #16
    4608:	00157c00 	andseq	r7, r5, r0, lsl #24
    460c:	00004800 	andeq	r4, r0, r0, lsl #16
    4610:	989c0100 	ldmls	ip, {r8}
    4614:	20000006 	andcs	r0, r0, r6
    4618:	000017aa 	andeq	r1, r0, sl, lsr #15
    461c:	d1013c01 	tstle	r1, r1, lsl #24
    4620:	14000001 	strne	r0, [r0], #-1
    4624:	20000033 	andcs	r0, r0, r3, lsr r0
    4628:	00001527 	andeq	r1, r0, r7, lsr #10
    462c:	98013c01 	stmdals	r1, {r0, sl, fp, ip, sp}
    4630:	40000006 	andmi	r0, r0, r6
    4634:	20000033 	andcs	r0, r0, r3, lsr r0
    4638:	00001571 	andeq	r1, r0, r1, ror r5
    463c:	96013c01 	strls	r3, [r1], -r1, lsl #24
    4640:	86000003 	strhi	r0, [r0], -r3
    4644:	20000033 	andcs	r0, r0, r3, lsr r0
    4648:	00000505 	andeq	r0, r0, r5, lsl #10
    464c:	a3013c01 	movwge	r3, #7169	; 0x1c01
    4650:	b2000006 	andlt	r0, r0, #6
    4654:	21000033 	tstcs	r0, r3, lsr r0
    4658:	00001292 	muleq	r0, r2, r2
    465c:	96013c01 	strls	r3, [r1], -r1, lsl #24
    4660:	02000003 	andeq	r0, r0, #3
    4664:	3b220091 	blcc	8848b0 <__exidx_end+0x882b08>
    4668:	01000007 	tsteq	r0, r7
    466c:	00c8013e 	sbceq	r0, r8, lr, lsr r1
    4670:	33ec0000 	mvncc	r0, #0
    4674:	4e230000 	cdpmi	0, 2, cr0, cr3, cr0, {0}
    4678:	01000017 	tsteq	r0, r7, lsl r0
    467c:	0338013f 	teqeq	r8, #-1073741809	; 0xc000000f
    4680:	91020000 	mrsls	r0, (UNDEF: 2)
    4684:	159c1358 	ldrne	r1, [ip, #856]	; 0x358
    4688:	0ef40000 	cdpeq	0, 15, cr0, cr4, cr0, {0}
    468c:	ae140000 	cdpge	0, 1, cr0, cr4, cr0, {0}
    4690:	00000015 	andeq	r0, r0, r5, lsl r0
    4694:	7c00000f 	stcvc	0, cr0, [r0], {15}
    4698:	15000006 	strne	r0, [r0, #-6]
    469c:	7d025101 	stfvcs	f5, [r2, #-4]
    46a0:	ba1e0000 	blt	7846a8 <__exidx_end+0x782900>
    46a4:	0c000015 	stceq	0, cr0, [r0], {21}
    46a8:	1500000f 	strne	r0, [r0, #-15]
    46ac:	74025001 	strvc	r5, [r2], #-1
    46b0:	51011500 	tstpl	r1, r0, lsl #10
    46b4:	15007d02 	strne	r7, [r0, #-3330]	; 0xfffff2fe
    46b8:	30015301 	andcc	r5, r1, r1, lsl #6
    46bc:	c8070000 	stmdagt	r7, {}	; <UNPREDICTABLE>
    46c0:	06000000 	streq	r0, [r0], -r0
    46c4:	0000c804 	andeq	ip, r0, r4, lsl #16
    46c8:	069d0700 	ldreq	r0, [sp], r0, lsl #14
    46cc:	a3120000 	tstge	r2, #0
    46d0:	01000016 	tsteq	r0, r6, lsl r0
    46d4:	15c402c7 	strbne	r0, [r4, #711]	; 0x2c7
    46d8:	00680000 	rsbeq	r0, r8, r0
    46dc:	9c010000 	stcls	0, cr0, [r1], {-0}
    46e0:	00000778 	andeq	r0, r0, r8, ror r7
    46e4:	00170622 	andseq	r0, r7, r2, lsr #12
    46e8:	02c90100 	sbceq	r0, r9, #0, 2
    46ec:	000000de 	ldrdeq	r0, [r0], -lr
    46f0:	00003422 	andeq	r3, r0, r2, lsr #8
    46f4:	00179522 	andseq	r9, r7, r2, lsr #10
    46f8:	02c90100 	sbceq	r0, r9, #0, 2
    46fc:	000000de 	ldrdeq	r0, [r0], -lr
    4700:	00003435 	andeq	r3, r0, r5, lsr r4
    4704:	00124923 	andseq	r4, r2, r3, lsr #18
    4708:	02ca0100 	sbceq	r0, sl, #0, 2
    470c:	00000778 	andeq	r0, r0, r8, ror r7
    4710:	a9225301 	stmdbge	r2!, {r0, r8, r9, ip, lr}
    4714:	01000017 	tsteq	r0, r7, lsl r0
    4718:	02a902cb 	adceq	r0, r9, #-1342177268	; 0xb000000c
    471c:	34530000 	ldrbcc	r0, [r3], #-0
    4720:	a1220000 			; <UNDEFINED> instruction: 0xa1220000
    4724:	01000017 	tsteq	r0, r7, lsl r0
    4728:	00c802cc 	sbceq	r0, r8, ip, asr #5
    472c:	34660000 	strbtcc	r0, [r6], #-0
    4730:	de140000 	cdple	0, 1, cr0, cr4, cr0, {0}
    4734:	18000015 	stmdane	r0, {r0, r2, r4}
    4738:	2000000f 	andcs	r0, r0, pc
    473c:	15000007 	strne	r0, [r0, #-7]
    4740:	77025001 	strvc	r5, [r2, -r1]
    4744:	e4240000 	strt	r0, [r4], #-0
    4748:	30000015 	andcc	r0, r0, r5, lsl r0
    474c:	15000007 	strne	r0, [r0, #-7]
    4750:	74025001 	strvc	r5, [r2], #-1
    4754:	fe140000 	cdp2	0, 1, cr0, cr4, cr0, {0}
    4758:	c5000015 	strgt	r0, [r0, #-21]	; 0xffffffeb
    475c:	4400000e 	strmi	r0, [r0], #-14
    4760:	15000007 	strne	r0, [r0, #-7]
    4764:	77025101 	strvc	r5, [r2, -r1, lsl #2]
    4768:	0e140000 	cdpeq	0, 1, cr0, cr4, cr0, {0}
    476c:	d7000016 	smladle	r0, r6, r0, r0
    4770:	6e000005 	cdpvs	0, 0, cr0, cr0, cr5, {0}
    4774:	15000007 	strne	r0, [r0, #-7]
    4778:	74025001 	strvc	r5, [r2], #-1
    477c:	51011500 	tstpl	r1, r0, lsl #10
    4780:	01153001 	tsteq	r5, r1
    4784:	00760252 	rsbseq	r0, r6, r2, asr r2
    4788:	01530115 	cmpeq	r3, r5, lsl r1
    478c:	7d021530 	cfstr32vc	mvfx1, [r2, #-192]	; 0xffffff40
    4790:	00300100 	eorseq	r0, r0, r0, lsl #2
    4794:	00161613 	andseq	r1, r6, r3, lsl r6
    4798:	000eaf00 	andeq	sl, lr, r0, lsl #30
    479c:	04060000 	streq	r0, [r6], #-0
    47a0:	000001b6 			; <UNDEFINED> instruction: 0x000001b6
    47a4:	00171625 	andseq	r1, r7, r5, lsr #12
    47a8:	02490100 	subeq	r0, r9, #0, 2
    47ac:	0007d601 	andeq	sp, r7, r1, lsl #12
    47b0:	174e1100 	strbne	r1, [lr, -r0, lsl #2]
    47b4:	4b010000 	blmi	447bc <__exidx_end+0x42a14>
    47b8:	00033802 	andeq	r3, r3, r2, lsl #16
    47bc:	17a91100 	strne	r1, [r9, r0, lsl #2]!
    47c0:	4c010000 	stcmi	0, cr0, [r1], {-0}
    47c4:	0002a902 	andeq	sl, r2, r2, lsl #18
    47c8:	14361100 	ldrtne	r1, [r6], #-256	; 0xffffff00
    47cc:	4d010000 	stcmi	0, cr0, [r1, #-0]
    47d0:	0000c802 	andeq	ip, r0, r2, lsl #16
    47d4:	17a11100 	strne	r1, [r1, r0, lsl #2]!
    47d8:	4d010000 	stcmi	0, cr0, [r1, #-0]
    47dc:	0000c802 	andeq	ip, r0, r2, lsl #16
    47e0:	14a81100 	strtne	r1, [r8], #256	; 0x100
    47e4:	4e010000 	cdpmi	0, 0, cr0, cr1, cr0, {0}
    47e8:	0000de02 	andeq	sp, r0, r2, lsl #28
    47ec:	5c112600 	ldcpl	6, cr2, [r1], {-0}
    47f0:	01000018 	tsteq	r0, r8, lsl r0
    47f4:	07e10258 	ubfxeq	r0, r8, #4, #2
    47f8:	00000000 	andeq	r0, r0, r0
    47fc:	07dc0406 	ldrbeq	r0, [ip, r6, lsl #8]
    4800:	eb070000 	bl	1c4808 <__exidx_end+0x1c2a60>
    4804:	07000002 	streq	r0, [r0, -r2]
    4808:	000007d6 	ldrdeq	r0, [r0], -r6
    480c:	00181e25 	andseq	r1, r8, r5, lsr #28
    4810:	01ba0100 			; <UNDEFINED> instruction: 0x01ba0100
    4814:	00082401 	andeq	r2, r8, r1, lsl #8
    4818:	17061000 	strne	r1, [r6, -r0]
    481c:	ba010000 	blt	44824 <__exidx_end+0x42a7c>
    4820:	00039601 	andeq	r9, r3, r1, lsl #12
    4824:	149a1000 	ldrne	r1, [sl], #0
    4828:	ba010000 	blt	44830 <__exidx_end+0x42a88>
    482c:	00069801 	andeq	r9, r6, r1, lsl #16
    4830:	14a81100 	strtne	r1, [r8], #256	; 0x100
    4834:	bc010000 	stclt	0, cr0, [r1], {-0}
    4838:	0000de01 	andeq	sp, r0, r1, lsl #28
    483c:	14361100 	ldrtne	r1, [r6], #-256	; 0xffffff00
    4840:	bd010000 	stclt	0, cr0, [r1, #-0]
    4844:	0000c801 	andeq	ip, r0, r1, lsl #16
    4848:	670f0000 	strvs	r0, [pc, -r0]
    484c:	01000018 	tsteq	r0, r8, lsl r0
    4850:	00de01ef 	sbcseq	r0, lr, pc, ror #3
    4854:	4e010000 	cdpmi	0, 0, cr0, cr1, cr0, {0}
    4858:	10000008 	andne	r0, r0, r8
    485c:	00001499 	muleq	r0, r9, r4
    4860:	a301ef01 	movwge	lr, #7937	; 0x1f01
    4864:	11000006 	tstne	r0, r6
    4868:	00001706 	andeq	r1, r0, r6, lsl #14
    486c:	de01f101 	mvfles	f7, f1
    4870:	00000000 	andeq	r0, r0, r0
    4874:	0016590f 	andseq	r5, r6, pc, lsl #18
    4878:	02090100 	andeq	r0, r9, #0, 2
    487c:	000000de 	ldrdeq	r0, [r0], -lr
    4880:	00088401 	andeq	r8, r8, r1, lsl #8
    4884:	14351000 	ldrtne	r1, [r5], #-0
    4888:	09010000 	stmdbeq	r1, {}	; <UNPREDICTABLE>
    488c:	0006a302 	andeq	sl, r6, r2, lsl #6
    4890:	14a81100 	strtne	r1, [r8], #256	; 0x100
    4894:	0b010000 	bleq	4489c <__exidx_end+0x42af4>
    4898:	0000de02 	andeq	sp, r0, r2, lsl #28
    489c:	17311100 	ldrne	r1, [r1, -r0, lsl #2]!
    48a0:	0c010000 	stceq	0, cr0, [r1], {-0}
    48a4:	0000de02 	andeq	sp, r0, r2, lsl #28
    48a8:	4e250000 	cdpmi	0, 2, cr0, cr5, cr0, {0}
    48ac:	01000014 	tsteq	r0, r4, lsl r0
    48b0:	c201017a 	andgt	r0, r1, #-2147483618	; 0x8000001e
    48b4:	10000008 	andne	r0, r0, r8
    48b8:	00001706 	andeq	r1, r0, r6, lsl #14
    48bc:	96017a01 	strls	r7, [r1], -r1, lsl #20
    48c0:	10000003 	andne	r0, r0, r3
    48c4:	000014a8 	andeq	r1, r0, r8, lsr #9
    48c8:	96017a01 	strls	r7, [r1], -r1, lsl #20
    48cc:	11000003 	tstne	r0, r3
    48d0:	000017a1 	andeq	r1, r0, r1, lsr #15
    48d4:	c8017c01 	stmdagt	r1, {r0, sl, fp, ip, sp, lr}
    48d8:	11000000 	mrsne	r0, (UNDEF: 0)
    48dc:	000017a9 	andeq	r1, r0, r9, lsr #15
    48e0:	91017d01 	tstls	r1, r1, lsl #26
    48e4:	00000003 	andeq	r0, r0, r3
    48e8:	0016f927 	andseq	pc, r6, r7, lsr #18
    48ec:	01a20100 			; <UNDEFINED> instruction: 0x01a20100
    48f0:	0000162c 	andeq	r1, r0, ip, lsr #12
    48f4:	00000188 	andeq	r0, r0, r8, lsl #3
    48f8:	0c359c01 	ldceq	12, cr9, [r5], #-4
    48fc:	bb200000 	bllt	804904 <__exidx_end+0x802b5c>
    4900:	01000003 	tsteq	r0, r3
    4904:	009301a2 	addseq	r0, r3, r2, lsr #3
    4908:	34790000 	ldrbtcc	r0, [r9], #-0
    490c:	06230000 	strteq	r0, [r3], -r0
    4910:	01000017 	tsteq	r0, r7, lsl r0
    4914:	00de01a4 	sbcseq	r0, lr, r4, lsr #3
    4918:	54010000 	strpl	r0, [r1], #-0
    491c:	00149a22 	andseq	r9, r4, r2, lsr #20
    4920:	01a50100 			; <UNDEFINED> instruction: 0x01a50100
    4924:	000000c8 	andeq	r0, r0, r8, asr #1
    4928:	0000349a 	muleq	r0, sl, r4
    492c:	00082428 	andeq	r2, r8, r8, lsr #8
    4930:	00163000 	andseq	r3, r6, r0
    4934:	00001200 	andeq	r1, r0, r0, lsl #4
    4938:	01ae0100 			; <UNDEFINED> instruction: 0x01ae0100
    493c:	00000933 	andeq	r0, r0, r3, lsr r9
    4940:	00083517 	andeq	r3, r8, r7, lsl r5
    4944:	0034c700 	eorseq	ip, r4, r0, lsl #14
    4948:	16301a00 	ldrtne	r1, [r0], -r0, lsl #20
    494c:	00120000 	andseq	r0, r2, r0
    4950:	411b0000 	tstmi	fp, r0
    4954:	00000008 	andeq	r0, r0, r8
    4958:	07e62800 	strbeq	r2, [r6, r0, lsl #16]!
    495c:	16420000 	strbne	r0, [r2], -r0
    4960:	00960000 	addseq	r0, r6, r0
    4964:	b2010000 	andlt	r0, r1, #0
    4968:	000abb01 	andeq	fp, sl, r1, lsl #22
    496c:	07ff1700 	ldrbeq	r1, [pc, r0, lsl #14]!
    4970:	34df0000 	ldrbcc	r0, [pc], #0	; 4978 <__exidx_end+0x2bd0>
    4974:	f3290000 	vhadd.u32	d0, d9, d0
    4978:	1a000007 	bne	499c <__exidx_end+0x2bf4>
    497c:	00001642 	andeq	r1, r0, r2, asr #12
    4980:	00000096 	muleq	r0, r6, r0
    4984:	00080b2a 	andeq	r0, r8, sl, lsr #22
    4988:	18550100 	ldmdane	r5, {r8}^
    498c:	00000817 	andeq	r0, r0, r7, lsl r8
    4990:	0000350c 	andeq	r3, r0, ip, lsl #10
    4994:	00084e28 	andeq	r4, r8, r8, lsr #28
    4998:	00164600 	andseq	r4, r6, r0, lsl #12
    499c:	00001800 	andeq	r1, r0, r0, lsl #16
    49a0:	01c60100 	biceq	r0, r6, r0, lsl #2
    49a4:	000009bc 			; <UNDEFINED> instruction: 0x000009bc
    49a8:	00085f17 	andeq	r5, r8, r7, lsl pc
    49ac:	00353800 	eorseq	r3, r5, r0, lsl #16
    49b0:	16461a00 	strbne	r1, [r6], -r0, lsl #20
    49b4:	00180000 	andseq	r0, r8, r0
    49b8:	6b180000 	blvs	6049c0 <__exidx_end+0x602c18>
    49bc:	50000008 	andpl	r0, r0, r8
    49c0:	2a000035 	bcs	4a9c <__exidx_end+0x2cf4>
    49c4:	00000877 	andeq	r0, r0, r7, ror r8
    49c8:	e3840305 	orr	r0, r4, #335544320	; 0x14000000
    49cc:	4a131fff 	bmi	4cc9d0 <__exidx_end+0x4cac28>
    49d0:	24000016 	strcs	r0, [r0], #-22	; 0xffffffea
    49d4:	1300000f 	movwne	r0, #15
    49d8:	0000165a 	andeq	r1, r0, sl, asr r6
    49dc:	000006a8 	andeq	r0, r0, r8, lsr #13
    49e0:	84280000 	strthi	r0, [r8], #-0
    49e4:	70000008 	andvc	r0, r0, r8
    49e8:	4a000016 	bmi	4a48 <__exidx_end+0x2ca0>
    49ec:	01000000 	mrseq	r0, (UNDEF: 0)
    49f0:	0a7501cd 	beq	1d4512c <__exidx_end+0x1d43384>
    49f4:	9d170000 	ldcls	0, cr0, [r7, #-0]
    49f8:	6e000008 	cdpvs	0, 0, cr0, cr0, cr8, {0}
    49fc:	17000035 	smladxne	r0, r5, r0, r0
    4a00:	00000891 	muleq	r0, r1, r8
    4a04:	00003581 	andeq	r3, r0, r1, lsl #11
    4a08:	0016701a 	andseq	r7, r6, sl, lsl r0
    4a0c:	00004a00 	andeq	r4, r0, r0, lsl #20
    4a10:	08a91800 	stmiaeq	r9!, {fp, ip}
    4a14:	35940000 	ldrcc	r0, [r4]
    4a18:	b5180000 	ldrlt	r0, [r8, #-0]
    4a1c:	a7000008 	strge	r0, [r0, -r8]
    4a20:	14000035 	strne	r0, [r0], #-53	; 0xffffffcb
    4a24:	0000167e 	andeq	r1, r0, lr, ror r6
    4a28:	00000f18 	andeq	r0, r0, r8, lsl pc
    4a2c:	00000a11 	andeq	r0, r0, r1, lsl sl
    4a30:	02500115 	subseq	r0, r0, #1073741829	; 0x40000005
    4a34:	14000476 	strne	r0, [r0], #-1142	; 0xfffffb8a
    4a38:	00001692 	muleq	r0, r2, r6
    4a3c:	00000343 	andeq	r0, r0, r3, asr #6
    4a40:	00000a31 	andeq	r0, r0, r1, lsr sl
    4a44:	02500115 	subseq	r0, r0, #1073741829	; 0x40000005
    4a48:	01150076 	tsteq	r5, r6, ror r0
    4a4c:	00750252 	rsbseq	r0, r5, r2, asr r2
    4a50:	02530115 	subseq	r0, r3, #1073741829	; 0x40000005
    4a54:	14000074 	strne	r0, [r0], #-116	; 0xffffff8c
    4a58:	000016a4 	andeq	r1, r0, r4, lsr #13
    4a5c:	000005d7 	ldrdeq	r0, [r0], -r7
    4a60:	00000a5e 	andeq	r0, r0, lr, asr sl
    4a64:	02500115 	subseq	r0, r0, #1073741829	; 0x40000005
    4a68:	01150076 	tsteq	r5, r6, ror r0
    4a6c:	00770251 	rsbseq	r0, r7, r1, asr r2
    4a70:	02520115 	subseq	r0, r2, #1073741829	; 0x40000005
    4a74:	01150074 	tsteq	r5, r4, ror r0
    4a78:	00770253 	rsbseq	r0, r7, r3, asr r2
    4a7c:	007d0215 	rsbseq	r0, sp, r5, lsl r2
    4a80:	00007702 	andeq	r7, r0, r2, lsl #14
    4a84:	0016ac13 	andseq	sl, r6, r3, lsl ip
    4a88:	000eaf00 	andeq	sl, lr, r0, lsl #30
    4a8c:	16b42b00 	ldrtne	r2, [r4], r0, lsl #22
    4a90:	01150000 	tsteq	r5, r0
    4a94:	00760250 	rsbseq	r0, r6, r0, asr r2
    4a98:	13000000 	movwne	r0, #0
    4a9c:	00001646 	andeq	r1, r0, r6, asr #12
    4aa0:	00000f30 	andeq	r0, r0, r0, lsr pc
    4aa4:	00167013 	andseq	r7, r6, r3, lsl r0
    4aa8:	000f3c00 	andeq	r3, pc, r0, lsl #24
    4aac:	16c41400 	strbne	r1, [r4], r0, lsl #8
    4ab0:	0f480000 	svceq	0x00480000
    4ab4:	0a9e0000 	beq	fe784abc <__stack+0xde77eabc>
    4ab8:	01150000 	tsteq	r5, r0
    4abc:	00740551 	rsbseq	r0, r4, r1, asr r5
    4ac0:	001c0075 	andseq	r0, ip, r5, ror r0
    4ac4:	0016c813 	andseq	ip, r6, r3, lsl r8
    4ac8:	000f3c00 	andeq	r3, pc, r0, lsl #24
    4acc:	16d01300 	ldrbne	r1, [r0], r0, lsl #6
    4ad0:	0f540000 	svceq	0x00540000
    4ad4:	d6130000 	ldrle	r0, [r3], -r0
    4ad8:	3c000016 	stccc	0, cr0, [r0], {22}
    4adc:	0000000f 	andeq	r0, r0, pc
    4ae0:	077e2c00 	ldrbeq	r2, [lr, -r0, lsl #24]!
    4ae4:	16d80000 	ldrbne	r0, [r8], r0
    4ae8:	00dc0000 	sbcseq	r0, ip, r0
    4aec:	b5010000 	strlt	r0, [r1, #-0]
    4af0:	16d81a01 	ldrbne	r1, [r8], r1, lsl #20
    4af4:	00dc0000 	sbcseq	r0, ip, r0
    4af8:	8b2a0000 	blhi	a84b00 <__exidx_end+0xa82d58>
    4afc:	02000007 	andeq	r0, r0, #7
    4b00:	972a5891 			; <UNDEFINED> instruction: 0x972a5891
    4b04:	01000007 	tsteq	r0, r7
    4b08:	07a31b54 	sbfxeq	r1, r4, #22, #4
    4b0c:	af180000 	svcge	0x00180000
    4b10:	ba000007 	blt	4b34 <__exidx_end+0x2d8c>
    4b14:	2a000035 	bcs	4bf0 <__exidx_end+0x2e48>
    4b18:	000007bb 			; <UNDEFINED> instruction: 0x000007bb
    4b1c:	de195501 	cfmul32le	mvfx5, mvfx9, mvfx1
    4b20:	0a000016 	beq	4b80 <__exidx_end+0x2dd8>
    4b24:	18000000 	stmdane	r0, {}	; <UNPREDICTABLE>
    4b28:	1800000b 	stmdane	r0, {r0, r1, r3}
    4b2c:	000007c8 	andeq	r0, r0, r8, asr #15
    4b30:	000035cd 	andeq	r3, r0, sp, asr #11
    4b34:	0016e82d 	andseq	lr, r6, sp, lsr #16
    4b38:	54910300 	ldrpl	r0, [r1], #768	; 0x300
    4b3c:	4e280006 	cdpmi	0, 2, cr0, cr8, cr6, {0}
    4b40:	12000008 	andne	r0, r0, #8
    4b44:	34000017 	strcc	r0, [r0], #-23	; 0xffffffe9
    4b48:	01000000 	mrseq	r0, (UNDEF: 0)
    4b4c:	0b660282 	bleq	198555c <__exidx_end+0x19837b4>
    4b50:	5f170000 	svcpl	0x00170000
    4b54:	e2000008 	and	r0, r0, #8
    4b58:	1a000035 	bne	4c34 <__exidx_end+0x2e8c>
    4b5c:	00001712 	andeq	r1, r0, r2, lsl r7
    4b60:	00000034 	andeq	r0, r0, r4, lsr r0
    4b64:	00086b18 	andeq	r6, r8, r8, lsl fp
    4b68:	0035fa00 	eorseq	pc, r5, r0, lsl #20
    4b6c:	08772a00 	ldmdaeq	r7!, {r9, fp, sp}^
    4b70:	03050000 	movweq	r0, #20480	; 0x5000
    4b74:	1fffe384 	svcne	0x00ffe384
    4b78:	00171613 	andseq	r1, r7, r3, lsl r6
    4b7c:	000f2400 	andeq	r2, pc, r0, lsl #8
    4b80:	17261300 	strne	r1, [r6, -r0, lsl #6]!
    4b84:	06a80000 	strteq	r0, [r8], r0
    4b88:	00000000 	andeq	r0, r0, r0
    4b8c:	0016fe14 	andseq	pc, r6, r4, lsl lr	; <UNPREDICTABLE>
    4b90:	000f5f00 	andeq	r5, pc, r0, lsl #30
    4b94:	000b8400 	andeq	r8, fp, r0, lsl #8
    4b98:	51011500 	tstpl	r1, r0, lsl #10
    4b9c:	15589102 	ldrbne	r9, [r8, #-258]	; 0xfffffefe
    4ba0:	30015201 	andcc	r5, r1, r1, lsl #4
    4ba4:	01530115 	cmpeq	r3, r5, lsl r1
    4ba8:	12140030 	andsne	r0, r4, #48	; 0x30
    4bac:	18000017 	stmdane	r0, {r0, r1, r2, r4}
    4bb0:	9800000f 	stmdals	r0, {r0, r1, r2, r3}
    4bb4:	1500000b 	strne	r0, [r0, #-11]
    4bb8:	74025001 	strvc	r5, [r2], #-1
    4bbc:	4c140004 	ldcmi	0, cr0, [r4], {4}
    4bc0:	6b000017 	blvs	4c24 <__exidx_end+0x2e7c>
    4bc4:	ac00000f 	stcge	0, cr0, [r0], {15}
    4bc8:	1500000b 	strne	r0, [r0, #-11]
    4bcc:	74025001 	strvc	r5, [r2], #-1
    4bd0:	5e140000 	cdppl	0, 1, cr0, cr4, cr0, {0}
    4bd4:	43000017 	movwmi	r0, #23
    4bd8:	cd000003 	stcgt	0, cr0, [r0, #-12]
    4bdc:	1500000b 	strne	r0, [r0, #-11]
    4be0:	74025001 	strvc	r5, [r2], #-1
    4be4:	52011500 	andpl	r1, r1, #0, 10
    4be8:	15007502 	strne	r7, [r0, #-1282]	; 0xfffffafe
    4bec:	91035301 	tstls	r3, r1, lsl #6
    4bf0:	24000654 	strcs	r0, [r0], #-1620	; 0xfffff9ac
    4bf4:	00001768 	andeq	r1, r0, r8, ror #14
    4bf8:	00000bdd 	ldrdeq	r0, [r0], -sp
    4bfc:	02500115 	subseq	r0, r0, #1073741829	; 0x40000005
    4c00:	14000074 	strne	r0, [r0], #-116	; 0xffffff8c
    4c04:	00001780 	andeq	r1, r0, r0, lsl #15
    4c08:	000005d7 	ldrdeq	r0, [r0], -r7
    4c0c:	00000c04 	andeq	r0, r0, r4, lsl #24
    4c10:	02500115 	subseq	r0, r0, #1073741829	; 0x40000005
    4c14:	01150074 	tsteq	r5, r4, ror r0
    4c18:	00760251 	rsbseq	r0, r6, r1, asr r2
    4c1c:	02530115 	subseq	r0, r3, #1073741829	; 0x40000005
    4c20:	02150076 	andseq	r0, r5, #118	; 0x76
    4c24:	7602007d 			; <UNDEFINED> instruction: 0x7602007d
    4c28:	88130000 	ldmdahi	r3, {}	; <UNPREDICTABLE>
    4c2c:	af000017 	svcge	0x00000017
    4c30:	1300000e 	movwne	r0, #14
    4c34:	00001796 	muleq	r0, r6, r7
    4c38:	00000eaf 	andeq	r0, r0, pc, lsr #29
    4c3c:	0017a41e 	andseq	sl, r7, lr, lsl r4
    4c40:	00034300 	andeq	r4, r3, r0, lsl #6
    4c44:	50011500 	andpl	r1, r1, r0, lsl #10
    4c48:	15007402 	strne	r7, [r0, #-1026]	; 0xfffffbfe
    4c4c:	75025201 	strvc	r5, [r2, #-513]	; 0xfffffdff
    4c50:	53011500 	movwpl	r1, #5376	; 0x1500
    4c54:	00007502 	andeq	r7, r0, r2, lsl #10
    4c58:	1f000000 	svcne	0x00000000
    4c5c:	000017ec 	andeq	r1, r0, ip, ror #15
    4c60:	9c017201 	sfmls	f7, 4, [r1], {1}
    4c64:	00000000 	andeq	r0, r0, r0
    4c68:	04000000 	streq	r0, [r0], #-0
    4c6c:	01000000 	mrseq	r0, (UNDEF: 0)
    4c70:	000c709c 	muleq	ip, ip, r0
    4c74:	17aa2000 	strne	r2, [sl, r0]!
    4c78:	72010000 	andvc	r0, r1, #0
    4c7c:	0001d101 	andeq	sp, r1, r1, lsl #2
    4c80:	00361800 	eorseq	r1, r6, r0, lsl #16
    4c84:	17a92200 	strne	r2, [r9, r0, lsl #4]!
    4c88:	74010000 	strvc	r0, [r1], #-0
    4c8c:	0002a901 	andeq	sl, r2, r1, lsl #18
    4c90:	00363900 	eorseq	r3, r6, r0, lsl #18
    4c94:	801f0000 	andshi	r0, pc, r0
    4c98:	01000015 	tsteq	r0, r5, lsl r0
    4c9c:	00c80328 	sbceq	r0, r8, r8, lsr #6
    4ca0:	00000000 	andeq	r0, r0, r0
    4ca4:	00160000 	andseq	r0, r6, r0
    4ca8:	9c010000 	stcls	0, cr0, [r1], {-0}
    4cac:	00000ccd 	andeq	r0, r0, sp, asr #25
    4cb0:	0017aa20 	andseq	sl, r7, r0, lsr #20
    4cb4:	03280100 			; <UNDEFINED> instruction: 0x03280100
    4cb8:	000001d1 	ldrdeq	r0, [r0], -r1
    4cbc:	0000365a 	andeq	r3, r0, sl, asr r6
    4cc0:	00167e22 	andseq	r7, r6, r2, lsr #28
    4cc4:	032a0100 			; <UNDEFINED> instruction: 0x032a0100
    4cc8:	000000c8 	andeq	r0, r0, r8, asr #1
    4ccc:	00003686 	andeq	r3, r0, r6, lsl #13
    4cd0:	0017a922 	andseq	sl, r7, r2, lsr #18
    4cd4:	032b0100 			; <UNDEFINED> instruction: 0x032b0100
    4cd8:	000002a9 	andeq	r0, r0, r9, lsr #5
    4cdc:	000036a4 	andeq	r3, r0, r4, lsr #13
    4ce0:	00000013 	andeq	r0, r0, r3, lsl r0
    4ce4:	000e8c00 	andeq	r8, lr, r0, lsl #24
    4ce8:	00001300 	andeq	r1, r0, r0, lsl #6
    4cec:	0eba0000 	cdpeq	0, 11, cr0, cr10, cr0, {0}
    4cf0:	1f000000 	svcne	0x00000000
    4cf4:	00001594 	muleq	r0, r4, r5
    4cf8:	93033b01 	movwls	r3, #15105	; 0x3b01
    4cfc:	00000000 	andeq	r0, r0, r0
    4d00:	04000000 	streq	r0, [r0], #-0
    4d04:	01000000 	mrseq	r0, (UNDEF: 0)
    4d08:	000d089c 	muleq	sp, ip, r8
    4d0c:	17aa2000 	strne	r2, [sl, r0]!
    4d10:	3b010000 	blcc	44d18 <__exidx_end+0x42f70>
    4d14:	000d0803 	andeq	r0, sp, r3, lsl #16
    4d18:	0036d000 	eorseq	sp, r6, r0
    4d1c:	17a92200 	strne	r2, [r9, r0, lsl #4]!
    4d20:	3d010000 	stccc	0, cr0, [r1, #-0]
    4d24:	00039103 	andeq	r9, r3, r3, lsl #2
    4d28:	0036f100 	eorseq	pc, r6, r0, lsl #2
    4d2c:	d1070000 	mrsle	r0, (UNDEF: 7)
    4d30:	1f000001 	svcne	0x00000001
    4d34:	00001800 	andeq	r1, r0, r0, lsl #16
    4d38:	c8034501 	stmdagt	r3, {r0, r8, sl, lr}
    4d3c:	00000000 	andeq	r0, r0, r0
    4d40:	28000000 	stmdacs	r0, {}	; <UNPREDICTABLE>
    4d44:	01000000 	mrseq	r0, (UNDEF: 0)
    4d48:	000da19c 	muleq	sp, ip, r1
    4d4c:	16932000 	ldrne	r2, [r3], r0
    4d50:	45010000 	strmi	r0, [r1, #-0]
    4d54:	0001f803 	andeq	pc, r1, r3, lsl #16
    4d58:	00371200 	eorseq	r1, r7, r0, lsl #4
    4d5c:	16c62000 	strbne	r2, [r6], r0
    4d60:	45010000 	strmi	r0, [r1, #-0]
    4d64:	00009303 	andeq	r9, r0, r3, lsl #6
    4d68:	00373f00 	eorseq	r3, r7, r0, lsl #30
    4d6c:	14ce2000 	strbne	r2, [lr], #0
    4d70:	45010000 	strmi	r0, [r1, #-0]
    4d74:	0000bd03 	andeq	fp, r0, r3, lsl #26
    4d78:	00376c00 	eorseq	r6, r7, r0, lsl #24
    4d7c:	05052000 	streq	r2, [r5, #-0]
    4d80:	45010000 	strmi	r0, [r1, #-0]
    4d84:	00069d03 	andeq	r9, r6, r3, lsl #26
    4d88:	00379800 	eorseq	r9, r7, r0, lsl #16
    4d8c:	174e2300 	strbne	r2, [lr, -r0, lsl #6]
    4d90:	47010000 	strmi	r0, [r1, -r0]
    4d94:	00033803 	andeq	r3, r3, r3, lsl #16
    4d98:	68910200 	ldmvs	r1, {r9}
    4d9c:	00073b23 	andeq	r3, r7, r3, lsr #22
    4da0:	03480100 	movteq	r0, #33024	; 0x8100
    4da4:	000000c8 	andeq	r0, r0, r8, asr #1
    4da8:	001e5001 	andseq	r5, lr, r1
    4dac:	0c000000 	stceq	0, cr0, [r0], {-0}
    4db0:	1500000f 	strne	r0, [r0, #-15]
    4db4:	7d025101 	stfvcs	f5, [r2, #-4]
    4db8:	52011500 	andpl	r1, r1, #0, 10
    4dbc:	5301f303 	movwpl	pc, #4867	; 0x1303	; <UNPREDICTABLE>
    4dc0:	01530115 	cmpeq	r3, r5, lsl r1
    4dc4:	1f000030 	svcne	0x00000030
    4dc8:	000014db 	ldrdeq	r1, [r0], -fp
    4dcc:	c8035d01 	stmdagt	r3, {r0, r8, sl, fp, ip, lr}
    4dd0:	00000000 	andeq	r0, r0, r0
    4dd4:	34000000 	strcc	r0, [r0], #-0
    4dd8:	01000000 	mrseq	r0, (UNDEF: 0)
    4ddc:	000e379c 	muleq	lr, ip, r7
    4de0:	16932000 	ldrne	r2, [r3], r0
    4de4:	5d010000 	stcpl	0, cr0, [r1, #-0]
    4de8:	0001f803 	andeq	pc, r1, r3, lsl #16
    4dec:	0037c400 	eorseq	ip, r7, r0, lsl #8
    4df0:	16c62000 	strbne	r2, [r6], r0
    4df4:	5d010000 	stcpl	0, cr0, [r1, #-0]
    4df8:	00009303 	andeq	r9, r0, r3, lsl #6
    4dfc:	0037f000 	eorseq	pc, r7, r0
    4e00:	14ce2000 	strbne	r2, [lr], #0
    4e04:	5d010000 	stcpl	0, cr0, [r1, #-0]
    4e08:	0000bd03 	andeq	fp, r0, r3, lsl #26
    4e0c:	00383600 	eorseq	r3, r8, r0, lsl #12
    4e10:	12922000 	addsne	r2, r2, #0
    4e14:	5d010000 	stcpl	0, cr0, [r1, #-0]
    4e18:	0000de03 	andeq	sp, r0, r3, lsl #28
    4e1c:	00386200 	eorseq	r6, r8, r0, lsl #4
    4e20:	174e2300 	strbne	r2, [lr, -r0, lsl #6]
    4e24:	5f010000 	svcpl	0x00010000
    4e28:	00033803 	andeq	r3, r3, r3, lsl #16
    4e2c:	60910200 	addsvs	r0, r1, r0, lsl #4
    4e30:	00073b23 	andeq	r3, r7, r3, lsr #22
    4e34:	03600100 	cmneq	r0, #0, 2
    4e38:	000000c8 	andeq	r0, r0, r8, asr #1
    4e3c:	00135001 	andseq	r5, r3, r1
    4e40:	af000000 	svcge	0x00000000
    4e44:	1e00000e 	cdpne	0, 0, cr0, cr0, cr14, {0}
    4e48:	00000000 	andeq	r0, r0, r0
    4e4c:	00000f00 	andeq	r0, r0, r0, lsl #30
    4e50:	02510115 	subseq	r0, r1, #1073741829	; 0x40000005
    4e54:	0115007d 	tsteq	r5, sp, ror r0
    4e58:	00300153 	eorseq	r0, r0, r3, asr r1
    4e5c:	15f12e00 	ldrbne	r2, [r1, #3584]!	; 0xe00
    4e60:	a3010000 	movwge	r0, #4096	; 0x1000
    4e64:	000001b6 			; <UNDEFINED> instruction: 0x000001b6
    4e68:	e35c0305 	cmp	ip, #335544320	; 0x14000000
    4e6c:	032e1fff 			; <UNDEFINED> instruction: 0x032e1fff
    4e70:	01000016 	tsteq	r0, r6, lsl r0
    4e74:	0001b6a4 	andeq	fp, r1, r4, lsr #13
    4e78:	70030500 	andvc	r0, r3, r0, lsl #10
    4e7c:	2e1fffe3 	cdpcs	15, 1, cr15, cr15, cr3, {7}
    4e80:	0000173b 	andeq	r1, r0, fp, lsr r7
    4e84:	0778a501 	ldrbeq	sl, [r8, -r1, lsl #10]!
    4e88:	03050000 	movweq	r0, #20480	; 0x5000
    4e8c:	1fffe358 	svcne	0x00ffe358
    4e90:	0015c12e 	andseq	ip, r5, lr, lsr #2
    4e94:	78a60100 	stmiavc	r6!, {r8}
    4e98:	05000007 	streq	r0, [r0, #-7]
    4e9c:	ffe38c03 			; <UNDEFINED> instruction: 0xffe38c03
    4ea0:	15032e1f 	strne	r2, [r3, #-3615]	; 0xfffff1e1
    4ea4:	a9010000 	stmdbge	r1, {}	; <UNPREDICTABLE>
    4ea8:	000001c6 	andeq	r0, r0, r6, asr #3
    4eac:	e3880305 	orr	r0, r8, #335544320	; 0x14000000
    4eb0:	d32f1fff 			; <UNDEFINED> instruction: 0xd32f1fff
    4eb4:	d3000005 	movwle	r0, #5
    4eb8:	04000005 	streq	r0, [r0], #-5
    4ebc:	09cb30cb 	stmibeq	fp, {r0, r1, r3, r6, r7, ip, sp}^
    4ec0:	09cb0000 	stmibeq	fp, {}^	; <UNPREDICTABLE>
    4ec4:	82050000 	andhi	r0, r5, #0
    4ec8:	03a73001 			; <UNDEFINED> instruction: 0x03a73001
    4ecc:	03a70000 			; <UNDEFINED> instruction: 0x03a70000
    4ed0:	08060000 	stmdaeq	r6, {}	; <UNPREDICTABLE>
    4ed4:	079e2f06 	ldreq	r2, [lr, r6, lsl #30]
    4ed8:	079e0000 	ldreq	r0, [lr, r0]
    4edc:	a2040000 	andge	r0, r4, #0
    4ee0:	0004b52f 	andeq	fp, r4, pc, lsr #10
    4ee4:	0004b500 	andeq	fp, r4, r0, lsl #10
    4ee8:	30cc0400 	sbccc	r0, ip, r0, lsl #8
    4eec:	00000b72 	andeq	r0, r0, r2, ror fp
    4ef0:	00000b72 	andeq	r0, r0, r2, ror fp
    4ef4:	30019a05 	andcc	r9, r1, r5, lsl #20
    4ef8:	00000312 	andeq	r0, r0, r2, lsl r3
    4efc:	00000312 	andeq	r0, r0, r2, lsl r3
    4f00:	2f079d08 	svccs	0x00079d08
    4f04:	0000046d 	andeq	r0, r0, sp, ror #8
    4f08:	0000046d 	andeq	r0, r0, sp, ror #8
    4f0c:	ea30a309 	b	c2db38 <__exidx_end+0xc2bd90>
    4f10:	ea00000a 	b	4f40 <__exidx_end+0x3198>
    4f14:	0500000a 	streq	r0, [r0, #-10]
    4f18:	9c30018d 	ldflss	f0, [r0], #-564	; 0xfffffdcc
    4f1c:	9c00000a 	stcls	0, cr0, [r0], {10}
    4f20:	0800000a 	stmdaeq	r0, {r1, r3}
    4f24:	6330078b 	teqvs	r0, #36438016	; 0x22c0000
    4f28:	63000003 	movwvs	r0, #3
    4f2c:	06000003 	streq	r0, [r0], -r3
    4f30:	c0300250 	eorsgt	r0, r0, r0, asr r2
    4f34:	c0000006 	andgt	r0, r0, r6
    4f38:	06000006 	streq	r0, [r0], -r6
    4f3c:	3130053c 	teqcc	r0, ip, lsr r5
    4f40:	3100000b 	tstcc	r0, fp
    4f44:	0500000b 	streq	r0, [r0, #-11]
    4f48:	4d3001be 	ldfmis	f0, [r0, #-760]!	; 0xfffffd08
    4f4c:	4d000010 	stcmi	0, cr0, [r0, #-64]	; 0xffffffc0
    4f50:	08000010 	stmdaeq	r0, {r4}
    4f54:	5d30042a 	cfldrspl	mvf0, [r0, #-168]!	; 0xffffff58
    4f58:	5d000004 	stcpl	0, cr0, [r0, #-16]
    4f5c:	08000004 	stmdaeq	r0, {r2}
    4f60:	8f3003e5 	svchi	0x003003e5
    4f64:	8f000004 	svchi	0x00000004
    4f68:	08000004 	stmdaeq	r0, {r2}
    4f6c:	ed30041b 	cfldrs	mvf0, [r0, #-108]!	; 0xffffff94
    4f70:	ed000008 	stc	0, cr0, [r0, #-32]	; 0xffffffe0
    4f74:	06000008 	streq	r0, [r0], -r8
    4f78:	c72f0691 			; <UNDEFINED> instruction: 0xc72f0691
    4f7c:	c7000004 	strgt	r0, [r0, -r4]
    4f80:	04000004 	streq	r0, [r0], #-4
    4f84:	03d230de 	bicseq	r3, r2, #222	; 0xde
    4f88:	03d20000 	bicseq	r0, r2, #0
    4f8c:	91060000 	mrsls	r0, (UNDEF: 6)
    4f90:	044e2f03 	strbeq	r2, [lr], #-3843	; 0xfffff0fd
    4f94:	044e0000 	strbeq	r0, [lr], #-0
    4f98:	a4090000 	strge	r0, [r9], #-0
    4f9c:	0003a500 	andeq	sl, r3, r0, lsl #10
    4fa0:	ae000400 	cfcpysge	mvf0, mvf0
    4fa4:	0400000b 	streq	r0, [r0], #-11
    4fa8:	00006701 	andeq	r6, r0, r1, lsl #14
    4fac:	187c0c00 	ldmdane	ip!, {sl, fp}^
    4fb0:	02de0000 	sbcseq	r0, lr, #0
    4fb4:	03d80000 	bicseq	r0, r8, #0
    4fb8:	00000000 	andeq	r0, r0, r0
    4fbc:	19b40000 	ldmibne	r4!, {}	; <UNPREDICTABLE>
    4fc0:	01020000 	mrseq	r0, (UNDEF: 2)
    4fc4:	0001d206 	andeq	sp, r1, r6, lsl #4
    4fc8:	08010200 	stmdaeq	r1, {r9}
    4fcc:	000001d0 	ldrdeq	r0, [r0], -r0	; <UNPREDICTABLE>
    4fd0:	6d050202 	sfmvs	f0, 4, [r5, #-8]
    4fd4:	02000001 	andeq	r0, r0, #1
    4fd8:	02150702 	andseq	r0, r5, #524288	; 0x80000
    4fdc:	04020000 	streq	r0, [r2], #-0
    4fe0:	00017c05 	andeq	r7, r1, r5, lsl #24
    4fe4:	00530300 	subseq	r0, r3, r0, lsl #6
    4fe8:	41020000 	mrsmi	r0, (UNDEF: 2)
    4fec:	00000053 	andeq	r0, r0, r3, asr r0
    4ff0:	e8070402 	stmda	r7, {r1, sl}
    4ff4:	02000001 	andeq	r0, r0, #1
    4ff8:	01770508 	cmneq	r7, r8, lsl #10
    4ffc:	08020000 	stmdaeq	r2, {}	; <UNPREDICTABLE>
    5000:	0001e307 	andeq	lr, r1, r7, lsl #6
    5004:	05040400 	streq	r0, [r4, #-1024]	; 0xfffffc00
    5008:	00746e69 	rsbseq	r6, r4, r9, ror #28
    500c:	ed070402 	cfstrs	mvf0, [r7, #-8]
    5010:	03000001 	movweq	r0, #1
    5014:	00000055 	andeq	r0, r0, r5, asr r0
    5018:	00483003 	subeq	r3, r8, r3
    501c:	ef030000 	svc	0x00030000
    5020:	04000003 	streq	r0, [r0], #-3
    5024:	00004179 	andeq	r4, r0, r9, ror r1
    5028:	03750300 	cmneq	r5, #0, 6
    502c:	85040000 	strhi	r0, [r4, #-0]
    5030:	00000076 	andeq	r0, r0, r6, ror r0
    5034:	000ff103 	andeq	pc, pc, r3, lsl #2
    5038:	a24d0500 	subge	r0, sp, #0, 10
    503c:	05000000 	streq	r0, [r0, #-0]
    5040:	0000a804 	andeq	sl, r0, r4, lsl #16
    5044:	00b30600 	adcseq	r0, r3, r0, lsl #12
    5048:	b3070000 	movwlt	r0, #28672	; 0x7000
    504c:	00000000 	andeq	r0, r0, r0
    5050:	01020408 	tsteq	r2, r8, lsl #8
    5054:	0001d908 	andeq	sp, r1, r8, lsl #18
    5058:	07040200 	streq	r0, [r4, -r0, lsl #4]
    505c:	00000185 	andeq	r0, r0, r5, lsl #3
    5060:	00198009 	andseq	r8, r9, r9
    5064:	016d0600 	cmneq	sp, r0, lsl #12
    5068:	000000cf 	andeq	r0, r0, pc, asr #1
    506c:	0000680a 	andeq	r6, r0, sl, lsl #16
    5070:	0000df00 	andeq	sp, r0, r0, lsl #30
    5074:	00bc0b00 	adcseq	r0, ip, r0, lsl #22
    5078:	00160000 	andseq	r0, r6, r0
    507c:	0018f80c 	andseq	pc, r8, ip, lsl #16
    5080:	02c30100 	sbceq	r0, r3, #0, 2
    5084:	18d20c01 	ldmne	r2, {r0, sl, fp}^
    5088:	bf010000 	svclt	0x00010000
    508c:	6d0d0102 	stfvss	f0, [sp, #-8]
    5090:	0100000f 	tsteq	r0, pc
    5094:	013a016d 	teqeq	sl, sp, ror #2
    5098:	17b40000 	ldrne	r0, [r4, r0]!
    509c:	00200000 	eoreq	r0, r0, r0
    50a0:	9c010000 	stcls	0, cr0, [r1], {-0}
    50a4:	0000013a 	andeq	r0, r0, sl, lsr r1
    50a8:	0013a30e 	andseq	sl, r3, lr, lsl #6
    50ac:	016d0100 	cmneq	sp, r0, lsl #2
    50b0:	0000013a 	andeq	r0, r0, sl, lsr r1
    50b4:	000038a7 	andeq	r3, r0, r7, lsr #17
    50b8:	0018b10e 	andseq	fp, r8, lr, lsl #2
    50bc:	016d0100 	cmneq	sp, r0, lsl #2
    50c0:	00000097 	muleq	r0, r7, r0
    50c4:	00003906 	andeq	r3, r0, r6, lsl #18
    50c8:	0003bb0f 	andeq	fp, r3, pc, lsl #22
    50cc:	016d0100 	cmneq	sp, r0, lsl #2
    50d0:	000000b3 	strheq	r0, [r0], -r3
    50d4:	05005201 	streq	r5, [r0, #-513]	; 0xfffffdff
    50d8:	00005304 	andeq	r5, r0, r4, lsl #6
    50dc:	18bf1000 	ldmne	pc!, {ip}	; <UNPREDICTABLE>
    50e0:	8d010000 	stchi	0, cr0, [r1, #-0]
    50e4:	0017d402 	andseq	sp, r7, r2, lsl #8
    50e8:	00004000 	andeq	r4, r0, r0
    50ec:	119c0100 	orrsne	r0, ip, r0, lsl #2
    50f0:	000000e8 	andeq	r0, r0, r8, ror #1
    50f4:	00000000 	andeq	r0, r0, r0
    50f8:	0000000c 	andeq	r0, r0, ip
    50fc:	df119c01 	svcle	0x00119c01
    5100:	00000000 	andeq	r0, r0, r0
    5104:	0c000000 	stceq	0, cr0, [r0], {-0}
    5108:	01000000 	mrseq	r0, (UNDEF: 0)
    510c:	11c6129c 			; <UNDEFINED> instruction: 0x11c6129c
    5110:	31010000 	mrscc	r0, (UNDEF: 1)
    5114:	00000003 	andeq	r0, r0, r3
    5118:	00001800 	andeq	r1, r0, r0, lsl #16
    511c:	af9c0100 	svcge	0x009c0100
    5120:	13000001 	movwne	r0, #1
    5124:	000000df 	ldrdeq	r0, [r0], -pc	; <UNPREDICTABLE>
    5128:	00000000 	andeq	r0, r0, r0
    512c:	000003a8 	andeq	r0, r0, r8, lsr #7
    5130:	14033201 	strne	r3, [r3], #-513	; 0xfffffdff
    5134:	00000000 	andeq	r0, r0, r0
    5138:	00000386 	andeq	r0, r0, r6, lsl #7
    513c:	05500115 	ldrbeq	r0, [r0, #-277]	; 0xfffffeeb
    5140:	ffe39003 			; <UNDEFINED> instruction: 0xffe39003
    5144:	5101151f 	tstpl	r1, pc, lsl r5
    5148:	00003101 	andeq	r3, r0, r1, lsl #2
    514c:	0004c716 	andeq	ip, r4, r6, lsl r7
    5150:	03570100 	cmpeq	r7, #0, 2
    5154:	00001814 	andeq	r1, r0, r4, lsl r8
    5158:	00000018 	andeq	r0, r0, r8, lsl r0
    515c:	200d9c01 	andcs	r9, sp, r1, lsl #24
    5160:	01000019 	tsteq	r0, r9, lsl r0
    5164:	00410361 	subeq	r0, r1, r1, ror #6
    5168:	00000000 	andeq	r0, r0, r0
    516c:	000c0000 	andeq	r0, ip, r0
    5170:	9c010000 	stcls	0, cr0, [r1], {-0}
    5174:	000001e8 	andeq	r0, r0, r8, ror #3
    5178:	6c617617 	stclvs	6, cr7, [r1], #-92	; 0xffffffa4
    517c:	03620100 	cmneq	r2, #0, 2
    5180:	00000041 	andeq	r0, r0, r1, asr #32
    5184:	19551600 	ldmdbne	r5, {r9, sl, ip}^
    5188:	c4010000 	strgt	r0, [r1], #-0
    518c:	00182c03 	andseq	r2, r8, r3, lsl #24
    5190:	00001200 	andeq	r1, r0, r0, lsl #4
    5194:	0d9c0100 	ldfeqs	f0, [ip]
    5198:	00000b89 	andeq	r0, r0, r9, lsl #23
    519c:	8102e501 	tsthi	r2, r1, lsl #10
    51a0:	44000000 	strmi	r0, [r0], #-0
    51a4:	40000018 	andmi	r0, r0, r8, lsl r0
    51a8:	01000000 	mrseq	r0, (UNDEF: 0)
    51ac:	00024e9c 	muleq	r2, ip, lr
    51b0:	00e81300 	rsceq	r1, r8, r0, lsl #6
    51b4:	185c0000 	ldmdane	ip, {}^	; <UNPREDICTABLE>
    51b8:	03c00000 	biceq	r0, r0, #0
    51bc:	21010000 	mrscs	r0, (UNDEF: 1)
    51c0:	185c1803 	ldmdane	ip, {r0, r1, fp, ip}^
    51c4:	01400000 	mrseq	r0, (UNDEF: 64)
    51c8:	68190000 	ldmdavs	r9, {}	; <UNPREDICTABLE>
    51cc:	91000018 	tstls	r0, r8, lsl r0
    51d0:	44000003 	strmi	r0, [r0], #-3
    51d4:	15000002 	strne	r0, [r0, #-2]
    51d8:	03055001 	movweq	r5, #20481	; 0x5001
    51dc:	1fffe390 	svcne	0x00ffe390
    51e0:	18701800 	ldmdane	r0!, {fp, ip}^
    51e4:	01e80000 	mvneq	r0, r0
    51e8:	16000000 	strne	r0, [r0], -r0
    51ec:	00001914 	andeq	r1, r0, r4, lsl r9
    51f0:	84041101 	strhi	r1, [r4], #-257	; 0xfffffeff
    51f4:	28000018 	stmdacs	r0, {r3, r4}
    51f8:	01000000 	mrseq	r0, (UNDEF: 0)
    51fc:	1969169c 	stmdbne	r9!, {r2, r3, r4, r7, r9, sl, ip}^
    5200:	a8010000 	stmdage	r1, {}	; <UNPREDICTABLE>
    5204:	0018ac04 	andseq	sl, r8, r4, lsl #24
    5208:	00004400 	andeq	r4, r0, r0, lsl #8
    520c:	1a9c0100 	bne	fe705614 <__stack+0xde6ff614>
    5210:	0000079e 	muleq	r0, lr, r7
    5214:	76056b01 	strvc	r6, [r5], -r1, lsl #22
    5218:	f0000000 			; <UNDEFINED> instruction: 0xf0000000
    521c:	0a000018 	beq	5284 <__exidx_end+0x34dc>
    5220:	01000000 	mrseq	r0, (UNDEF: 0)
    5224:	18a0129c 	stmiane	r0!, {r2, r3, r4, r7, r9, ip}
    5228:	4b010000 	blmi	45230 <__exidx_end+0x43488>
    522c:	0018fc01 	andseq	pc, r8, r1, lsl #24
    5230:	00001c00 	andeq	r1, r0, r0, lsl #24
    5234:	b19c0100 	orrslt	r0, ip, r0, lsl #2
    5238:	18000002 	stmdane	r0, {r1}
    523c:	0000190a 	andeq	r1, r0, sl, lsl #18
    5240:	00000272 	andeq	r0, r0, r2, ror r2
    5244:	00191018 	andseq	r1, r9, r8, lsl r0
    5248:	00027200 	andeq	r7, r2, r0, lsl #4
    524c:	d31b0000 	tstle	fp, #0
    5250:	01000005 	tsteq	r0, r5
    5254:	1918033d 	ldmdbne	r8, {r0, r2, r3, r4, r5, r8, r9}
    5258:	001c0000 	andseq	r0, ip, r0
    525c:	9c010000 	stcls	0, cr0, [r1], {-0}
    5260:	000002d1 	ldrdeq	r0, [r0], -r1
    5264:	00191e18 	andseq	r1, r9, r8, lsl lr
    5268:	00027200 	andeq	r7, r2, r0, lsl #4
    526c:	f01b0000 			; <UNDEFINED> instruction: 0xf01b0000
    5270:	01000009 	tsteq	r0, r9
    5274:	19340578 	ldmdbne	r4!, {r3, r4, r5, r6, r8, sl}
    5278:	00060000 	andeq	r0, r6, r0
    527c:	9c010000 	stcls	0, cr0, [r1], {-0}
    5280:	000002f6 	strdeq	r0, [r0], -r6
    5284:	0019360f 	andseq	r3, r9, pc, lsl #12
    5288:	05780100 	ldrbeq	r0, [r8, #-256]!	; 0xffffff00
    528c:	00000076 	andeq	r0, r0, r6, ror r0
    5290:	1b005001 	blne	1929c <__exidx_end+0x174f4>
    5294:	000004b5 			; <UNDEFINED> instruction: 0x000004b5
    5298:	3c034b01 	stccc	11, cr4, [r3], {1}
    529c:	18000019 	stmdane	r0, {r0, r3, r4}
    52a0:	01000000 	mrseq	r0, (UNDEF: 0)
    52a4:	0003169c 	muleq	r3, ip, r6
    52a8:	194e1800 	stmdbne	lr, {fp, ip}^
    52ac:	02d10000 	sbcseq	r0, r1, #0
    52b0:	1b000000 	blne	52b8 <__exidx_end+0x3510>
    52b4:	00001945 	andeq	r1, r0, r5, asr #18
    52b8:	54038e01 	strpl	r8, [r3], #-3585	; 0xfffff1ff
    52bc:	1a000019 	bne	5328 <__exidx_end+0x3580>
    52c0:	01000000 	mrseq	r0, (UNDEF: 0)
    52c4:	0003579c 	muleq	r3, ip, r7
    52c8:	195a1800 	ldmdbne	sl, {fp, ip}^
    52cc:	02720000 	rsbseq	r0, r2, #0
    52d0:	5e180000 	cdppl	0, 1, cr0, cr8, cr0, {0}
    52d4:	9c000019 	stcls	0, cr0, [r0], {25}
    52d8:	18000003 	stmdane	r0, {r0, r1}
    52dc:	00001966 	andeq	r1, r0, r6, ror #18
    52e0:	000001af 	andeq	r0, r0, pc, lsr #3
    52e4:	00196c14 	andseq	r6, r9, r4, lsl ip
    52e8:	0002d100 	andeq	sp, r2, r0, lsl #2
    52ec:	50011500 	andpl	r1, r1, r0, lsl #10
    52f0:	00003001 	andeq	r3, r0, r1
    52f4:	0018e61c 	andseq	lr, r8, ip, lsl r6
    52f8:	01420100 	mrseq	r0, (UNDEF: 82)
    52fc:	00000053 	andeq	r0, r0, r3, asr r0
    5300:	e0c80305 	sbc	r0, r8, r5, lsl #6
    5304:	0b1c1fff 	bleq	70d308 <__exidx_end+0x70b560>
    5308:	01000019 	tsteq	r0, r9, lsl r0
    530c:	00c30148 	sbceq	r0, r3, r8, asr #2
    5310:	03050000 	movweq	r0, #20480	; 0x5000
    5314:	1fffe390 	svcne	0x00ffe390
    5318:	0002551d 	andeq	r5, r2, sp, lsl r5
    531c:	76550900 	ldrbvc	r0, [r5], -r0, lsl #18
    5320:	1e000000 	cdpne	0, 0, cr0, cr0, cr0, {0}
    5324:	00001978 	andeq	r1, r0, r8, ror r9
    5328:	00001978 	andeq	r1, r0, r8, ror r9
    532c:	b81e0f07 	ldmdalt	lr, {r0, r1, r2, r8, r9, sl, fp}
    5330:	b8000018 	stmdalt	r0, {r3, r4}
    5334:	07000018 	smladeq	r0, r8, r0, r0
    5338:	0c751f14 	ldcleq	15, cr1, [r5], #-80	; 0xffffffb0
    533c:	0c750000 	ldcleq	0, cr0, [r5], #-0
    5340:	15080000 	strne	r0, [r8, #-0]
    5344:	00660007 	rsbeq	r0, r6, r7
    5348:	00020000 	andeq	r0, r2, r0
    534c:	00000d8d 	andeq	r0, r0, sp, lsl #27
    5350:	1cae0104 	stfnes	f0, [lr], #16
    5354:	04680000 	strbteq	r0, [r8], #-0
    5358:	2e2e0000 	cdpcs	0, 2, cr0, cr14, cr0, {0}
    535c:	2f2e2e2f 	svccs	0x002e2e2f
    5360:	69736d63 	ldmdbvs	r3!, {r0, r1, r5, r6, r8, sl, fp, sp, lr}^
    5364:	4b4d2f73 	blmi	1351138 <__exidx_end+0x134f390>
    5368:	5a36344c 	bpl	d924a0 <__exidx_end+0xd906f8>
    536c:	74732f34 	ldrbtvc	r2, [r3], #-3892	; 0xfffff0cc
    5370:	75747261 	ldrbvc	r7, [r4, #-609]!	; 0xfffffd9f
    5374:	4b4d5f70 	blmi	135d13c <__exidx_end+0x135b394>
    5378:	5a36344c 	bpl	d924b0 <__exidx_end+0xd90708>
    537c:	00732e34 	rsbseq	r2, r3, r4, lsr lr
    5380:	6d6f682f 	stclvs	8, cr6, [pc, #-188]!	; 52cc <__exidx_end+0x3524>
    5384:	616c2f65 	cmnvs	ip, r5, ror #30
    5388:	65697275 	strbvs	r7, [r9, #-629]!	; 0xfffffd8b
    538c:	4554522f 	ldrbmi	r5, [r4, #-559]	; 0xfffffdd1
    5390:	614c2f53 	cmpvs	ip, r3, asr pc
    5394:	622f3162 	eorvs	r3, pc, #-2147483624	; 0x80000018
    5398:	667a7a75 			; <UNDEFINED> instruction: 0x667a7a75
    539c:	007a7a69 	rsbseq	r7, sl, r9, ror #20
    53a0:	20554e47 	subscs	r4, r5, r7, asr #28
    53a4:	32205341 	eorcc	r5, r0, #67108865	; 0x4000001
    53a8:	2e36322e 	cdpcs	2, 3, cr3, cr6, cr14, {1}
    53ac:	80010032 	andhi	r0, r1, r2, lsr r0

Disassembly of section .debug_abbrev:

00000000 <.debug_abbrev>:
   0:	25011101 	strcs	r1, [r1, #-257]	; 0xfffffeff
   4:	030b130e 	movweq	r1, #45838	; 0xb30e
   8:	550e1b0e 	strpl	r1, [lr, #-2830]	; 0xfffff4f2
   c:	10011117 	andne	r1, r1, r7, lsl r1
  10:	02000017 	andeq	r0, r0, #23
  14:	0b0b0024 	bleq	2c00ac <__exidx_end+0x2be304>
  18:	0e030b3e 	vmoveq.16	d3[0], r0
  1c:	16030000 	strne	r0, [r3], -r0
  20:	3a0e0300 	bcc	380c28 <__exidx_end+0x37ee80>
  24:	490b3b0b 	stmdbmi	fp, {r0, r1, r3, r8, r9, fp, ip, sp}
  28:	04000013 	streq	r0, [r0], #-19	; 0xffffffed
  2c:	0b0b0024 	bleq	2c00c4 <__exidx_end+0x2be31c>
  30:	08030b3e 	stmdaeq	r3, {r1, r2, r3, r4, r5, r8, r9, fp}
  34:	35050000 	strcc	r0, [r5, #-0]
  38:	00134900 	andseq	r4, r3, r0, lsl #18
  3c:	00260600 	eoreq	r0, r6, r0, lsl #12
  40:	00001349 	andeq	r1, r0, r9, asr #6
  44:	49010107 	stmdbmi	r1, {r0, r1, r2, r8}
  48:	00130113 	andseq	r0, r3, r3, lsl r1
  4c:	00210800 	eoreq	r0, r1, r0, lsl #16
  50:	0b2f1349 	bleq	bc4d7c <__exidx_end+0xbc2fd4>
  54:	13090000 	movwne	r0, #36864	; 0x9000
  58:	3a0b0b01 	bcc	2c2c64 <__exidx_end+0x2c0ebc>
  5c:	01053b0b 	tsteq	r5, fp, lsl #22
  60:	0a000013 	beq	b4 <Heap_Size+0x34>
  64:	0803000d 	stmdaeq	r3, {r0, r2, r3}
  68:	053b0b3a 	ldreq	r0, [fp, #-2874]!	; 0xfffff4c6
  6c:	0b381349 	bleq	e04d98 <__exidx_end+0xe02ff0>
  70:	0d0b0000 	stceq	0, cr0, [fp, #-0]
  74:	3a0e0300 	bcc	380c7c <__exidx_end+0x37eed4>
  78:	49053b0b 	stmdbmi	r5, {r0, r1, r3, r8, r9, fp, ip, sp}
  7c:	000b3813 	andeq	r3, fp, r3, lsl r8
  80:	00160c00 	andseq	r0, r6, r0, lsl #24
  84:	0b3a0e03 	bleq	e83898 <__exidx_end+0xe81af0>
  88:	1349053b 	movtne	r0, #38203	; 0x953b
  8c:	130d0000 	movwne	r0, #53248	; 0xd000
  90:	3a050b01 	bcc	142c9c <__exidx_end+0x140ef4>
  94:	01053b0b 	tsteq	r5, fp, lsl #22
  98:	0e000013 	mcreq	0, 0, r0, cr0, cr3, {0}
  9c:	0e03000d 	cdpeq	0, 0, cr0, cr3, cr13, {0}
  a0:	053b0b3a 	ldreq	r0, [fp, #-2874]!	; 0xfffff4c6
  a4:	05381349 	ldreq	r1, [r8, #-841]!	; 0xfffffcb7
  a8:	210f0000 	mrscs	r0, CPSR
  ac:	2f134900 	svccs	0x00134900
  b0:	10000005 	andne	r0, r0, r5
  b4:	193f002e 	ldmdbne	pc!, {r1, r2, r3, r5}	; <UNPREDICTABLE>
  b8:	0b3a0e03 	bleq	e838cc <__exidx_end+0xe81b24>
  bc:	19270b3b 	stmdbne	r7!, {r0, r1, r3, r4, r5, r8, r9, fp}
  c0:	06120111 			; <UNDEFINED> instruction: 0x06120111
  c4:	42971840 	addsmi	r1, r7, #64, 16	; 0x400000
  c8:	11000019 	tstne	r0, r9, lsl r0
  cc:	193f012e 	ldmdbne	pc!, {r1, r2, r3, r5, r8}	; <UNPREDICTABLE>
  d0:	0b3a0e03 	bleq	e838e4 <__exidx_end+0xe81b3c>
  d4:	19270b3b 	stmdbne	r7!, {r0, r1, r3, r4, r5, r8, r9, fp}
  d8:	06120111 			; <UNDEFINED> instruction: 0x06120111
  dc:	42961840 	addsmi	r1, r6, #64, 16	; 0x400000
  e0:	00130119 	andseq	r0, r3, r9, lsl r1
  e4:	00341200 	eorseq	r1, r4, r0, lsl #4
  e8:	0b3a0e03 	bleq	e838fc <__exidx_end+0xe81b54>
  ec:	13490b3b 	movtne	r0, #39739	; 0x9b3b
  f0:	00001702 	andeq	r1, r0, r2, lsl #14
  f4:	03003413 	movweq	r3, #1043	; 0x413
  f8:	3b0b3a0e 	blcc	2ce938 <__exidx_end+0x2ccb90>
  fc:	3f13490b 	svccc	0x0013490b
 100:	00180219 	andseq	r0, r8, r9, lsl r2
 104:	11010000 	mrsne	r0, (UNDEF: 1)
 108:	130e2501 	movwne	r2, #58625	; 0xe501
 10c:	1b0e030b 	blne	380d40 <__exidx_end+0x37ef98>
 110:	1117550e 	tstne	r7, lr, lsl #10
 114:	00171001 	andseq	r1, r7, r1
 118:	00240200 	eoreq	r0, r4, r0, lsl #4
 11c:	0b3e0b0b 	bleq	f82d50 <__exidx_end+0xf80fa8>
 120:	00000e03 	andeq	r0, r0, r3, lsl #28
 124:	03001603 	movweq	r1, #1539	; 0x603
 128:	3b0b3a0e 	blcc	2ce968 <__exidx_end+0x2ccbc0>
 12c:	0013490b 	andseq	r4, r3, fp, lsl #18
 130:	00240400 	eoreq	r0, r4, r0, lsl #8
 134:	0b3e0b0b 	bleq	f82d68 <__exidx_end+0xf80fc0>
 138:	00000803 	andeq	r0, r0, r3, lsl #16
 13c:	49003505 	stmdbmi	r0, {r0, r2, r8, sl, ip, sp}
 140:	06000013 			; <UNDEFINED> instruction: 0x06000013
 144:	13490026 	movtne	r0, #36902	; 0x9026
 148:	01070000 	mrseq	r0, (UNDEF: 7)
 14c:	01134901 	tsteq	r3, r1, lsl #18
 150:	08000013 	stmdaeq	r0, {r0, r1, r4}
 154:	13490021 	movtne	r0, #36897	; 0x9021
 158:	00000b2f 	andeq	r0, r0, pc, lsr #22
 15c:	0b011309 	bleq	44d88 <__exidx_end+0x42fe0>
 160:	3b0b3a0b 	blcc	2ce994 <__exidx_end+0x2ccbec>
 164:	00130105 	andseq	r0, r3, r5, lsl #2
 168:	000d0a00 	andeq	r0, sp, r0, lsl #20
 16c:	0b3a0e03 	bleq	e83980 <__exidx_end+0xe81bd8>
 170:	1349053b 	movtne	r0, #38203	; 0x953b
 174:	00000b38 	andeq	r0, r0, r8, lsr fp
 178:	0300160b 	movweq	r1, #1547	; 0x60b
 17c:	3b0b3a0e 	blcc	2ce9bc <__exidx_end+0x2ccc14>
 180:	00134905 	andseq	r4, r3, r5, lsl #18
 184:	000d0c00 	andeq	r0, sp, r0, lsl #24
 188:	0b3a0803 	bleq	e8219c <__exidx_end+0xe803f4>
 18c:	1349053b 	movtne	r0, #38203	; 0x953b
 190:	00000b38 	andeq	r0, r0, r8, lsr fp
 194:	0b01130d 	bleq	44dd0 <__exidx_end+0x43028>
 198:	3b0b3a05 	blcc	2ce9b4 <__exidx_end+0x2ccc0c>
 19c:	00130105 	andseq	r0, r3, r5, lsl #2
 1a0:	000d0e00 	andeq	r0, sp, r0, lsl #28
 1a4:	0b3a0e03 	bleq	e839b8 <__exidx_end+0xe81c10>
 1a8:	1349053b 	movtne	r0, #38203	; 0x953b
 1ac:	00000538 	andeq	r0, r0, r8, lsr r5
 1b0:	4900210f 	stmdbmi	r0, {r0, r1, r2, r3, r8, sp}
 1b4:	00052f13 	andeq	r2, r5, r3, lsl pc
 1b8:	000f1000 	andeq	r1, pc, r0
 1bc:	00000b0b 	andeq	r0, r0, fp, lsl #22
 1c0:	03012e11 	movweq	r2, #7697	; 0x1e11
 1c4:	3b0b3a0e 	blcc	2cea04 <__exidx_end+0x2ccc5c>
 1c8:	8719270b 	ldrhi	r2, [r9, -fp, lsl #14]
 1cc:	01111901 	tsteq	r1, r1, lsl #18
 1d0:	18400612 	stmdane	r0, {r1, r4, r9, sl}^
 1d4:	01194296 			; <UNDEFINED> instruction: 0x01194296
 1d8:	12000013 	andne	r0, r0, #19
 1dc:	0e030005 	cdpeq	0, 0, cr0, cr3, cr5, {0}
 1e0:	0b3b0b3a 	bleq	ec2ed0 <__exidx_end+0xec1128>
 1e4:	17021349 	strne	r1, [r2, -r9, asr #6]
 1e8:	34130000 	ldrcc	r0, [r3], #-0
 1ec:	3a0e0300 	bcc	380df4 <__exidx_end+0x37f04c>
 1f0:	490b3b0b 	stmdbmi	fp, {r0, r1, r3, r8, r9, fp, ip, sp}
 1f4:	00180213 	andseq	r0, r8, r3, lsl r2
 1f8:	82891400 	addhi	r1, r9, #0, 8
 1fc:	01110101 	tsteq	r1, r1, lsl #2
 200:	00001331 	andeq	r1, r0, r1, lsr r3
 204:	01828a15 	orreq	r8, r2, r5, lsl sl
 208:	91180200 	tstls	r8, r0, lsl #4
 20c:	00001842 	andeq	r1, r0, r2, asr #16
 210:	03012e16 	movweq	r2, #7702	; 0x1e16
 214:	3b0b3a0e 	blcc	2cea54 <__exidx_end+0x2cccac>
 218:	8719270b 	ldrhi	r2, [r9, -fp, lsl #14]
 21c:	01111901 	tsteq	r1, r1, lsl #18
 220:	18400612 	stmdane	r0, {r1, r4, r9, sl}^
 224:	01194297 			; <UNDEFINED> instruction: 0x01194297
 228:	17000013 	smladne	r0, r3, r0, r0
 22c:	0e030034 	mcreq	0, 0, r0, cr3, cr4, {1}
 230:	0b3b0b3a 	bleq	ec2f20 <__exidx_end+0xec1178>
 234:	00001349 	andeq	r1, r0, r9, asr #6
 238:	03003418 	movweq	r3, #1048	; 0x418
 23c:	3b0b3a08 	blcc	2cea64 <__exidx_end+0x2cccbc>
 240:	0213490b 	andseq	r4, r3, #180224	; 0x2c000
 244:	19000018 	stmdbne	r0, {r3, r4}
 248:	01018289 	smlabbeq	r1, r9, r2, r8
 24c:	13310111 	teqne	r1, #1073741828	; 0x40000004
 250:	00001301 	andeq	r1, r0, r1, lsl #6
 254:	3f002e1a 	svccc	0x00002e1a
 258:	3a0e0319 	bcc	380ec4 <__exidx_end+0x37f11c>
 25c:	270b3b0b 	strcs	r3, [fp, -fp, lsl #22]
 260:	12011119 	andne	r1, r1, #1073741830	; 0x40000006
 264:	97184006 	ldrls	r4, [r8, -r6]
 268:	00001942 	andeq	r1, r0, r2, asr #18
 26c:	3f012e1b 	svccc	0x00012e1b
 270:	3a0e0319 	bcc	380edc <__exidx_end+0x37f134>
 274:	270b3b0b 	strcs	r3, [fp, -fp, lsl #22]
 278:	87134919 			; <UNDEFINED> instruction: 0x87134919
 27c:	01111901 	tsteq	r1, r1, lsl #18
 280:	18400612 	stmdane	r0, {r1, r4, r9, sl}^
 284:	01194297 			; <UNDEFINED> instruction: 0x01194297
 288:	1c000013 	stcne	0, cr0, [r0], {19}
 28c:	00018289 	andeq	r8, r1, r9, lsl #5
 290:	13310111 	teqne	r1, #1073741828	; 0x40000004
 294:	2e1d0000 	cdpcs	0, 1, cr0, cr13, cr0, {0}
 298:	3c193f00 	ldccc	15, cr3, [r9], {-0}
 29c:	030e6e19 	movweq	r6, #60953	; 0xee19
 2a0:	3b0b3a0e 	blcc	2ceae0 <__exidx_end+0x2ccd38>
 2a4:	00000005 	andeq	r0, r0, r5
 2a8:	25011101 	strcs	r1, [r1, #-257]	; 0xfffffeff
 2ac:	030b130e 	movweq	r1, #45838	; 0xb30e
 2b0:	550e1b0e 	strpl	r1, [lr, #-2830]	; 0xfffff4f2
 2b4:	10011117 	andne	r1, r1, r7, lsl r1
 2b8:	02000017 	andeq	r0, r0, #23
 2bc:	0e030016 	mcreq	0, 0, r0, cr3, cr6, {0}
 2c0:	0b3b0b3a 	bleq	ec2fb0 <__exidx_end+0xec1208>
 2c4:	00001349 	andeq	r1, r0, r9, asr #6
 2c8:	0b002403 	bleq	92dc <__exidx_end+0x7534>
 2cc:	030b3e0b 	movweq	r3, #48651	; 0xbe0b
 2d0:	0400000e 	streq	r0, [r0], #-14
 2d4:	0b0b0024 	bleq	2c036c <__exidx_end+0x2be5c4>
 2d8:	08030b3e 	stmdaeq	r3, {r1, r2, r3, r4, r5, r8, r9, fp}
 2dc:	0f050000 	svceq	0x00050000
 2e0:	000b0b00 	andeq	r0, fp, r0, lsl #22
 2e4:	012e0600 			; <UNDEFINED> instruction: 0x012e0600
 2e8:	0e03193f 	mcreq	9, 0, r1, cr3, cr15, {1}
 2ec:	0b3b0b3a 	bleq	ec2fdc <__exidx_end+0xec1234>
 2f0:	13491927 	movtne	r1, #39207	; 0x9927
 2f4:	06120111 			; <UNDEFINED> instruction: 0x06120111
 2f8:	42971840 	addsmi	r1, r7, #64, 16	; 0x400000
 2fc:	00130119 	andseq	r0, r3, r9, lsl r1
 300:	00050700 	andeq	r0, r5, r0, lsl #14
 304:	0b3a0e03 	bleq	e83b18 <__exidx_end+0xe81d70>
 308:	13490b3b 	movtne	r0, #39739	; 0x9b3b
 30c:	00001702 	andeq	r1, r0, r2, lsl #14
 310:	03003408 	movweq	r3, #1032	; 0x408
 314:	3b0b3a0e 	blcc	2ceb54 <__exidx_end+0x2ccdac>
 318:	0213490b 	andseq	r4, r3, #180224	; 0x2c000
 31c:	09000017 	stmdbeq	r0, {r0, r1, r2, r4}
 320:	00018289 	andeq	r8, r1, r9, lsl #5
 324:	13310111 	teqne	r1, #1073741828	; 0x40000004
 328:	890a0000 	stmdbhi	sl, {}	; <UNPREDICTABLE>
 32c:	11010182 	smlabbne	r1, r2, r1, r0
 330:	01133101 	tsteq	r3, r1, lsl #2
 334:	0b000013 	bleq	388 <.flash_to_ram_loop_end+0x2b2>
 338:	0001828a 	andeq	r8, r1, sl, lsl #5
 33c:	42911802 	addsmi	r1, r1, #131072	; 0x20000
 340:	0c000018 	stceq	0, cr0, [r0], {24}
 344:	193f012e 	ldmdbne	pc!, {r1, r2, r3, r5, r8}	; <UNPREDICTABLE>
 348:	0b3a0e03 	bleq	e83b5c <__exidx_end+0xe81db4>
 34c:	19270b3b 	stmdbne	r7!, {r0, r1, r3, r4, r5, r8, r9, fp}
 350:	06120111 			; <UNDEFINED> instruction: 0x06120111
 354:	42971840 	addsmi	r1, r7, #64, 16	; 0x400000
 358:	00130119 	andseq	r0, r3, r9, lsl r1
 35c:	00050d00 	andeq	r0, r5, r0, lsl #26
 360:	0b3a0803 	bleq	e82374 <__exidx_end+0xe805cc>
 364:	13490b3b 	movtne	r0, #39739	; 0x9b3b
 368:	00001702 	andeq	r1, r0, r2, lsl #14
 36c:	3f002e0e 	svccc	0x00002e0e
 370:	6e193c19 	mrcvs	12, 0, r3, cr9, cr9, {0}
 374:	3a0e030e 	bcc	380fb4 <__exidx_end+0x37f20c>
 378:	00053b0b 	andeq	r3, r5, fp, lsl #22
 37c:	002e0f00 	eoreq	r0, lr, r0, lsl #30
 380:	193c193f 	ldmdbne	ip!, {r0, r1, r2, r3, r4, r5, r8, fp, ip}
 384:	0e030e6e 	cdpeq	14, 0, cr0, cr3, cr14, {3}
 388:	0b3b0b3a 	bleq	ec3078 <__exidx_end+0xec12d0>
 38c:	01000000 	mrseq	r0, (UNDEF: 0)
 390:	0e250111 	mcreq	1, 1, r0, cr5, cr1, {0}
 394:	0e030b13 	vmoveq.32	d3[0], r0
 398:	17550e1b 	smmlane	r5, fp, lr, r0
 39c:	17100111 			; <UNDEFINED> instruction: 0x17100111
 3a0:	16020000 	strne	r0, [r2], -r0
 3a4:	3a0e0300 	bcc	380fac <__exidx_end+0x37f204>
 3a8:	490b3b0b 	stmdbmi	fp, {r0, r1, r3, r8, r9, fp, ip, sp}
 3ac:	03000013 	movweq	r0, #19
 3b0:	0b0b0024 	bleq	2c0448 <__exidx_end+0x2be6a0>
 3b4:	0e030b3e 	vmoveq.16	d3[0], r0
 3b8:	24040000 	strcs	r0, [r4], #-0
 3bc:	3e0b0b00 	vmlacc.f64	d0, d11, d0
 3c0:	0008030b 	andeq	r0, r8, fp, lsl #6
 3c4:	000f0500 	andeq	r0, pc, r0, lsl #10
 3c8:	00000b0b 	andeq	r0, r0, fp, lsl #22
 3cc:	0b000f06 	bleq	3fec <__exidx_end+0x2244>
 3d0:	0013490b 	andseq	r4, r3, fp, lsl #18
 3d4:	00260700 	eoreq	r0, r6, r0, lsl #14
 3d8:	13080000 	movwne	r0, #32768	; 0x8000
 3dc:	0b0e0301 	bleq	380fe8 <__exidx_end+0x37f240>
 3e0:	3b0b3a0b 	blcc	2cec14 <__exidx_end+0x2cce6c>
 3e4:	0013010b 	andseq	r0, r3, fp, lsl #2
 3e8:	000d0900 	andeq	r0, sp, r0, lsl #18
 3ec:	0b3a0e03 	bleq	e83c00 <__exidx_end+0xe81e58>
 3f0:	13490b3b 	movtne	r0, #39739	; 0x9b3b
 3f4:	00000b38 	andeq	r0, r0, r8, lsr fp
 3f8:	0b01170a 	bleq	46028 <__exidx_end+0x44280>
 3fc:	3b0b3a0b 	blcc	2cec30 <__exidx_end+0x2cce88>
 400:	0013010b 	andseq	r0, r3, fp, lsl #2
 404:	000d0b00 	andeq	r0, sp, r0, lsl #22
 408:	0b3a0e03 	bleq	e83c1c <__exidx_end+0xe81e74>
 40c:	13490b3b 	movtne	r0, #39739	; 0x9b3b
 410:	0d0c0000 	stceq	0, cr0, [ip, #-0]
 414:	3a080300 	bcc	20101c <__exidx_end+0x1ff274>
 418:	490b3b0b 	stmdbmi	fp, {r0, r1, r3, r8, r9, fp, ip, sp}
 41c:	000b3813 	andeq	r3, fp, r3, lsl r8
 420:	00350d00 	eorseq	r0, r5, r0, lsl #26
 424:	00001349 	andeq	r1, r0, r9, asr #6
 428:	03012e0e 	movweq	r2, #7694	; 0x1e0e
 42c:	3b0b3a0e 	blcc	2cec6c <__exidx_end+0x2ccec4>
 430:	49192705 	ldmdbmi	r9, {r0, r2, r8, r9, sl, sp}
 434:	12011113 	andne	r1, r1, #-1073741820	; 0xc0000004
 438:	97184006 	ldrls	r4, [r8, -r6]
 43c:	13011942 	movwne	r1, #6466	; 0x1942
 440:	050f0000 	streq	r0, [pc, #-0]	; 448 <frame_dummy+0x10>
 444:	3a0e0300 	bcc	38104c <__exidx_end+0x37f2a4>
 448:	49053b0b 	stmdbmi	r5, {r0, r1, r3, r8, r9, fp, ip, sp}
 44c:	00170213 	andseq	r0, r7, r3, lsl r2
 450:	00341000 	eorseq	r1, r4, r0
 454:	0b3a0e03 	bleq	e83c68 <__exidx_end+0xe81ec0>
 458:	1349053b 	movtne	r0, #38203	; 0x953b
 45c:	00001702 	andeq	r1, r0, r2, lsl #14
 460:	01828911 	orreq	r8, r2, r1, lsl r9
 464:	31011100 	mrscc	r1, (UNDEF: 17)
 468:	12000013 	andne	r0, r0, #19
 46c:	13490026 	movtne	r0, #36902	; 0x9026
 470:	2e130000 	cdpcs	0, 1, cr0, cr3, cr0, {0}
 474:	3a0e0301 	bcc	381080 <__exidx_end+0x37f2d8>
 478:	27053b0b 	strcs	r3, [r5, -fp, lsl #22]
 47c:	12011119 	andne	r1, r1, #1073741830	; 0x40000006
 480:	97184006 	ldrls	r4, [r8, -r6]
 484:	13011942 	movwne	r1, #6466	; 0x1942
 488:	89140000 	ldmdbhi	r4, {}	; <UNPREDICTABLE>
 48c:	11010182 	smlabbne	r1, r2, r1, r0
 490:	01133101 	tsteq	r3, r1, lsl #2
 494:	15000013 	strne	r0, [r0, #-19]	; 0xffffffed
 498:	0001828a 	andeq	r8, r1, sl, lsl #5
 49c:	42911802 	addsmi	r1, r1, #131072	; 0x20000
 4a0:	16000018 			; <UNDEFINED> instruction: 0x16000018
 4a4:	193f012e 	ldmdbne	pc!, {r1, r2, r3, r5, r8}	; <UNPREDICTABLE>
 4a8:	0b3a0e03 	bleq	e83cbc <__exidx_end+0xe81f14>
 4ac:	1927053b 	stmdbne	r7!, {r0, r1, r3, r4, r5, r8, sl}
 4b0:	01111349 	tsteq	r1, r9, asr #6
 4b4:	18400612 	stmdane	r0, {r1, r4, r9, sl}^
 4b8:	01194297 			; <UNDEFINED> instruction: 0x01194297
 4bc:	17000013 	smladne	r0, r3, r0, r0
 4c0:	01018289 	smlabbeq	r1, r9, r2, r8
 4c4:	13310111 	teqne	r1, #1073741828	; 0x40000004
 4c8:	2e180000 	cdpcs	0, 1, cr0, cr8, cr0, {0}
 4cc:	3a0e0301 	bcc	3810d8 <__exidx_end+0x37f330>
 4d0:	27053b0b 	strcs	r3, [r5, -fp, lsl #22]
 4d4:	20134919 	andscs	r4, r3, r9, lsl r9
 4d8:	0013010b 	andseq	r0, r3, fp, lsl #2
 4dc:	00051900 	andeq	r1, r5, r0, lsl #18
 4e0:	0b3a0e03 	bleq	e83cf4 <__exidx_end+0xe81f4c>
 4e4:	1349053b 	movtne	r0, #38203	; 0x953b
 4e8:	341a0000 	ldrcc	r0, [sl], #-0
 4ec:	3a0e0300 	bcc	3810f4 <__exidx_end+0x37f34c>
 4f0:	49053b0b 	stmdbmi	r5, {r0, r1, r3, r8, r9, fp, ip, sp}
 4f4:	1b000013 	blne	548 <SystemInit+0x60>
 4f8:	0e030034 	mcreq	0, 0, r0, cr3, cr4, {1}
 4fc:	053b0b3a 	ldreq	r0, [fp, #-2874]!	; 0xfffff4c6
 500:	18021349 	stmdane	r2, {r0, r3, r6, r8, r9, ip}
 504:	1d1c0000 	ldcne	0, cr0, [ip, #-0]
 508:	11133101 	tstne	r3, r1, lsl #2
 50c:	58061201 	stmdapl	r6, {r0, r9, ip}
 510:	0105590b 	tsteq	r5, fp, lsl #18
 514:	1d000013 	stcne	0, cr0, [r0, #-76]	; 0xffffffb4
 518:	13310005 	teqne	r1, #5
 51c:	00001702 	andeq	r1, r0, r2, lsl #14
 520:	11010b1e 	tstne	r1, lr, lsl fp
 524:	00061201 	andeq	r1, r6, r1, lsl #4
 528:	00341f00 	eorseq	r1, r4, r0, lsl #30
 52c:	17021331 	smladxne	r2, r1, r3, r1
 530:	2e200000 	cdpcs	0, 2, cr0, cr0, cr0, {0}
 534:	03193f01 	tsteq	r9, #1, 30
 538:	3b0b3a0e 	blcc	2ced78 <__exidx_end+0x2ccfd0>
 53c:	11192705 	tstne	r9, r5, lsl #14
 540:	40061201 	andmi	r1, r6, r1, lsl #4
 544:	19429718 	stmdbne	r2, {r3, r4, r8, r9, sl, ip, pc}^
 548:	00001301 	andeq	r1, r0, r1, lsl #6
 54c:	3f002e21 	svccc	0x00002e21
 550:	6e193c19 	mrcvs	12, 0, r3, cr9, cr9, {0}
 554:	3a0e030e 	bcc	381194 <__exidx_end+0x37f3ec>
 558:	00053b0b 	andeq	r3, r5, fp, lsl #22
 55c:	002e2200 	eoreq	r2, lr, r0, lsl #4
 560:	193c193f 	ldmdbne	ip!, {r0, r1, r2, r3, r4, r5, r8, fp, ip}
 564:	0e030e6e 	cdpeq	14, 0, cr0, cr3, cr14, {3}
 568:	0b3b0b3a 	bleq	ec3258 <__exidx_end+0xec14b0>
 56c:	01000000 	mrseq	r0, (UNDEF: 0)
 570:	0e250111 	mcreq	1, 1, r0, cr5, cr1, {0}
 574:	0e030b13 	vmoveq.32	d3[0], r0
 578:	17550e1b 	smmlane	r5, fp, lr, r0
 57c:	17100111 			; <UNDEFINED> instruction: 0x17100111
 580:	24020000 	strcs	r0, [r2], #-0
 584:	3e0b0b00 	vmlacc.f64	d0, d11, d0
 588:	000e030b 	andeq	r0, lr, fp, lsl #6
 58c:	00240300 	eoreq	r0, r4, r0, lsl #6
 590:	0b3e0b0b 	bleq	f831c4 <__exidx_end+0xf8141c>
 594:	00000803 	andeq	r0, r0, r3, lsl #16
 598:	03001604 	movweq	r1, #1540	; 0x604
 59c:	3b0b3a0e 	blcc	2ceddc <__exidx_end+0x2cd034>
 5a0:	0013490b 	andseq	r4, r3, fp, lsl #18
 5a4:	000f0500 	andeq	r0, pc, r0, lsl #10
 5a8:	00000b0b 	andeq	r0, r0, fp, lsl #22
 5ac:	03011306 	movweq	r1, #4870	; 0x1306
 5b0:	3a0b0b0e 	bcc	2c31f0 <__exidx_end+0x2c1448>
 5b4:	010b3b0b 	tsteq	fp, fp, lsl #22
 5b8:	07000013 	smladeq	r0, r3, r0, r0
 5bc:	0e03000d 	cdpeq	0, 0, cr0, cr3, cr13, {0}
 5c0:	0b3b0b3a 	bleq	ec32b0 <__exidx_end+0xec1508>
 5c4:	0b381349 	bleq	e052f0 <__exidx_end+0xe03548>
 5c8:	0f080000 	svceq	0x00080000
 5cc:	490b0b00 	stmdbmi	fp, {r8, r9, fp}
 5d0:	09000013 	stmdbeq	r0, {r0, r1, r4}
 5d4:	193f012e 	ldmdbne	pc!, {r1, r2, r3, r5, r8}	; <UNPREDICTABLE>
 5d8:	0b3a0e03 	bleq	e83dec <__exidx_end+0xe82044>
 5dc:	19270b3b 	stmdbne	r7!, {r0, r1, r3, r4, r5, r8, r9, fp}
 5e0:	06120111 			; <UNDEFINED> instruction: 0x06120111
 5e4:	42971840 	addsmi	r1, r7, #64, 16	; 0x400000
 5e8:	00130119 	andseq	r0, r3, r9, lsl r1
 5ec:	00050a00 	andeq	r0, r5, r0, lsl #20
 5f0:	0b3a0e03 	bleq	e83e04 <__exidx_end+0xe8205c>
 5f4:	13490b3b 	movtne	r0, #39739	; 0x9b3b
 5f8:	00001802 	andeq	r1, r0, r2, lsl #16
 5fc:	4900260b 	stmdbmi	r0, {r0, r1, r3, r9, sl, sp}
 600:	0c000013 	stceq	0, cr0, [r0], {19}
 604:	0e030034 	mcreq	0, 0, r0, cr3, cr4, {1}
 608:	0b3b0b3a 	bleq	ec32f8 <__exidx_end+0xec1550>
 60c:	17021349 	strne	r1, [r2, -r9, asr #6]
 610:	2e0d0000 	cdpcs	0, 0, cr0, cr13, cr0, {0}
 614:	03193f01 	tsteq	r9, #1, 30
 618:	3b0b3a0e 	blcc	2cee58 <__exidx_end+0x2cd0b0>
 61c:	4919270b 	ldmdbmi	r9, {r0, r1, r3, r8, r9, sl, sp}
 620:	12011113 	andne	r1, r1, #-1073741820	; 0xc0000004
 624:	97184006 	ldrls	r4, [r8, -r6]
 628:	00001942 	andeq	r1, r0, r2, asr #18
 62c:	0300050e 	movweq	r0, #1294	; 0x50e
 630:	3b0b3a0e 	blcc	2cee70 <__exidx_end+0x2cd0c8>
 634:	0213490b 	andseq	r4, r3, #180224	; 0x2c000
 638:	0f000017 	svceq	0x00000017
 63c:	0e030034 	mcreq	0, 0, r0, cr3, cr4, {1}
 640:	0b3b0b3a 	bleq	ec3330 <__exidx_end+0xec1588>
 644:	18021349 	stmdane	r2, {r0, r3, r6, r8, r9, ip}
 648:	01000000 	mrseq	r0, (UNDEF: 0)
 64c:	0e250111 	mcreq	1, 1, r0, cr5, cr1, {0}
 650:	0e030b13 	vmoveq.32	d3[0], r0
 654:	17550e1b 	smmlane	r5, fp, lr, r0
 658:	17100111 			; <UNDEFINED> instruction: 0x17100111
 65c:	16020000 	strne	r0, [r2], -r0
 660:	3a0e0300 	bcc	381268 <__exidx_end+0x37f4c0>
 664:	490b3b0b 	stmdbmi	fp, {r0, r1, r3, r8, r9, fp, ip, sp}
 668:	03000013 	movweq	r0, #19
 66c:	0b0b0024 	bleq	2c0704 <__exidx_end+0x2be95c>
 670:	0e030b3e 	vmoveq.16	d3[0], r0
 674:	24040000 	strcs	r0, [r4], #-0
 678:	3e0b0b00 	vmlacc.f64	d0, d11, d0
 67c:	0008030b 	andeq	r0, r8, fp, lsl #6
 680:	000f0500 	andeq	r0, pc, r0, lsl #10
 684:	00000b0b 	andeq	r0, r0, fp, lsl #22
 688:	0b000f06 	bleq	42a8 <__exidx_end+0x2500>
 68c:	0013490b 	andseq	r4, r3, fp, lsl #18
 690:	00260700 	eoreq	r0, r6, r0, lsl #14
 694:	00001349 	andeq	r1, r0, r9, asr #6
 698:	27011508 	strcs	r1, [r1, -r8, lsl #10]
 69c:	00130119 	andseq	r0, r3, r9, lsl r1
 6a0:	00050900 	andeq	r0, r5, r0, lsl #18
 6a4:	00001349 	andeq	r1, r0, r9, asr #6
 6a8:	0301130a 	movweq	r1, #4874	; 0x130a
 6ac:	3a0b0b0e 	bcc	2c32ec <__exidx_end+0x2c1544>
 6b0:	010b3b0b 	tsteq	fp, fp, lsl #22
 6b4:	0b000013 	bleq	708 <vPortFree+0x10>
 6b8:	0e03000d 	cdpeq	0, 0, cr0, cr3, cr13, {0}
 6bc:	0b3b0b3a 	bleq	ec33ac <__exidx_end+0xec1604>
 6c0:	0b381349 	bleq	e053ec <__exidx_end+0xe03644>
 6c4:	040c0000 	streq	r0, [ip], #-0
 6c8:	490b0b01 	stmdbmi	fp, {r0, r8, r9, fp}
 6cc:	3b0b3a13 	blcc	2cef20 <__exidx_end+0x2cd178>
 6d0:	0013010b 	andseq	r0, r3, fp, lsl #2
 6d4:	00280d00 	eoreq	r0, r8, r0, lsl #26
 6d8:	0b1c0e03 	bleq	703eec <__exidx_end+0x702144>
 6dc:	350e0000 	strcc	r0, [lr, #-0]
 6e0:	00134900 	andseq	r4, r3, r0, lsl #18
 6e4:	01010f00 	tsteq	r1, r0, lsl #30
 6e8:	13011349 	movwne	r1, #4937	; 0x1349
 6ec:	21100000 	tstcs	r0, r0
 6f0:	2f134900 	svccs	0x00134900
 6f4:	1100000b 	tstne	r0, fp
 6f8:	0e03012e 	adfeqsp	f0, f3, #0.5
 6fc:	053b0b3a 	ldreq	r0, [fp, #-2874]!	; 0xfffff4c6
 700:	0b201927 	bleq	806ba4 <__exidx_end+0x804dfc>
 704:	00001301 	andeq	r1, r0, r1, lsl #6
 708:	03003412 	movweq	r3, #1042	; 0x412
 70c:	3b0b3a0e 	blcc	2cef4c <__exidx_end+0x2cd1a4>
 710:	00134905 	andseq	r4, r3, r5, lsl #18
 714:	012e1300 			; <UNDEFINED> instruction: 0x012e1300
 718:	0b3a0e03 	bleq	e83f2c <__exidx_end+0xe82184>
 71c:	1927053b 	stmdbne	r7!, {r0, r1, r3, r4, r5, r8, sl}
 720:	0b201349 	bleq	80544c <__exidx_end+0x8036a4>
 724:	00001301 	andeq	r1, r0, r1, lsl #6
 728:	03000514 	movweq	r0, #1300	; 0x514
 72c:	3b0b3a0e 	blcc	2cef6c <__exidx_end+0x2cd1c4>
 730:	00134905 	andseq	r4, r3, r5, lsl #18
 734:	00341500 	eorseq	r1, r4, r0, lsl #10
 738:	0b3a0803 	bleq	e8274c <__exidx_end+0xe809a4>
 73c:	1349053b 	movtne	r0, #38203	; 0x953b
 740:	2e160000 	cdpcs	0, 1, cr0, cr6, cr0, {0}
 744:	03193f01 	tsteq	r9, #1, 30
 748:	3b0b3a0e 	blcc	2cef88 <__exidx_end+0x2cd1e0>
 74c:	20192705 	andscs	r2, r9, r5, lsl #14
 750:	0013010b 	andseq	r0, r3, fp, lsl #2
 754:	010b1700 	tsteq	fp, r0, lsl #14
 758:	2e180000 	cdpcs	0, 1, cr0, cr8, cr0, {0}
 75c:	11133101 	tstne	r3, r1, lsl #2
 760:	40061201 	andmi	r1, r6, r1, lsl #4
 764:	19429718 	stmdbne	r2, {r3, r4, r8, r9, sl, ip, pc}^
 768:	00001301 	andeq	r1, r0, r1, lsl #6
 76c:	31003419 	tstcc	r0, r9, lsl r4
 770:	1a000013 	bne	7c4 <prvUnlockQueue+0x20>
 774:	0111010b 	tsteq	r1, fp, lsl #2
 778:	00000612 	andeq	r0, r0, r2, lsl r6
 77c:	3100341b 	tstcc	r0, fp, lsl r4
 780:	00170213 	andseq	r0, r7, r3, lsl r2
 784:	00051c00 	andeq	r1, r5, r0, lsl #24
 788:	17021331 	smladxne	r2, r1, r3, r1
 78c:	0b1d0000 	bleq	740794 <__exidx_end+0x73e9ec>
 790:	12011101 	andne	r1, r1, #1073741824	; 0x40000000
 794:	00130106 	andseq	r0, r3, r6, lsl #2
 798:	82891e00 	addhi	r1, r9, #0, 28
 79c:	01110001 	tsteq	r1, r1
 7a0:	00001331 	andeq	r1, r0, r1, lsr r3
 7a4:	3f012e1f 	svccc	0x00012e1f
 7a8:	3a0e0319 	bcc	381414 <__exidx_end+0x37f66c>
 7ac:	27053b0b 	strcs	r3, [r5, -fp, lsl #22]
 7b0:	11134919 	tstne	r3, r9, lsl r9
 7b4:	40061201 	andmi	r1, r6, r1, lsl #4
 7b8:	19429718 	stmdbne	r2, {r3, r4, r8, r9, sl, ip, pc}^
 7bc:	00001301 	andeq	r1, r0, r1, lsl #6
 7c0:	03000520 	movweq	r0, #1312	; 0x520
 7c4:	3b0b3a0e 	blcc	2cf004 <__exidx_end+0x2cd25c>
 7c8:	02134905 	andseq	r4, r3, #81920	; 0x14000
 7cc:	21000017 	tstcs	r0, r7, lsl r0
 7d0:	0e030005 	cdpeq	0, 0, cr0, cr3, cr5, {0}
 7d4:	053b0b3a 	ldreq	r0, [fp, #-2874]!	; 0xfffff4c6
 7d8:	18021349 	stmdane	r2, {r0, r3, r6, r8, r9, ip}
 7dc:	34220000 	strtcc	r0, [r2], #-0
 7e0:	3a0e0300 	bcc	3813e8 <__exidx_end+0x37f640>
 7e4:	49053b0b 	stmdbmi	r5, {r0, r1, r3, r8, r9, fp, ip, sp}
 7e8:	00170213 	andseq	r0, r7, r3, lsl r2
 7ec:	00342300 	eorseq	r2, r4, r0, lsl #6
 7f0:	0b3a0e03 	bleq	e84004 <__exidx_end+0xe8225c>
 7f4:	1349053b 	movtne	r0, #38203	; 0x953b
 7f8:	00001802 	andeq	r1, r0, r2, lsl #16
 7fc:	31011d24 	tstcc	r1, r4, lsr #26
 800:	55015213 	strpl	r5, [r1, #-531]	; 0xfffffded
 804:	590b5817 	stmdbpl	fp, {r0, r1, r2, r4, fp, ip, lr}
 808:	00130105 	andseq	r0, r3, r5, lsl #2
 80c:	010b2500 	tsteq	fp, r0, lsl #10
 810:	00001755 	andeq	r1, r0, r5, asr r7
 814:	55010b26 	strpl	r0, [r1, #-2854]	; 0xfffff4da
 818:	00130117 	andseq	r0, r3, r7, lsl r1
 81c:	82892700 	addhi	r2, r9, #0, 14
 820:	01110101 	tsteq	r1, r1, lsl #2
 824:	13011331 	movwne	r1, #4913	; 0x1331
 828:	8a280000 	bhi	a00830 <__exidx_end+0x9fea88>
 82c:	02000182 	andeq	r0, r0, #-2147483616	; 0x80000020
 830:	18429118 	stmdane	r2, {r3, r4, r8, ip, pc}^
 834:	89290000 	stmdbhi	r9!, {}	; <UNPREDICTABLE>
 838:	11010182 	smlabbne	r1, r2, r1, r0
 83c:	00133101 	andseq	r3, r3, r1, lsl #2
 840:	00052a00 	andeq	r2, r5, r0, lsl #20
 844:	00001331 	andeq	r1, r0, r1, lsr r3
 848:	31011d2b 	tstcc	r1, fp, lsr #26
 84c:	12011113 	andne	r1, r1, #-1073741820	; 0xc0000004
 850:	590b5806 	stmdbpl	fp, {r1, r2, fp, ip, lr}
 854:	00130105 	andseq	r0, r3, r5, lsl #2
 858:	012e2c00 			; <UNDEFINED> instruction: 0x012e2c00
 85c:	0e03193f 	mcreq	9, 0, r1, cr3, cr15, {1}
 860:	053b0b3a 	ldreq	r0, [fp, #-2874]!	; 0xfffff4c6
 864:	01111927 	tsteq	r1, r7, lsr #18
 868:	18400612 	stmdane	r0, {r1, r4, r9, sl}^
 86c:	01194297 			; <UNDEFINED> instruction: 0x01194297
 870:	2d000013 	stccs	0, cr0, [r0, #-76]	; 0xffffffb4
 874:	193f002e 	ldmdbne	pc!, {r1, r2, r3, r5}	; <UNPREDICTABLE>
 878:	0b3a0e03 	bleq	e8408c <__exidx_end+0xe822e4>
 87c:	1927053b 	stmdbne	r7!, {r0, r1, r3, r4, r5, r8, sl}
 880:	06120111 			; <UNDEFINED> instruction: 0x06120111
 884:	42971840 	addsmi	r1, r7, #64, 16	; 0x400000
 888:	2e000019 	mcrcs	0, 0, r0, cr0, cr9, {0}
 88c:	193f002e 	ldmdbne	pc!, {r1, r2, r3, r5}	; <UNPREDICTABLE>
 890:	0b3a0e03 	bleq	e840a4 <__exidx_end+0xe822fc>
 894:	1927053b 	stmdbne	r7!, {r0, r1, r3, r4, r5, r8, sl}
 898:	01111349 	tsteq	r1, r9, asr #6
 89c:	18400612 	stmdane	r0, {r1, r4, r9, sl}^
 8a0:	00194297 	mulseq	r9, r7, r2
 8a4:	012e2f00 			; <UNDEFINED> instruction: 0x012e2f00
 8a8:	0b3a0e03 	bleq	e840bc <__exidx_end+0xe82314>
 8ac:	1927053b 	stmdbne	r7!, {r0, r1, r3, r4, r5, r8, sl}
 8b0:	11190187 	tstne	r9, r7, lsl #3
 8b4:	40061201 	andmi	r1, r6, r1, lsl #4
 8b8:	19429718 	stmdbne	r2, {r3, r4, r8, r9, sl, ip, pc}^
 8bc:	00001301 	andeq	r1, r0, r1, lsl #6
 8c0:	31011d30 	tstcc	r1, r0, lsr sp
 8c4:	12011113 	andne	r1, r1, #-1073741820	; 0xc0000004
 8c8:	590b5806 	stmdbpl	fp, {r1, r2, fp, ip, lr}
 8cc:	31000005 	tstcc	r0, r5
 8d0:	0e030034 	mcreq	0, 0, r0, cr3, cr4, {1}
 8d4:	053b0b3a 	ldreq	r0, [fp, #-2874]!	; 0xfffff4c6
 8d8:	0b1c1349 	bleq	705604 <__exidx_end+0x70385c>
 8dc:	34320000 	ldrtcc	r0, [r2], #-0
 8e0:	3a0e0300 	bcc	3814e8 <__exidx_end+0x37f740>
 8e4:	490b3b0b 	stmdbmi	fp, {r0, r1, r3, r8, r9, fp, ip, sp}
 8e8:	00180213 	andseq	r0, r8, r3, lsl r2
 8ec:	00343300 	eorseq	r3, r4, r0, lsl #6
 8f0:	0b3a0e03 	bleq	e84104 <__exidx_end+0xe8235c>
 8f4:	13490b3b 	movtne	r0, #39739	; 0x9b3b
 8f8:	1802193f 	stmdane	r2, {r0, r1, r2, r3, r4, r5, r8, fp, ip}
 8fc:	2e340000 	cdpcs	0, 3, cr0, cr4, cr0, {0}
 900:	3c193f00 	ldccc	15, cr3, [r9], {-0}
 904:	030e6e19 	movweq	r6, #60953	; 0xee19
 908:	3b0b3a0e 	blcc	2cf148 <__exidx_end+0x2cd3a0>
 90c:	3500000b 	strcc	r0, [r0, #-11]
 910:	193f002e 	ldmdbne	pc!, {r1, r2, r3, r5}	; <UNPREDICTABLE>
 914:	0e6e193c 	mcreq	9, 3, r1, cr14, cr12, {1}
 918:	0b3a0e03 	bleq	e8412c <__exidx_end+0xe82384>
 91c:	0000053b 	andeq	r0, r0, fp, lsr r5
 920:	01110100 	tsteq	r1, r0, lsl #2
 924:	0b130e25 	bleq	4c41c0 <__exidx_end+0x4c2418>
 928:	0e1b0e03 	cdpeq	14, 1, cr0, cr11, cr3, {0}
 92c:	01111755 	tsteq	r1, r5, asr r7
 930:	00001710 	andeq	r1, r0, r0, lsl r7
 934:	0b002402 	bleq	9944 <__exidx_end+0x7b9c>
 938:	030b3e0b 	movweq	r3, #48651	; 0xbe0b
 93c:	0300000e 	movweq	r0, #14
 940:	0b0b0024 	bleq	2c09d8 <__exidx_end+0x2bec30>
 944:	08030b3e 	stmdaeq	r3, {r1, r2, r3, r4, r5, r8, r9, fp}
 948:	16040000 	strne	r0, [r4], -r0
 94c:	3a0e0300 	bcc	381554 <__exidx_end+0x37f7ac>
 950:	490b3b0b 	stmdbmi	fp, {r0, r1, r3, r8, r9, fp, ip, sp}
 954:	05000013 	streq	r0, [r0, #-19]	; 0xffffffed
 958:	0b0b000f 	bleq	2c099c <__exidx_end+0x2bebf4>
 95c:	0f060000 	svceq	0x00060000
 960:	490b0b00 	stmdbmi	fp, {r8, r9, fp}
 964:	07000013 	smladeq	r0, r3, r0, r0
 968:	13490026 	movtne	r0, #36902	; 0x9026
 96c:	13080000 	movwne	r0, #32768	; 0x8000
 970:	0b0e0301 	bleq	38157c <__exidx_end+0x37f7d4>
 974:	3b0b3a0b 	blcc	2cf1a8 <__exidx_end+0x2cd400>
 978:	0013010b 	andseq	r0, r3, fp, lsl #2
 97c:	000d0900 	andeq	r0, sp, r0, lsl #18
 980:	0b3a0e03 	bleq	e84194 <__exidx_end+0xe823ec>
 984:	13490b3b 	movtne	r0, #39739	; 0x9b3b
 988:	00000b38 	andeq	r0, r0, r8, lsr fp
 98c:	2701150a 	strcs	r1, [r1, -sl, lsl #10]
 990:	00130119 	andseq	r0, r3, r9, lsl r1
 994:	00050b00 	andeq	r0, r5, r0, lsl #22
 998:	00001349 	andeq	r1, r0, r9, asr #6
 99c:	0b01170c 	bleq	465d4 <__exidx_end+0x4482c>
 9a0:	3b0b3a0b 	blcc	2cf1d4 <__exidx_end+0x2cd42c>
 9a4:	0013010b 	andseq	r0, r3, fp, lsl #2
 9a8:	000d0d00 	andeq	r0, sp, r0, lsl #26
 9ac:	0b3a0e03 	bleq	e841c0 <__exidx_end+0xe82418>
 9b0:	13490b3b 	movtne	r0, #39739	; 0x9b3b
 9b4:	0d0e0000 	stceq	0, cr0, [lr, #-0]
 9b8:	3a080300 	bcc	2015c0 <__exidx_end+0x1ff818>
 9bc:	490b3b0b 	stmdbmi	fp, {r0, r1, r3, r8, r9, fp, ip, sp}
 9c0:	000b3813 	andeq	r3, fp, r3, lsl r8
 9c4:	012e0f00 			; <UNDEFINED> instruction: 0x012e0f00
 9c8:	0b3a0e03 	bleq	e841dc <__exidx_end+0xe82434>
 9cc:	1927053b 	stmdbne	r7!, {r0, r1, r3, r4, r5, r8, sl}
 9d0:	0b201349 	bleq	8056fc <__exidx_end+0x803954>
 9d4:	00001301 	andeq	r1, r0, r1, lsl #6
 9d8:	03000510 	movweq	r0, #1296	; 0x510
 9dc:	3b0b3a0e 	blcc	2cf21c <__exidx_end+0x2cd474>
 9e0:	00134905 	andseq	r4, r3, r5, lsl #18
 9e4:	00341100 	eorseq	r1, r4, r0, lsl #2
 9e8:	0b3a0e03 	bleq	e841fc <__exidx_end+0xe82454>
 9ec:	1349053b 	movtne	r0, #38203	; 0x953b
 9f0:	2e120000 	cdpcs	0, 1, cr0, cr2, cr0, {0}
 9f4:	3a0e0301 	bcc	381600 <__exidx_end+0x37f858>
 9f8:	27053b0b 	strcs	r3, [r5, -fp, lsl #22]
 9fc:	12011119 	andne	r1, r1, #1073741830	; 0x40000006
 a00:	97184006 	ldrls	r4, [r8, -r6]
 a04:	13011942 	movwne	r1, #6466	; 0x1942
 a08:	89130000 	ldmdbhi	r3, {}	; <UNPREDICTABLE>
 a0c:	11000182 	smlabbne	r0, r2, r1, r0
 a10:	00133101 	andseq	r3, r3, r1, lsl #2
 a14:	82891400 	addhi	r1, r9, #0, 8
 a18:	01110101 	tsteq	r1, r1, lsl #2
 a1c:	13011331 	movwne	r1, #4913	; 0x1331
 a20:	8a150000 	bhi	540a28 <__exidx_end+0x53ec80>
 a24:	02000182 	andeq	r0, r0, #-2147483616	; 0x80000020
 a28:	18429118 	stmdane	r2, {r3, r4, r8, ip, pc}^
 a2c:	2e160000 	cdpcs	0, 1, cr0, cr6, cr0, {0}
 a30:	11133101 	tstne	r3, r1, lsl #2
 a34:	40061201 	andmi	r1, r6, r1, lsl #4
 a38:	19429718 	stmdbne	r2, {r3, r4, r8, r9, sl, ip, pc}^
 a3c:	00001301 	andeq	r1, r0, r1, lsl #6
 a40:	31000517 	tstcc	r0, r7, lsl r5
 a44:	00170213 	andseq	r0, r7, r3, lsl r2
 a48:	00341800 	eorseq	r1, r4, r0, lsl #16
 a4c:	17021331 	smladxne	r2, r1, r3, r1
 a50:	0b190000 	bleq	640a58 <__exidx_end+0x63ecb0>
 a54:	12011101 	andne	r1, r1, #1073741824	; 0x40000000
 a58:	00130106 	andseq	r0, r3, r6, lsl #2
 a5c:	010b1a00 	tsteq	fp, r0, lsl #20
 a60:	06120111 			; <UNDEFINED> instruction: 0x06120111
 a64:	341b0000 	ldrcc	r0, [fp], #-0
 a68:	00133100 	andseq	r3, r3, r0, lsl #2
 a6c:	012e1c00 			; <UNDEFINED> instruction: 0x012e1c00
 a70:	0e03193f 	mcreq	9, 0, r1, cr3, cr15, {1}
 a74:	0b3b0b3a 	bleq	ec3764 <__exidx_end+0xec19bc>
 a78:	13491927 	movtne	r1, #39207	; 0x9927
 a7c:	06120111 			; <UNDEFINED> instruction: 0x06120111
 a80:	42971840 	addsmi	r1, r7, #64, 16	; 0x400000
 a84:	00130119 	andseq	r0, r3, r9, lsl r1
 a88:	00341d00 	eorseq	r1, r4, r0, lsl #26
 a8c:	0b3a0e03 	bleq	e842a0 <__exidx_end+0xe824f8>
 a90:	13490b3b 	movtne	r0, #39739	; 0x9b3b
 a94:	00001702 	andeq	r1, r0, r2, lsl #14
 a98:	0182891e 	orreq	r8, r2, lr, lsl r9
 a9c:	31011101 	tstcc	r1, r1, lsl #2
 aa0:	1f000013 	svcne	0x00000013
 aa4:	193f012e 	ldmdbne	pc!, {r1, r2, r3, r5, r8}	; <UNPREDICTABLE>
 aa8:	0b3a0e03 	bleq	e842bc <__exidx_end+0xe82514>
 aac:	1927053b 	stmdbne	r7!, {r0, r1, r3, r4, r5, r8, sl}
 ab0:	01111349 	tsteq	r1, r9, asr #6
 ab4:	18400612 	stmdane	r0, {r1, r4, r9, sl}^
 ab8:	01194297 			; <UNDEFINED> instruction: 0x01194297
 abc:	20000013 	andcs	r0, r0, r3, lsl r0
 ac0:	0e030005 	cdpeq	0, 0, cr0, cr3, cr5, {0}
 ac4:	053b0b3a 	ldreq	r0, [fp, #-2874]!	; 0xfffff4c6
 ac8:	17021349 	strne	r1, [r2, -r9, asr #6]
 acc:	05210000 	streq	r0, [r1, #-0]!
 ad0:	3a0e0300 	bcc	3816d8 <__exidx_end+0x37f930>
 ad4:	49053b0b 	stmdbmi	r5, {r0, r1, r3, r8, r9, fp, ip, sp}
 ad8:	00180213 	andseq	r0, r8, r3, lsl r2
 adc:	00342200 	eorseq	r2, r4, r0, lsl #4
 ae0:	0b3a0e03 	bleq	e842f4 <__exidx_end+0xe8254c>
 ae4:	1349053b 	movtne	r0, #38203	; 0x953b
 ae8:	00001702 	andeq	r1, r0, r2, lsl #14
 aec:	03003423 	movweq	r3, #1059	; 0x423
 af0:	3b0b3a0e 	blcc	2cf330 <__exidx_end+0x2cd588>
 af4:	02134905 	andseq	r4, r3, #81920	; 0x14000
 af8:	24000018 	strcs	r0, [r0], #-24	; 0xffffffe8
 afc:	01018289 	smlabbeq	r1, r9, r2, r8
 b00:	13010111 	movwne	r0, #4369	; 0x1111
 b04:	2e250000 	cdpcs	0, 2, cr0, cr5, cr0, {0}
 b08:	3a0e0301 	bcc	381714 <__exidx_end+0x37f96c>
 b0c:	27053b0b 	strcs	r3, [r5, -fp, lsl #22]
 b10:	010b2019 	tsteq	fp, r9, lsl r0
 b14:	26000013 			; <UNDEFINED> instruction: 0x26000013
 b18:	0000010b 	andeq	r0, r0, fp, lsl #2
 b1c:	03012e27 	movweq	r2, #7719	; 0x1e27
 b20:	3b0b3a0e 	blcc	2cf360 <__exidx_end+0x2cd5b8>
 b24:	87192705 	ldrhi	r2, [r9, -r5, lsl #14]
 b28:	01111901 	tsteq	r1, r1, lsl #18
 b2c:	18400612 	stmdane	r0, {r1, r4, r9, sl}^
 b30:	01194297 			; <UNDEFINED> instruction: 0x01194297
 b34:	28000013 	stmdacs	r0, {r0, r1, r4}
 b38:	1331011d 	teqne	r1, #1073741831	; 0x40000007
 b3c:	06120111 			; <UNDEFINED> instruction: 0x06120111
 b40:	05590b58 	ldrbeq	r0, [r9, #-2904]	; 0xfffff4a8
 b44:	00001301 	andeq	r1, r0, r1, lsl #6
 b48:	31000529 	tstcc	r0, r9, lsr #10
 b4c:	2a000013 	bcs	ba0 <xQueueGenericReceive+0x132>
 b50:	13310034 	teqne	r1, #52	; 0x34
 b54:	00001802 	andeq	r1, r0, r2, lsl #16
 b58:	0182892b 	orreq	r8, r2, fp, lsr #18
 b5c:	00011101 	andeq	r1, r1, r1, lsl #2
 b60:	011d2c00 	tsteq	sp, r0, lsl #24
 b64:	01111331 	tsteq	r1, r1, lsr r3
 b68:	0b580612 	bleq	16023b8 <__exidx_end+0x1600610>
 b6c:	00000559 	andeq	r0, r0, r9, asr r5
 b70:	0182892d 	orreq	r8, r2, sp, lsr #18
 b74:	93011100 	movwls	r1, #4352	; 0x1100
 b78:	00001842 	andeq	r1, r0, r2, asr #16
 b7c:	0300342e 	movweq	r3, #1070	; 0x42e
 b80:	3b0b3a0e 	blcc	2cf3c0 <__exidx_end+0x2cd618>
 b84:	0213490b 	andseq	r4, r3, #180224	; 0x2c000
 b88:	2f000018 	svccs	0x00000018
 b8c:	193f002e 	ldmdbne	pc!, {r1, r2, r3, r5}	; <UNPREDICTABLE>
 b90:	0e6e193c 	mcreq	9, 3, r1, cr14, cr12, {1}
 b94:	0b3a0e03 	bleq	e843a8 <__exidx_end+0xe82600>
 b98:	00000b3b 	andeq	r0, r0, fp, lsr fp
 b9c:	3f002e30 	svccc	0x00002e30
 ba0:	6e193c19 	mrcvs	12, 0, r3, cr9, cr9, {0}
 ba4:	3a0e030e 	bcc	3817e4 <__exidx_end+0x37fa3c>
 ba8:	00053b0b 	andeq	r3, r5, fp, lsl #22
 bac:	11010000 	mrsne	r0, (UNDEF: 1)
 bb0:	130e2501 	movwne	r2, #58625	; 0xe501
 bb4:	1b0e030b 	blne	3817e8 <__exidx_end+0x37fa40>
 bb8:	1117550e 	tstne	r7, lr, lsl #10
 bbc:	00171001 	andseq	r1, r7, r1
 bc0:	00240200 	eoreq	r0, r4, r0, lsl #4
 bc4:	0b3e0b0b 	bleq	f837f8 <__exidx_end+0xf81a50>
 bc8:	00000e03 	andeq	r0, r0, r3, lsl #28
 bcc:	03001603 	movweq	r1, #1539	; 0x603
 bd0:	3b0b3a0e 	blcc	2cf410 <__exidx_end+0x2cd668>
 bd4:	0013490b 	andseq	r4, r3, fp, lsl #18
 bd8:	00240400 	eoreq	r0, r4, r0, lsl #8
 bdc:	0b3e0b0b 	bleq	f83810 <__exidx_end+0xf81a68>
 be0:	00000803 	andeq	r0, r0, r3, lsl #16
 be4:	0b000f05 	bleq	4800 <__exidx_end+0x2a58>
 be8:	0013490b 	andseq	r4, r3, fp, lsl #18
 bec:	01150600 	tsteq	r5, r0, lsl #12
 bf0:	13011927 	movwne	r1, #6439	; 0x1927
 bf4:	05070000 	streq	r0, [r7, #-0]
 bf8:	00134900 	andseq	r4, r3, r0, lsl #18
 bfc:	000f0800 	andeq	r0, pc, r0, lsl #16
 c00:	00000b0b 	andeq	r0, r0, fp, lsl #22
 c04:	03001609 	movweq	r1, #1545	; 0x609
 c08:	3b0b3a0e 	blcc	2cf448 <__exidx_end+0x2cd6a0>
 c0c:	00134905 	andseq	r4, r3, r5, lsl #18
 c10:	01010a00 	tsteq	r1, r0, lsl #20
 c14:	13011349 	movwne	r1, #4937	; 0x1349
 c18:	210b0000 	mrscs	r0, (UNDEF: 11)
 c1c:	2f134900 	svccs	0x00134900
 c20:	0c00000b 	stceq	0, cr0, [r0], {11}
 c24:	193f002e 	ldmdbne	pc!, {r1, r2, r3, r5}	; <UNPREDICTABLE>
 c28:	0b3a0e03 	bleq	e8443c <__exidx_end+0xe82694>
 c2c:	1927053b 	stmdbne	r7!, {r0, r1, r3, r4, r5, r8, sl}
 c30:	00000b20 	andeq	r0, r0, r0, lsr #22
 c34:	3f012e0d 	svccc	0x00012e0d
 c38:	3a0e0319 	bcc	3818a4 <__exidx_end+0x37fafc>
 c3c:	27053b0b 	strcs	r3, [r5, -fp, lsl #22]
 c40:	11134919 	tstne	r3, r9, lsl r9
 c44:	40061201 	andmi	r1, r6, r1, lsl #4
 c48:	19429718 	stmdbne	r2, {r3, r4, r8, r9, sl, ip, pc}^
 c4c:	00001301 	andeq	r1, r0, r1, lsl #6
 c50:	0300050e 	movweq	r0, #1294	; 0x50e
 c54:	3b0b3a0e 	blcc	2cf494 <__exidx_end+0x2cd6ec>
 c58:	02134905 	andseq	r4, r3, #81920	; 0x14000
 c5c:	0f000017 	svceq	0x00000017
 c60:	0e030005 	cdpeq	0, 0, cr0, cr3, cr5, {0}
 c64:	053b0b3a 	ldreq	r0, [fp, #-2874]!	; 0xfffff4c6
 c68:	18021349 	stmdane	r2, {r0, r3, r6, r8, r9, ip}
 c6c:	2e100000 	cdpcs	0, 1, cr0, cr0, cr0, {0}
 c70:	03193f00 	tsteq	r9, #0, 30
 c74:	3b0b3a0e 	blcc	2cf4b4 <__exidx_end+0x2cd70c>
 c78:	11192705 	tstne	r9, r5, lsl #14
 c7c:	40061201 	andmi	r1, r6, r1, lsl #4
 c80:	19429618 	stmdbne	r2, {r3, r4, r9, sl, ip, pc}^
 c84:	2e110000 	cdpcs	0, 1, cr0, cr1, cr0, {0}
 c88:	11133100 	tstne	r3, r0, lsl #2
 c8c:	40061201 	andmi	r1, r6, r1, lsl #4
 c90:	19429718 	stmdbne	r2, {r3, r4, r8, r9, sl, ip, pc}^
 c94:	2e120000 	cdpcs	0, 1, cr0, cr2, cr0, {0}
 c98:	03193f01 	tsteq	r9, #1, 30
 c9c:	3b0b3a0e 	blcc	2cf4dc <__exidx_end+0x2cd734>
 ca0:	87192705 	ldrhi	r2, [r9, -r5, lsl #14]
 ca4:	01111901 	tsteq	r1, r1, lsl #18
 ca8:	18400612 	stmdane	r0, {r1, r4, r9, sl}^
 cac:	01194297 			; <UNDEFINED> instruction: 0x01194297
 cb0:	13000013 	movwne	r0, #19
 cb4:	1331001d 	teqne	r1, #29
 cb8:	17550152 			; <UNDEFINED> instruction: 0x17550152
 cbc:	05590b58 	ldrbeq	r0, [r9, #-2904]	; 0xfffff4a8
 cc0:	89140000 	ldmdbhi	r4, {}	; <UNPREDICTABLE>
 cc4:	11010182 	smlabbne	r1, r2, r1, r0
 cc8:	00133101 	andseq	r3, r3, r1, lsl #2
 ccc:	828a1500 	addhi	r1, sl, #0, 10
 cd0:	18020001 	stmdane	r2, {r0}
 cd4:	00184291 	mulseq	r8, r1, r2
 cd8:	002e1600 	eoreq	r1, lr, r0, lsl #12
 cdc:	0e03193f 	mcreq	9, 0, r1, cr3, cr15, {1}
 ce0:	053b0b3a 	ldreq	r0, [fp, #-2874]!	; 0xfffff4c6
 ce4:	01111927 	tsteq	r1, r7, lsr #18
 ce8:	18400612 	stmdane	r0, {r1, r4, r9, sl}^
 cec:	00194297 	mulseq	r9, r7, r2
 cf0:	00341700 	eorseq	r1, r4, r0, lsl #14
 cf4:	0b3a0803 	bleq	e82d08 <__exidx_end+0xe80f60>
 cf8:	1349053b 	movtne	r0, #38203	; 0x953b
 cfc:	89180000 	ldmdbhi	r8, {}	; <UNPREDICTABLE>
 d00:	11000182 	smlabbne	r0, r2, r1, r0
 d04:	00133101 	andseq	r3, r3, r1, lsl #2
 d08:	82891900 	addhi	r1, r9, #0, 18
 d0c:	01110101 	tsteq	r1, r1, lsl #2
 d10:	13011331 	movwne	r1, #4913	; 0x1331
 d14:	2e1a0000 	cdpcs	0, 1, cr0, cr10, cr0, {0}
 d18:	03193f00 	tsteq	r9, #0, 30
 d1c:	3b0b3a0e 	blcc	2cf55c <__exidx_end+0x2cd7b4>
 d20:	49192705 	ldmdbmi	r9, {r0, r2, r8, r9, sl, sp}
 d24:	12011113 	andne	r1, r1, #-1073741820	; 0xc0000004
 d28:	97184006 	ldrls	r4, [r8, -r6]
 d2c:	00001942 	andeq	r1, r0, r2, asr #18
 d30:	3f012e1b 	svccc	0x00012e1b
 d34:	3a0e0319 	bcc	3819a0 <__exidx_end+0x37fbf8>
 d38:	27053b0b 	strcs	r3, [r5, -fp, lsl #22]
 d3c:	12011119 	andne	r1, r1, #1073741830	; 0x40000006
 d40:	97184006 	ldrls	r4, [r8, -r6]
 d44:	13011942 	movwne	r1, #6466	; 0x1942
 d48:	341c0000 	ldrcc	r0, [ip], #-0
 d4c:	3a0e0300 	bcc	381954 <__exidx_end+0x37fbac>
 d50:	49053b0b 	stmdbmi	r5, {r0, r1, r3, r8, r9, fp, ip, sp}
 d54:	00180213 	andseq	r0, r8, r3, lsl r2
 d58:	00341d00 	eorseq	r1, r4, r0, lsl #26
 d5c:	0b3a0e03 	bleq	e84570 <__exidx_end+0xe827c8>
 d60:	13490b3b 	movtne	r0, #39739	; 0x9b3b
 d64:	193c193f 	ldmdbne	ip!, {r0, r1, r2, r3, r4, r5, r8, fp, ip}
 d68:	2e1e0000 	cdpcs	0, 1, cr0, cr14, cr0, {0}
 d6c:	3c193f00 	ldccc	15, cr3, [r9], {-0}
 d70:	030e6e19 	movweq	r6, #60953	; 0xee19
 d74:	3b0b3a0e 	blcc	2cf5b4 <__exidx_end+0x2cd80c>
 d78:	1f00000b 	svcne	0x0000000b
 d7c:	193f002e 	ldmdbne	pc!, {r1, r2, r3, r5}	; <UNPREDICTABLE>
 d80:	0e6e193c 	mcreq	9, 3, r1, cr14, cr12, {1}
 d84:	0b3a0e03 	bleq	e84598 <__exidx_end+0xe827f0>
 d88:	0000053b 	andeq	r0, r0, fp, lsr r5
 d8c:	00110100 	andseq	r0, r1, r0, lsl #2
 d90:	06550610 			; <UNDEFINED> instruction: 0x06550610
 d94:	081b0803 	ldmdaeq	fp, {r0, r1, fp}
 d98:	05130825 	ldreq	r0, [r3, #-2085]	; 0xfffff7db
 d9c:	Address 0x00000d9c is out of bounds.


Disassembly of section .debug_loc:

00000000 <.debug_loc>:
	...
       8:	000c0006 	andeq	r0, ip, r6
       c:	9f007a12 	svcls	0x00007a12
	...
      18:	00500001 	subseq	r0, r0, r1
      1c:	00000000 	andeq	r0, r0, r0
      20:	01000000 	mrseq	r0, (UNDEF: 0)
      24:	00005000 	andeq	r5, r0, r0
      28:	00000000 	andeq	r0, r0, r0
      2c:	00010000 	andeq	r0, r1, r0
      30:	00000050 	andeq	r0, r0, r0, asr r0
      34:	00000000 	andeq	r0, r0, r0
      38:	50000100 	andpl	r0, r0, r0, lsl #2
	...
      44:	00500001 	subseq	r0, r0, r1
      48:	00000000 	andeq	r0, r0, r0
      4c:	01000000 	mrseq	r0, (UNDEF: 0)
      50:	00005000 	andeq	r5, r0, r0
      54:	00000000 	andeq	r0, r0, r0
      58:	00010000 	andeq	r0, r1, r0
      5c:	00000050 	andeq	r0, r0, r0, asr r0
      60:	00000000 	andeq	r0, r0, r0
      64:	50000100 	andpl	r0, r0, r0, lsl #2
	...
      70:	00500001 	subseq	r0, r0, r1
	...
      80:	0a000000 	beq	88 <Heap_Size+0x8>
      84:	00733100 	rsbseq	r3, r3, r0, lsl #2
      88:	331a3808 	tstcc	sl, #8, 16	; 0x80000
      8c:	009f2425 	addseq	r2, pc, r5, lsr #8
      90:	00000000 	andeq	r0, r0, r0
      94:	07000000 	streq	r0, [r0, -r0]
      98:	4f007100 	svcmi	0x00007100
      9c:	9f01231a 	svcls	0x0001231a
	...
      a8:	00730007 	rsbseq	r0, r3, r7
      ac:	18231a4f 	stmdane	r3!, {r0, r1, r2, r3, r6, r9, fp, ip}
      b0:	0000009f 	muleq	r0, pc, r0	; <UNPREDICTABLE>
      b4:	00000000 	andeq	r0, r0, r0
      b8:	00059800 	andeq	r9, r5, r0, lsl #16
      bc:	00059e00 	andeq	r9, r5, r0, lsl #28
      c0:	50000100 	andpl	r0, r0, r0, lsl #2
      c4:	0000059e 	muleq	r0, lr, r5
      c8:	000005e0 	andeq	r0, r0, r0, ror #11
      cc:	01f30004 	mvnseq	r0, r4
      d0:	00009f50 	andeq	r9, r0, r0, asr pc
      d4:	00000000 	andeq	r0, r0, r0
      d8:	05e00000 	strbeq	r0, [r0, #0]!
      dc:	05e60000 	strbeq	r0, [r6, #0]!
      e0:	00010000 	andeq	r0, r1, r0
      e4:	0005e650 	andeq	lr, r5, r0, asr r6
      e8:	00060800 	andeq	r0, r6, r0, lsl #16
      ec:	f3000400 	vshl.u8	d0, d0, d0
      f0:	009f5001 	addseq	r5, pc, r1
      f4:	00000000 	andeq	r0, r0, r0
      f8:	e0000000 	and	r0, r0, r0
      fc:	e7000006 	str	r0, [r0, -r6]
     100:	01000006 	tsteq	r0, r6
     104:	06e75000 	strbteq	r5, [r7], r0
     108:	06f00000 	ldrbteq	r0, [r0], r0
     10c:	00010000 	andeq	r0, r1, r0
     110:	0006f054 	andeq	pc, r6, r4, asr r0	; <UNPREDICTABLE>
     114:	0006f800 	andeq	pc, r6, r0, lsl #16
     118:	f3000400 	vshl.u8	d0, d0, d0
     11c:	009f5001 	addseq	r5, pc, r1
     120:	00000000 	andeq	r0, r0, r0
     124:	f0000000 			; <UNDEFINED> instruction: 0xf0000000
     128:	f3000006 	vhadd.u8	d0, d0, d6
     12c:	01000006 	tsteq	r0, r6
     130:	06f35000 	ldrbteq	r5, [r3], r0
     134:	06f60000 	ldrbteq	r0, [r6], r0
     138:	00010000 	andeq	r0, r1, r0
     13c:	0006f654 	andeq	pc, r6, r4, asr r6	; <UNPREDICTABLE>
     140:	0006f800 	andeq	pc, r6, r0, lsl #16
     144:	50000100 	andpl	r0, r0, r0, lsl #2
	...
     150:	000006f8 	strdeq	r0, [r0], -r8
     154:	00000701 	andeq	r0, r0, r1, lsl #14
     158:	01500001 	cmpeq	r0, r1
     15c:	0c000007 	stceq	0, cr0, [r0], {7}
     160:	01000007 	tsteq	r0, r7
     164:	070c5400 	streq	r5, [ip, -r0, lsl #8]
     168:	070e0000 	streq	r0, [lr, -r0]
     16c:	00040000 	andeq	r0, r4, r0
     170:	9f5001f3 	svcls	0x005001f3
	...
     17c:	0000070e 	andeq	r0, r0, lr, lsl #14
     180:	00000722 	andeq	r0, r0, r2, lsr #14
     184:	22500001 	subscs	r0, r0, #1
     188:	2a000007 	bcs	1ac <.flash_to_ram_loop_end+0xd6>
     18c:	01000007 	tsteq	r0, r7
     190:	072a5400 	streq	r5, [sl, -r0, lsl #8]!
     194:	07300000 	ldreq	r0, [r0, -r0]!
     198:	00010000 	andeq	r0, r1, r0
     19c:	00073050 	andeq	r3, r7, r0, asr r0
     1a0:	00074a00 	andeq	r4, r7, r0, lsl #20
     1a4:	54000100 	strpl	r0, [r0], #-256	; 0xffffff00
     1a8:	0000074a 	andeq	r0, r0, sl, asr #14
     1ac:	0000074c 	andeq	r0, r0, ip, asr #14
     1b0:	4c500001 	mrrcmi	0, 0, r0, r0, cr1	; <UNPREDICTABLE>
     1b4:	7e000007 	cdpvc	0, 0, cr0, cr0, cr7, {0}
     1b8:	01000007 	tsteq	r0, r7
     1bc:	077e5400 	ldrbeq	r5, [lr, -r0, lsl #8]!
     1c0:	07800000 	streq	r0, [r0, r0]
     1c4:	00040000 	andeq	r0, r4, r0
     1c8:	9f5001f3 	svcls	0x005001f3
	...
     1d4:	0000070e 	andeq	r0, r0, lr, lsl #14
     1d8:	00000725 	andeq	r0, r0, r5, lsr #14
     1dc:	25510001 	ldrbcs	r0, [r1, #-1]
     1e0:	2a000007 	bcs	204 <.flash_to_ram_loop_end+0x12e>
     1e4:	04000007 	streq	r0, [r0], #-7
     1e8:	5101f300 	mrspl	pc, SP_irq	; <UNPREDICTABLE>
     1ec:	00072a9f 	muleq	r7, pc, sl	; <UNPREDICTABLE>
     1f0:	00073300 	andeq	r3, r7, r0, lsl #6
     1f4:	51000100 	mrspl	r0, (UNDEF: 16)
     1f8:	00000733 	andeq	r0, r0, r3, lsr r7
     1fc:	0000074a 	andeq	r0, r0, sl, asr #14
     200:	01f30004 	mvnseq	r0, r4
     204:	074a9f51 	smlsldeq	r9, sl, r1, pc	; <UNPREDICTABLE>
     208:	074f0000 	strbeq	r0, [pc, -r0]
     20c:	00010000 	andeq	r0, r1, r0
     210:	00074f51 	andeq	r4, r7, r1, asr pc
     214:	00078000 	andeq	r8, r7, r0
     218:	f3000400 	vshl.u8	d0, d0, d0
     21c:	009f5101 	addseq	r5, pc, r1, lsl #2
     220:	00000000 	andeq	r0, r0, r0
     224:	0e000000 	cdpeq	0, 0, cr0, cr0, cr0, {0}
     228:	14000007 	strne	r0, [r0], #-7
     22c:	01000007 	tsteq	r0, r7
     230:	07145200 	ldreq	r5, [r4, -r0, lsl #4]
     234:	071c0000 	ldreq	r0, [ip, -r0]
     238:	00010000 	andeq	r0, r1, r0
     23c:	00071c55 	andeq	r1, r7, r5, asr ip
     240:	00072a00 	andeq	r2, r7, r0, lsl #20
     244:	f3000400 	vshl.u8	d0, d0, d0
     248:	2a9f5201 	bcs	fe7d4a54 <__stack+0xde7cea54>
     24c:	76000007 	strvc	r0, [r0], -r7
     250:	01000007 	tsteq	r0, r7
     254:	07765500 	ldrbeq	r5, [r6, -r0, lsl #10]!
     258:	07800000 	streq	r0, [r0, r0]
     25c:	00040000 	andeq	r0, r4, r0
     260:	9f5201f3 	svcls	0x005201f3
	...
     26c:	0000070e 	andeq	r0, r0, lr, lsl #14
     270:	00000726 	andeq	r0, r0, r6, lsr #14
     274:	9f300002 	svcls	0x00300002
     278:	00000726 	andeq	r0, r0, r6, lsr #14
     27c:	0000072a 	andeq	r0, r0, sl, lsr #14
     280:	2a500001 	bcs	140028c <__exidx_end+0x13fe4e4>
     284:	78000007 	stmdavc	r0, {r0, r1, r2}
     288:	02000007 	andeq	r0, r0, #7
     28c:	789f3000 	ldmvc	pc, {ip, sp}	; <UNPREDICTABLE>
     290:	80000007 	andhi	r0, r0, r7
     294:	01000007 	tsteq	r0, r7
     298:	00005000 	andeq	r5, r0, r0
     29c:	00000000 	andeq	r0, r0, r0
     2a0:	07800000 	streq	r0, [r0, r0]
     2a4:	07880000 	streq	r0, [r8, r0]
     2a8:	00010000 	andeq	r0, r1, r0
     2ac:	00078850 	andeq	r8, r7, r0, asr r8
     2b0:	0007a100 	andeq	sl, r7, r0, lsl #2
     2b4:	53000100 	movwpl	r0, #256	; 0x100
     2b8:	000007a1 	andeq	r0, r0, r1, lsr #15
     2bc:	000007a4 	andeq	r0, r0, r4, lsr #15
     2c0:	01f30004 	mvnseq	r0, r4
     2c4:	00009f50 	andeq	r9, r0, r0, asr pc
     2c8:	00000000 	andeq	r0, r0, r0
     2cc:	07800000 	streq	r0, [r0, r0]
     2d0:	078e0000 	streq	r0, [lr, r0]
     2d4:	00010000 	andeq	r0, r1, r0
     2d8:	00078e51 	andeq	r8, r7, r1, asr lr
     2dc:	0007a100 	andeq	sl, r7, r0, lsl #2
     2e0:	50000100 	andpl	r0, r0, r0, lsl #2
     2e4:	000007a1 	andeq	r0, r0, r1, lsr #15
     2e8:	000007a4 	andeq	r0, r0, r4, lsr #15
     2ec:	01f30004 	mvnseq	r0, r4
     2f0:	00009f51 	andeq	r9, r0, r1, asr pc
     2f4:	00000000 	andeq	r0, r0, r0
     2f8:	07a40000 	streq	r0, [r4, r0]!
     2fc:	07ab0000 	streq	r0, [fp, r0]!
     300:	00010000 	andeq	r0, r1, r0
     304:	0007ab50 	andeq	sl, r7, r0, asr fp
     308:	00080c00 	andeq	r0, r8, r0, lsl #24
     30c:	54000100 	strpl	r0, [r0], #-256	; 0xffffff00
     310:	0000080c 	andeq	r0, r0, ip, lsl #16
     314:	0000080e 	andeq	r0, r0, lr, lsl #16
     318:	01f30004 	mvnseq	r0, r4
     31c:	00009f50 	andeq	r9, r0, r0, asr pc
     320:	00000000 	andeq	r0, r0, r0
     324:	080e0000 	stmdaeq	lr, {}	; <UNPREDICTABLE>
     328:	081b0000 	ldmdaeq	fp, {}	; <UNPREDICTABLE>
     32c:	00010000 	andeq	r0, r1, r0
     330:	00081b50 	andeq	r1, r8, r0, asr fp
     334:	00081e00 	andeq	r1, r8, r0, lsl #28
     338:	54000100 	strpl	r0, [r0], #-256	; 0xffffff00
     33c:	0000081e 	andeq	r0, r0, lr, lsl r8
     340:	00000821 	andeq	r0, r0, r1, lsr #16
     344:	21500001 	cmpcs	r0, r1
     348:	74000008 	strvc	r0, [r0], #-8
     34c:	01000008 	tsteq	r0, r8
     350:	08745400 	ldmdaeq	r4!, {sl, ip, lr}^
     354:	08760000 	ldmdaeq	r6!, {}^	; <UNPREDICTABLE>
     358:	00040000 	andeq	r0, r4, r0
     35c:	9f5001f3 	svcls	0x005001f3
	...
     368:	0000080e 	andeq	r0, r0, lr, lsl #16
     36c:	0000081b 	andeq	r0, r0, fp, lsl r8
     370:	1b510001 	blne	144037c <__exidx_end+0x143e5d4>
     374:	1e000008 	cdpne	0, 0, cr0, cr0, cr8, {0}
     378:	01000008 	tsteq	r0, r8
     37c:	081e5500 	ldmdaeq	lr, {r8, sl, ip, lr}
     380:	08210000 	stmdaeq	r1!, {}	; <UNPREDICTABLE>
     384:	00010000 	andeq	r0, r1, r0
     388:	00082151 	andeq	r2, r8, r1, asr r1
     38c:	00087400 	andeq	r7, r8, r0, lsl #8
     390:	55000100 	strpl	r0, [r0, #-256]	; 0xffffff00
     394:	00000874 	andeq	r0, r0, r4, ror r8
     398:	00000876 	andeq	r0, r0, r6, ror r8
     39c:	01f30004 	mvnseq	r0, r4
     3a0:	00009f51 	andeq	r9, r0, r1, asr pc
     3a4:	00000000 	andeq	r0, r0, r0
     3a8:	080e0000 	stmdaeq	lr, {}	; <UNPREDICTABLE>
     3ac:	081b0000 	ldmdaeq	fp, {}	; <UNPREDICTABLE>
     3b0:	00010000 	andeq	r0, r1, r0
     3b4:	00081b50 	andeq	r1, r8, r0, asr fp
     3b8:	00081e00 	andeq	r1, r8, r0, lsl #28
     3bc:	54000100 	strpl	r0, [r0], #-256	; 0xffffff00
     3c0:	0000081e 	andeq	r0, r0, lr, lsl r8
     3c4:	00000821 	andeq	r0, r0, r1, lsr #16
     3c8:	21500001 	cmpcs	r0, r1
     3cc:	74000008 	strvc	r0, [r0], #-8
     3d0:	01000008 	tsteq	r0, r8
     3d4:	08745400 	ldmdaeq	r4!, {sl, ip, lr}^
     3d8:	08760000 	ldmdaeq	r6!, {}^	; <UNPREDICTABLE>
     3dc:	00040000 	andeq	r0, r4, r0
     3e0:	9f5001f3 	svcls	0x005001f3
	...
     3ec:	00000876 	andeq	r0, r0, r6, ror r8
     3f0:	00000883 	andeq	r0, r0, r3, lsl #17
     3f4:	83500001 	cmphi	r0, #1
     3f8:	86000008 	strhi	r0, [r0], -r8
     3fc:	01000008 	tsteq	r0, r8
     400:	08865600 	stmeq	r6, {r9, sl, ip, lr}
     404:	08880000 	stmeq	r8, {}	; <UNPREDICTABLE>
     408:	00010000 	andeq	r0, r1, r0
     40c:	00088850 	andeq	r8, r8, r0, asr r8
     410:	0008c000 	andeq	ip, r8, r0
     414:	56000100 	strpl	r0, [r0], -r0, lsl #2
     418:	000008c0 	andeq	r0, r0, r0, asr #17
     41c:	000008c2 	andeq	r0, r0, r2, asr #17
     420:	01f30004 	mvnseq	r0, r4
     424:	00009f50 	andeq	r9, r0, r0, asr pc
     428:	00000000 	andeq	r0, r0, r0
     42c:	08760000 	ldmdaeq	r6!, {}^	; <UNPREDICTABLE>
     430:	08830000 	stmeq	r3, {}	; <UNPREDICTABLE>
     434:	00010000 	andeq	r0, r1, r0
     438:	00088351 	andeq	r8, r8, r1, asr r3
     43c:	00088600 	andeq	r8, r8, r0, lsl #12
     440:	55000100 	strpl	r0, [r0, #-256]	; 0xffffff00
     444:	00000886 	andeq	r0, r0, r6, lsl #17
     448:	00000897 	muleq	r0, r7, r8
     44c:	97510001 	ldrbls	r0, [r1, -r1]
     450:	c0000008 	andgt	r0, r0, r8
     454:	01000008 	tsteq	r0, r8
     458:	08c05500 	stmiaeq	r0, {r8, sl, ip, lr}^
     45c:	08c20000 	stmiaeq	r2, {}^	; <UNPREDICTABLE>
     460:	00040000 	andeq	r0, r4, r0
     464:	9f5101f3 	svcls	0x005101f3
	...
     470:	00000876 	andeq	r0, r0, r6, ror r8
     474:	00000883 	andeq	r0, r0, r3, lsl #17
     478:	83520001 	cmphi	r2, #1
     47c:	86000008 	strhi	r0, [r0], -r8
     480:	04000008 	streq	r0, [r0], #-8
     484:	5201f300 	andpl	pc, r1, #0, 6
     488:	0008869f 	muleq	r8, pc, r6	; <UNPREDICTABLE>
     48c:	00089700 	andeq	r9, r8, r0, lsl #14
     490:	52000100 	andpl	r0, r0, #0, 2
     494:	00000897 	muleq	r0, r7, r8
     498:	000008c2 	andeq	r0, r0, r2, asr #17
     49c:	01f30004 	mvnseq	r0, r4
     4a0:	00009f52 	andeq	r9, r0, r2, asr pc
     4a4:	00000000 	andeq	r0, r0, r0
     4a8:	089c0000 	ldmeq	ip, {}	; <UNPREDICTABLE>
     4ac:	08ac0000 	stmiaeq	ip!, {}	; <UNPREDICTABLE>
     4b0:	00010000 	andeq	r0, r1, r0
     4b4:	0008b250 	andeq	fp, r8, r0, asr r2
     4b8:	0008ba00 	andeq	fp, r8, r0, lsl #20
     4bc:	50000100 	andpl	r0, r0, r0, lsl #2
     4c0:	000008ba 			; <UNDEFINED> instruction: 0x000008ba
     4c4:	000008c0 	andeq	r0, r0, r0, asr #17
     4c8:	c0540001 	subsgt	r0, r4, r1
     4cc:	c2000008 	andgt	r0, r0, #8
     4d0:	01000008 	tsteq	r0, r8
     4d4:	00005000 	andeq	r5, r0, r0
     4d8:	00000000 	andeq	r0, r0, r0
     4dc:	08920000 	ldmeq	r2, {}	; <UNPREDICTABLE>
     4e0:	08940000 	ldmeq	r4, {}	; <UNPREDICTABLE>
     4e4:	00010000 	andeq	r0, r1, r0
     4e8:	00089450 	andeq	r9, r8, r0, asr r4
     4ec:	00089700 	andeq	r9, r8, r0, lsl #14
     4f0:	70000400 	andvc	r0, r0, r0, lsl #8
     4f4:	009f7fb4 			; <UNDEFINED> instruction: 0x009f7fb4
     4f8:	00000000 	andeq	r0, r0, r0
     4fc:	76000000 	strvc	r0, [r0], -r0
     500:	be000008 	cdplt	0, 0, cr0, cr0, cr8, {0}
     504:	02000008 	andeq	r0, r0, #8
     508:	be9f3000 	cdplt	0, 9, cr3, cr15, cr0, {0}
     50c:	c0000008 	andgt	r0, r0, r8
     510:	01000008 	tsteq	r0, r8
     514:	08c05400 	stmiaeq	r0, {sl, ip, lr}^
     518:	08c20000 	stmiaeq	r2, {}^	; <UNPREDICTABLE>
     51c:	00010000 	andeq	r0, r1, r0
     520:	00000050 	andeq	r0, r0, r0, asr r0
     524:	00000000 	andeq	r0, r0, r0
     528:	00089a00 	andeq	r9, r8, r0, lsl #20
     52c:	0008af00 	andeq	sl, r8, r0, lsl #30
     530:	50000100 	andpl	r0, r0, r0, lsl #2
     534:	000008af 	andeq	r0, r0, pc, lsr #17
     538:	000008b2 			; <UNDEFINED> instruction: 0x000008b2
     53c:	b2540001 	subslt	r0, r4, #1
     540:	ba000008 	blt	568 <SystemInit+0x80>
     544:	01000008 	tsteq	r0, r8
     548:	08ba5000 	ldmeq	sl!, {ip, lr}
     54c:	08c00000 	stmiaeq	r0, {}^	; <UNPREDICTABLE>
     550:	00010000 	andeq	r0, r1, r0
     554:	0008c054 	andeq	ip, r8, r4, asr r0
     558:	0008c200 	andeq	ip, r8, r0, lsl #4
     55c:	50000100 	andpl	r0, r0, r0, lsl #2
	...
     570:	00500001 	subseq	r0, r0, r1
     574:	00000000 	andeq	r0, r0, r0
     578:	01000000 	mrseq	r0, (UNDEF: 0)
     57c:	00005500 	andeq	r5, r0, r0, lsl #10
     580:	00000000 	andeq	r0, r0, r0
     584:	00040000 	andeq	r0, r4, r0
     588:	9f5001f3 	svcls	0x005001f3
	...
     59c:	00540001 	subseq	r0, r4, r1
     5a0:	00000000 	andeq	r0, r0, r0
     5a4:	01000000 	mrseq	r0, (UNDEF: 0)
     5a8:	00005000 	andeq	r5, r0, r0
	...
     5b8:	00010000 	andeq	r0, r1, r0
     5bc:	00000050 	andeq	r0, r0, r0, asr r0
     5c0:	00000000 	andeq	r0, r0, r0
     5c4:	f3000400 	vshl.u8	d0, d0, d0
     5c8:	009f5001 	addseq	r5, pc, r1
     5cc:	00000000 	andeq	r0, r0, r0
     5d0:	01000000 	mrseq	r0, (UNDEF: 0)
     5d4:	00005000 	andeq	r5, r0, r0
     5d8:	00000000 	andeq	r0, r0, r0
     5dc:	00040000 	andeq	r0, r4, r0
     5e0:	9f5001f3 	svcls	0x005001f3
	...
     5ec:	00500001 	subseq	r0, r0, r1
     5f0:	00000000 	andeq	r0, r0, r0
     5f4:	04000000 	streq	r0, [r0], #-0
     5f8:	5001f300 	andpl	pc, r1, r0, lsl #6
     5fc:	0000009f 	muleq	r0, pc, r0	; <UNPREDICTABLE>
	...
     60c:	51000100 	mrspl	r0, (UNDEF: 16)
	...
     618:	00540001 	subseq	r0, r4, r1
     61c:	00000000 	andeq	r0, r0, r0
     620:	01000000 	mrseq	r0, (UNDEF: 0)
     624:	00005100 	andeq	r5, r0, r0, lsl #2
     628:	00000000 	andeq	r0, r0, r0
     62c:	00010000 	andeq	r0, r1, r0
     630:	00000054 	andeq	r0, r0, r4, asr r0
     634:	00000000 	andeq	r0, r0, r0
     638:	51000100 	mrspl	r0, (UNDEF: 16)
	...
     644:	00540001 	subseq	r0, r4, r1
     648:	00000000 	andeq	r0, r0, r0
     64c:	02000000 	andeq	r0, r0, #0
     650:	00387000 	eorseq	r7, r8, r0
	...
     660:	01000000 	mrseq	r0, (UNDEF: 0)
     664:	00005000 	andeq	r5, r0, r0
     668:	00000000 	andeq	r0, r0, r0
     66c:	00010000 	andeq	r0, r1, r0
     670:	00000050 	andeq	r0, r0, r0, asr r0
     674:	00000000 	andeq	r0, r0, r0
     678:	0008c200 	andeq	ip, r8, r0, lsl #4
     67c:	0008d500 	andeq	sp, r8, r0, lsl #10
     680:	50000100 	andpl	r0, r0, r0, lsl #2
     684:	000008d5 	ldrdeq	r0, [r0], -r5
     688:	000008d8 	ldrdeq	r0, [r0], -r8
     68c:	d8540001 	ldmdale	r4, {r0}^
     690:	e7000008 	str	r0, [r0, -r8]
     694:	01000008 	tsteq	r0, r8
     698:	08e75000 	stmiaeq	r7!, {ip, lr}^
     69c:	08ea0000 	stmiaeq	sl!, {}^	; <UNPREDICTABLE>
     6a0:	00010000 	andeq	r0, r1, r0
     6a4:	0008ea54 	andeq	lr, r8, r4, asr sl
     6a8:	0008f700 	andeq	pc, r8, r0, lsl #14
     6ac:	50000100 	andpl	r0, r0, r0, lsl #2
     6b0:	000008f7 	strdeq	r0, [r0], -r7
     6b4:	000008fa 	strdeq	r0, [r0], -sl
     6b8:	fa540001 	blx	15006c4 <__exidx_end+0x14fe91c>
     6bc:	fd000008 	stc2	0, cr0, [r0, #-32]	; 0xffffffe0
     6c0:	01000008 	tsteq	r0, r8
     6c4:	08fd5000 	ldmeq	sp!, {ip, lr}^
     6c8:	09e40000 	stmibeq	r4!, {}^	; <UNPREDICTABLE>
     6cc:	00010000 	andeq	r0, r1, r0
     6d0:	0009e454 	andeq	lr, r9, r4, asr r4
     6d4:	0009e600 	andeq	lr, r9, r0, lsl #12
     6d8:	f3000400 	vshl.u8	d0, d0, d0
     6dc:	009f5001 	addseq	r5, pc, r1
     6e0:	00000000 	andeq	r0, r0, r0
     6e4:	c2000000 	andgt	r0, r0, #0
     6e8:	d5000008 	strle	r0, [r0, #-8]
     6ec:	01000008 	tsteq	r0, r8
     6f0:	08d55100 	ldmeq	r5, {r8, ip, lr}^
     6f4:	08d80000 	ldmeq	r8, {}^	; <UNPREDICTABLE>
     6f8:	00020000 	andeq	r0, r2, r0
     6fc:	08d8007d 	ldmeq	r8, {r0, r2, r3, r4, r5, r6}^
     700:	08e70000 	stmiaeq	r7!, {}^	; <UNPREDICTABLE>
     704:	00010000 	andeq	r0, r1, r0
     708:	0008e751 	andeq	lr, r8, r1, asr r7
     70c:	0008ea00 	andeq	lr, r8, r0, lsl #20
     710:	7d000200 	sfmvc	f0, 4, [r0, #-0]
     714:	0008ea00 	andeq	lr, r8, r0, lsl #20
     718:	0008f700 	andeq	pc, r8, r0, lsl #14
     71c:	51000100 	mrspl	r0, (UNDEF: 16)
     720:	000008f7 	strdeq	r0, [r0], -r7
     724:	000008fa 	strdeq	r0, [r0], -sl
     728:	007d0002 	rsbseq	r0, sp, r2
     72c:	000008fa 	strdeq	r0, [r0], -sl
     730:	000008fd 	strdeq	r0, [r0], -sp
     734:	fd510001 	ldc2l	0, cr0, [r1, #-4]
     738:	e4000008 	str	r0, [r0], #-8
     73c:	02000009 	andeq	r0, r0, #9
     740:	e4007d00 	str	r7, [r0], #-3328	; 0xfffff300
     744:	e6000009 	str	r0, [r0], -r9
     748:	02000009 	andeq	r0, r0, #9
     74c:	00589100 	subseq	r9, r8, r0, lsl #2
     750:	00000000 	andeq	r0, r0, r0
     754:	c2000000 	andgt	r0, r0, #0
     758:	d5000008 	strle	r0, [r0, #-8]
     75c:	01000008 	tsteq	r0, r8
     760:	08d55200 	ldmeq	r5, {r9, ip, lr}^
     764:	08d80000 	ldmeq	r8, {}^	; <UNPREDICTABLE>
     768:	00020000 	andeq	r0, r2, r0
     76c:	08d85c91 	ldmeq	r8, {r0, r4, r7, sl, fp, ip, lr}^
     770:	08e70000 	stmiaeq	r7!, {}^	; <UNPREDICTABLE>
     774:	00010000 	andeq	r0, r1, r0
     778:	0008e752 	andeq	lr, r8, r2, asr r7
     77c:	0008ea00 	andeq	lr, r8, r0, lsl #20
     780:	91000200 	mrsls	r0, R8_usr
     784:	0008ea5c 	andeq	lr, r8, ip, asr sl
     788:	0008f700 	andeq	pc, r8, r0, lsl #14
     78c:	52000100 	andpl	r0, r0, #0, 2
     790:	000008f7 	strdeq	r0, [r0], -r7
     794:	000008fa 	strdeq	r0, [r0], -sl
     798:	5c910002 	ldcpl	0, cr0, [r1], {2}
     79c:	000008fa 	strdeq	r0, [r0], -sl
     7a0:	000008fd 	strdeq	r0, [r0], -sp
     7a4:	fd520001 	ldc2l	0, cr0, [r2, #-4]
     7a8:	3c000008 	stccc	0, cr0, [r0], {8}
     7ac:	02000009 	andeq	r0, r0, #9
     7b0:	3c5c9100 	ldfccp	f1, [ip], {-0}
     7b4:	41000009 	tstmi	r0, r9
     7b8:	02000009 	andeq	r0, r0, #9
     7bc:	41007100 	mrsmi	r7, (UNDEF: 16)
     7c0:	e6000009 	str	r0, [r0], -r9
     7c4:	02000009 	andeq	r0, r0, #9
     7c8:	005c9100 	subseq	r9, ip, r0, lsl #2
     7cc:	00000000 	andeq	r0, r0, r0
     7d0:	c2000000 	andgt	r0, r0, #0
     7d4:	d5000008 	strle	r0, [r0, #-8]
     7d8:	01000008 	tsteq	r0, r8
     7dc:	08d55300 	ldmeq	r5, {r8, r9, ip, lr}^
     7e0:	08d80000 	ldmeq	r8, {}^	; <UNPREDICTABLE>
     7e4:	00010000 	andeq	r0, r1, r0
     7e8:	0008d855 	andeq	sp, r8, r5, asr r8
     7ec:	0008da00 	andeq	sp, r8, r0, lsl #20
     7f0:	53000100 	movwpl	r0, #256	; 0x100
     7f4:	000008da 	ldrdeq	r0, [r0], -sl
     7f8:	000009e4 	andeq	r0, r0, r4, ror #19
     7fc:	e4550001 	ldrb	r0, [r5], #-1
     800:	e6000009 	str	r0, [r0], -r9
     804:	04000009 	streq	r0, [r0], #-9
     808:	5301f300 	movwpl	pc, #4864	; 0x1300	; <UNPREDICTABLE>
     80c:	0000009f 	muleq	r0, pc, r0	; <UNPREDICTABLE>
     810:	00000000 	andeq	r0, r0, r0
     814:	0008c200 	andeq	ip, r8, r0, lsl #4
     818:	00090c00 	andeq	r0, r9, r0, lsl #24
     81c:	30000200 	andcc	r0, r0, r0, lsl #4
     820:	00090c9f 	muleq	r9, pc, ip	; <UNPREDICTABLE>
     824:	00091600 	andeq	r1, r9, r0, lsl #12
     828:	57000100 	strpl	r0, [r0, -r0, lsl #2]
     82c:	00000916 	andeq	r0, r0, r6, lsl r9
     830:	00000970 	andeq	r0, r0, r0, ror r9
     834:	9f310002 	svcls	0x00310002
     838:	00000970 	andeq	r0, r0, r0, ror r9
     83c:	000009bc 			; <UNDEFINED> instruction: 0x000009bc
     840:	bc570001 	mrrclt	0, 0, r0, r7, cr1
     844:	dc000009 	stcle	0, cr0, [r0], {9}
     848:	02000009 	andeq	r0, r0, #9
     84c:	dc9f3100 	ldfles	f3, [pc], {0}
     850:	e2000009 	and	r0, r0, #9
     854:	02000009 	andeq	r0, r0, #9
     858:	009f3000 	addseq	r3, pc, r0
     85c:	00000000 	andeq	r0, r0, r0
     860:	8a000000 	bhi	868 <xQueueGenericReset+0x5a>
     864:	92000009 	andls	r0, r0, #9
     868:	01000009 	tsteq	r0, r9
     86c:	09a25000 	stmibeq	r2!, {ip, lr}
     870:	09a60000 	stmibeq	r6!, {}	; <UNPREDICTABLE>
     874:	00010000 	andeq	r0, r1, r0
     878:	00000050 	andeq	r0, r0, r0, asr r0
     87c:	00000000 	andeq	r0, r0, r0
     880:	0008c200 	andeq	ip, r8, r0, lsl #4
     884:	0008d500 	andeq	sp, r8, r0, lsl #10
     888:	50000100 	andpl	r0, r0, r0, lsl #2
     88c:	000008d5 	ldrdeq	r0, [r0], -r5
     890:	000008d8 	ldrdeq	r0, [r0], -r8
     894:	d8540001 	ldmdale	r4, {r0}^
     898:	e7000008 	str	r0, [r0, -r8]
     89c:	01000008 	tsteq	r0, r8
     8a0:	08e75000 	stmiaeq	r7!, {ip, lr}^
     8a4:	08ea0000 	stmiaeq	sl!, {}^	; <UNPREDICTABLE>
     8a8:	00010000 	andeq	r0, r1, r0
     8ac:	0008ea54 	andeq	lr, r8, r4, asr sl
     8b0:	0008f700 	andeq	pc, r8, r0, lsl #14
     8b4:	50000100 	andpl	r0, r0, r0, lsl #2
     8b8:	000008f7 	strdeq	r0, [r0], -r7
     8bc:	000008fa 	strdeq	r0, [r0], -sl
     8c0:	fa540001 	blx	15008cc <__exidx_end+0x14feb24>
     8c4:	fd000008 	stc2	0, cr0, [r0, #-32]	; 0xffffffe0
     8c8:	01000008 	tsteq	r0, r8
     8cc:	08fd5000 	ldmeq	sp!, {ip, lr}^
     8d0:	09e40000 	stmibeq	r4!, {}^	; <UNPREDICTABLE>
     8d4:	00010000 	andeq	r0, r1, r0
     8d8:	0009e454 	andeq	lr, r9, r4, asr r4
     8dc:	0009e600 	andeq	lr, r9, r0, lsl #12
     8e0:	f3000400 	vshl.u8	d0, d0, d0
     8e4:	009f5001 	addseq	r5, pc, r1
     8e8:	00000000 	andeq	r0, r0, r0
     8ec:	46000000 	strmi	r0, [r0], -r0
     8f0:	52000009 	andpl	r0, r0, #9
     8f4:	01000009 	tsteq	r0, r9
     8f8:	00005400 	andeq	r5, r0, r0, lsl #8
     8fc:	00000000 	andeq	r0, r0, r0
     900:	094e0000 	stmdbeq	lr, {}^	; <UNPREDICTABLE>
     904:	09520000 	ldmdbeq	r2, {}^	; <UNPREDICTABLE>
     908:	00090000 	andeq	r0, r9, r0
     90c:	00760077 	rsbseq	r0, r6, r7, ror r0
     910:	1aff0829 	bne	fffc29bc <__stack+0xdffbc9bc>
     914:	0000009f 	muleq	r0, pc, r0	; <UNPREDICTABLE>
	...
     924:	50000100 	andpl	r0, r0, r0, lsl #2
	...
     930:	01f30004 	mvnseq	r0, r4
     934:	00009f50 	andeq	r9, r0, r0, asr pc
	...
     944:	00010000 	andeq	r0, r1, r0
     948:	00000050 	andeq	r0, r0, r0, asr r0
     94c:	00000000 	andeq	r0, r0, r0
     950:	54000100 	strpl	r0, [r0], #-256	; 0xffffff00
	...
     95c:	00500001 	subseq	r0, r0, r1
     960:	00000000 	andeq	r0, r0, r0
     964:	01000000 	mrseq	r0, (UNDEF: 0)
     968:	00005400 	andeq	r5, r0, r0, lsl #8
     96c:	00000000 	andeq	r0, r0, r0
     970:	00010000 	andeq	r0, r1, r0
     974:	00000050 	andeq	r0, r0, r0, asr r0
	...
     984:	50000100 	andpl	r0, r0, r0, lsl #2
	...
     990:	00540001 	subseq	r0, r4, r1
     994:	00000000 	andeq	r0, r0, r0
     998:	01000000 	mrseq	r0, (UNDEF: 0)
     99c:	00005000 	andeq	r5, r0, r0
     9a0:	00000000 	andeq	r0, r0, r0
     9a4:	00010000 	andeq	r0, r1, r0
     9a8:	00000054 	andeq	r0, r0, r4, asr r0
     9ac:	00000000 	andeq	r0, r0, r0
     9b0:	f3000400 	vshl.u8	d0, d0, d0
     9b4:	009f5001 	addseq	r5, pc, r1
	...
     9c4:	01000000 	mrseq	r0, (UNDEF: 0)
     9c8:	00005500 	andeq	r5, r0, r0, lsl #10
     9cc:	00000000 	andeq	r0, r0, r0
     9d0:	00010000 	andeq	r0, r1, r0
     9d4:	00000050 	andeq	r0, r0, r0, asr r0
	...
     9e4:	50000100 	andpl	r0, r0, r0, lsl #2
	...
     9f0:	00540001 	subseq	r0, r4, r1
     9f4:	00000000 	andeq	r0, r0, r0
     9f8:	01000000 	mrseq	r0, (UNDEF: 0)
     9fc:	00005000 	andeq	r5, r0, r0
     a00:	00000000 	andeq	r0, r0, r0
     a04:	00010000 	andeq	r0, r1, r0
     a08:	00000054 	andeq	r0, r0, r4, asr r0
     a0c:	00000000 	andeq	r0, r0, r0
     a10:	f3000400 	vshl.u8	d0, d0, d0
     a14:	009f5001 	addseq	r5, pc, r1
     a18:	00000000 	andeq	r0, r0, r0
     a1c:	e6000000 	str	r0, [r0], -r0
     a20:	f7000009 			; <UNDEFINED> instruction: 0xf7000009
     a24:	01000009 	tsteq	r0, r9
     a28:	09f75000 	ldmibeq	r7!, {ip, lr}^
     a2c:	09fa0000 	ldmibeq	sl!, {}^	; <UNPREDICTABLE>
     a30:	00010000 	andeq	r0, r1, r0
     a34:	0009fa54 	andeq	pc, r9, r4, asr sl	; <UNPREDICTABLE>
     a38:	000a0900 	andeq	r0, sl, r0, lsl #18
     a3c:	50000100 	andpl	r0, r0, r0, lsl #2
     a40:	00000a09 	andeq	r0, r0, r9, lsl #20
     a44:	00000a0c 	andeq	r0, r0, ip, lsl #20
     a48:	0c540001 	mrrceq	0, 0, r0, r4, cr1
     a4c:	1900000a 	stmdbne	r0, {r1, r3}
     a50:	0100000a 	tsteq	r0, sl
     a54:	0a195000 	beq	654a5c <__exidx_end+0x652cb4>
     a58:	0a1c0000 	beq	700a60 <__exidx_end+0x6fecb8>
     a5c:	00010000 	andeq	r0, r1, r0
     a60:	000a1c54 	andeq	r1, sl, r4, asr ip
     a64:	000a1f00 	andeq	r1, sl, r0, lsl #30
     a68:	50000100 	andpl	r0, r0, r0, lsl #2
     a6c:	00000a1f 	andeq	r0, r0, pc, lsl sl
     a70:	00000a6c 	andeq	r0, r0, ip, ror #20
     a74:	6c540001 	mrrcvs	0, 0, r0, r4, cr1
     a78:	6e00000a 	cdpvs	0, 0, cr0, cr0, cr10, {0}
     a7c:	0400000a 	streq	r0, [r0], #-10
     a80:	5001f300 	andpl	pc, r1, r0, lsl #6
     a84:	0000009f 	muleq	r0, pc, r0	; <UNPREDICTABLE>
     a88:	00000000 	andeq	r0, r0, r0
     a8c:	0009e600 	andeq	lr, r9, r0, lsl #12
     a90:	0009f700 	andeq	pc, r9, r0, lsl #14
     a94:	51000100 	mrspl	r0, (UNDEF: 16)
     a98:	000009f7 	strdeq	r0, [r0], -r7
     a9c:	000009fa 	strdeq	r0, [r0], -sl
     aa0:	007d0002 	rsbseq	r0, sp, r2
     aa4:	000009fa 	strdeq	r0, [r0], -sl
     aa8:	00000a09 	andeq	r0, r0, r9, lsl #20
     aac:	09510001 	ldmdbeq	r1, {r0}^
     ab0:	0c00000a 	stceq	0, cr0, [r0], {10}
     ab4:	0200000a 	andeq	r0, r0, #10
     ab8:	0c007d00 	stceq	13, cr7, [r0], {-0}
     abc:	1900000a 	stmdbne	r0, {r1, r3}
     ac0:	0100000a 	tsteq	r0, sl
     ac4:	0a195100 	beq	654ecc <__exidx_end+0x653124>
     ac8:	0a1c0000 	beq	700ad0 <__exidx_end+0x6fed28>
     acc:	00020000 	andeq	r0, r2, r0
     ad0:	0a1c007d 	beq	700ccc <__exidx_end+0x6fef24>
     ad4:	0a1f0000 	beq	7c0adc <__exidx_end+0x7bed34>
     ad8:	00010000 	andeq	r0, r1, r0
     adc:	000a1f51 	andeq	r1, sl, r1, asr pc
     ae0:	000a6e00 	andeq	r6, sl, r0, lsl #28
     ae4:	7d000200 	sfmvc	f0, 4, [r0, #-0]
	...
     af0:	0009e600 	andeq	lr, r9, r0, lsl #12
     af4:	0009f700 	andeq	pc, r9, r0, lsl #14
     af8:	52000100 	andpl	r0, r0, #0, 2
     afc:	000009f7 	strdeq	r0, [r0], -r7
     b00:	000009fa 	strdeq	r0, [r0], -sl
     b04:	fa570001 	blx	15c0b10 <__exidx_end+0x15bed68>
     b08:	09000009 	stmdbeq	r0, {r0, r3}
     b0c:	0100000a 	tsteq	r0, sl
     b10:	0a095200 	beq	255318 <__exidx_end+0x253570>
     b14:	0a0c0000 	beq	300b1c <__exidx_end+0x2fed74>
     b18:	00010000 	andeq	r0, r1, r0
     b1c:	000a0c57 	andeq	r0, sl, r7, asr ip
     b20:	000a1900 	andeq	r1, sl, r0, lsl #18
     b24:	52000100 	andpl	r0, r0, #0, 2
     b28:	00000a19 	andeq	r0, r0, r9, lsl sl
     b2c:	00000a1c 	andeq	r0, r0, ip, lsl sl
     b30:	1c570001 	mrrcne	0, 0, r0, r7, cr1
     b34:	1f00000a 	svcne	0x0000000a
     b38:	0100000a 	tsteq	r0, sl
     b3c:	0a1f5200 	beq	7d5344 <__exidx_end+0x7d359c>
     b40:	0a6c0000 	beq	1b00b48 <__exidx_end+0x1afeda0>
     b44:	00010000 	andeq	r0, r1, r0
     b48:	000a6c57 	andeq	r6, sl, r7, asr ip
     b4c:	000a6e00 	andeq	r6, sl, r0, lsl #28
     b50:	f3000400 	vshl.u8	d0, d0, d0
     b54:	009f5201 	addseq	r5, pc, r1, lsl #4
     b58:	00000000 	andeq	r0, r0, r0
     b5c:	e6000000 	str	r0, [r0], -r0
     b60:	f7000009 			; <UNDEFINED> instruction: 0xf7000009
     b64:	01000009 	tsteq	r0, r9
     b68:	09f75300 	ldmibeq	r7!, {r8, r9, ip, lr}^
     b6c:	09fa0000 	ldmibeq	sl!, {}^	; <UNPREDICTABLE>
     b70:	00010000 	andeq	r0, r1, r0
     b74:	0009fa56 	andeq	pc, r9, r6, asr sl	; <UNPREDICTABLE>
     b78:	0009fc00 	andeq	pc, r9, r0, lsl #24
     b7c:	53000100 	movwpl	r0, #256	; 0x100
     b80:	000009fc 	strdeq	r0, [r0], -ip
     b84:	00000a6c 	andeq	r0, r0, ip, ror #20
     b88:	6c560001 	mrrcvs	0, 0, r0, r6, cr1
     b8c:	6e00000a 	cdpvs	0, 0, cr0, cr0, cr10, {0}
     b90:	0400000a 	streq	r0, [r0], #-10
     b94:	5301f300 	movwpl	pc, #4864	; 0x1300	; <UNPREDICTABLE>
     b98:	0000009f 	muleq	r0, pc, r0	; <UNPREDICTABLE>
     b9c:	00000000 	andeq	r0, r0, r0
     ba0:	000a6400 	andeq	r6, sl, r0, lsl #8
     ba4:	000a6c00 	andeq	r6, sl, r0, lsl #24
     ba8:	55000100 	strpl	r0, [r0, #-256]	; 0xffffff00
     bac:	00000a6c 	andeq	r0, r0, ip, ror #20
     bb0:	00000a6e 	andeq	r0, r0, lr, ror #20
     bb4:	00500001 	subseq	r0, r0, r1
     bb8:	00000000 	andeq	r0, r0, r0
     bbc:	26000000 	strcs	r0, [r0], -r0
     bc0:	3600000a 	strcc	r0, [r0], -sl
     bc4:	0100000a 	tsteq	r0, sl
     bc8:	0a365000 	beq	d94bd0 <__exidx_end+0xd92e28>
     bcc:	0a6e0000 	beq	1b80bd4 <__exidx_end+0x1b7ee2c>
     bd0:	00020000 	andeq	r0, r2, r0
     bd4:	00006491 	muleq	r0, r1, r4
     bd8:	00000000 	andeq	r0, r0, r0
     bdc:	09e60000 	stmibeq	r6!, {}^	; <UNPREDICTABLE>
     be0:	09f70000 	ldmibeq	r7!, {}^	; <UNPREDICTABLE>
     be4:	00010000 	andeq	r0, r1, r0
     be8:	0009f750 	andeq	pc, r9, r0, asr r7	; <UNPREDICTABLE>
     bec:	0009fa00 	andeq	pc, r9, r0, lsl #20
     bf0:	54000100 	strpl	r0, [r0], #-256	; 0xffffff00
     bf4:	000009fa 	strdeq	r0, [r0], -sl
     bf8:	00000a09 	andeq	r0, r0, r9, lsl #20
     bfc:	09500001 	ldmdbeq	r0, {r0}^
     c00:	0c00000a 	stceq	0, cr0, [r0], {10}
     c04:	0100000a 	tsteq	r0, sl
     c08:	0a0c5400 	beq	315c10 <__exidx_end+0x313e68>
     c0c:	0a190000 	beq	640c14 <__exidx_end+0x63ee6c>
     c10:	00010000 	andeq	r0, r1, r0
     c14:	000a1950 	andeq	r1, sl, r0, asr r9
     c18:	000a1c00 	andeq	r1, sl, r0, lsl #24
     c1c:	54000100 	strpl	r0, [r0], #-256	; 0xffffff00
     c20:	00000a1c 	andeq	r0, r0, ip, lsl sl
     c24:	00000a1f 	andeq	r0, r0, pc, lsl sl
     c28:	1f500001 	svcne	0x00500001
     c2c:	6c00000a 	stcvs	0, cr0, [r0], {10}
     c30:	0100000a 	tsteq	r0, sl
     c34:	0a6c5400 	beq	1b15c3c <__exidx_end+0x1b13e94>
     c38:	0a6e0000 	beq	1b80c40 <__exidx_end+0x1b7ee98>
     c3c:	00040000 	andeq	r0, r4, r0
     c40:	9f5001f3 	svcls	0x005001f3
	...
     c54:	00500001 	subseq	r0, r0, r1
     c58:	00000000 	andeq	r0, r0, r0
     c5c:	01000000 	mrseq	r0, (UNDEF: 0)
     c60:	00005400 	andeq	r5, r0, r0, lsl #8
     c64:	00000000 	andeq	r0, r0, r0
     c68:	00010000 	andeq	r0, r1, r0
     c6c:	00000050 	andeq	r0, r0, r0, asr r0
     c70:	00000000 	andeq	r0, r0, r0
     c74:	54000100 	strpl	r0, [r0], #-256	; 0xffffff00
	...
     c80:	00500001 	subseq	r0, r0, r1
     c84:	00000000 	andeq	r0, r0, r0
     c88:	01000000 	mrseq	r0, (UNDEF: 0)
     c8c:	00005400 	andeq	r5, r0, r0, lsl #8
     c90:	00000000 	andeq	r0, r0, r0
     c94:	00040000 	andeq	r0, r4, r0
     c98:	9f5001f3 	svcls	0x005001f3
	...
     cac:	00510001 	subseq	r0, r1, r1
     cb0:	00000000 	andeq	r0, r0, r0
     cb4:	01000000 	mrseq	r0, (UNDEF: 0)
     cb8:	00005600 	andeq	r5, r0, r0, lsl #12
     cbc:	00000000 	andeq	r0, r0, r0
     cc0:	00010000 	andeq	r0, r1, r0
     cc4:	00000051 	andeq	r0, r0, r1, asr r0
     cc8:	00000000 	andeq	r0, r0, r0
     ccc:	56000100 	strpl	r0, [r0], -r0, lsl #2
	...
     cd8:	00510001 	subseq	r0, r1, r1
     cdc:	00000000 	andeq	r0, r0, r0
     ce0:	01000000 	mrseq	r0, (UNDEF: 0)
     ce4:	00005600 	andeq	r5, r0, r0, lsl #12
     ce8:	00000000 	andeq	r0, r0, r0
     cec:	00040000 	andeq	r0, r4, r0
     cf0:	9f5101f3 	svcls	0x005101f3
	...
     d04:	00550001 	subseq	r0, r5, r1
     d08:	00000000 	andeq	r0, r0, r0
     d0c:	01000000 	mrseq	r0, (UNDEF: 0)
     d10:	00005000 	andeq	r5, r0, r0
	...
     d20:	00010000 	andeq	r0, r1, r0
     d24:	00000050 	andeq	r0, r0, r0, asr r0
     d28:	00000000 	andeq	r0, r0, r0
     d2c:	57000100 	strpl	r0, [r0, -r0, lsl #2]
	...
     d38:	00500001 	subseq	r0, r0, r1
     d3c:	00000000 	andeq	r0, r0, r0
     d40:	01000000 	mrseq	r0, (UNDEF: 0)
     d44:	00005700 	andeq	r5, r0, r0, lsl #14
	...
     d54:	00010000 	andeq	r0, r1, r0
     d58:	00000050 	andeq	r0, r0, r0, asr r0
     d5c:	00000000 	andeq	r0, r0, r0
     d60:	54000100 	strpl	r0, [r0], #-256	; 0xffffff00
	...
     d6c:	00500001 	subseq	r0, r0, r1
     d70:	00000000 	andeq	r0, r0, r0
     d74:	01000000 	mrseq	r0, (UNDEF: 0)
     d78:	00005400 	andeq	r5, r0, r0, lsl #8
     d7c:	00000000 	andeq	r0, r0, r0
     d80:	00010000 	andeq	r0, r1, r0
     d84:	00000050 	andeq	r0, r0, r0, asr r0
     d88:	00000000 	andeq	r0, r0, r0
     d8c:	54000100 	strpl	r0, [r0], #-256	; 0xffffff00
	...
     d98:	01f30004 	mvnseq	r0, r4
     d9c:	00009f50 	andeq	r9, r0, r0, asr pc
     da0:	00000000 	andeq	r0, r0, r0
     da4:	0a6e0000 	beq	1b80dac <__exidx_end+0x1b7f004>
     da8:	0a810000 	beq	fe040db0 <__stack+0xde03adb0>
     dac:	00010000 	andeq	r0, r1, r0
     db0:	000a8150 	andeq	r8, sl, r0, asr r1
     db4:	000a8400 	andeq	r8, sl, r0, lsl #8
     db8:	54000100 	strpl	r0, [r0], #-256	; 0xffffff00
     dbc:	00000a84 	andeq	r0, r0, r4, lsl #21
     dc0:	00000a91 	muleq	r0, r1, sl
     dc4:	91500001 	cmpls	r0, r1
     dc8:	9400000a 	strls	r0, [r0], #-10
     dcc:	0100000a 	tsteq	r0, sl
     dd0:	0a945400 	beq	fe515dd8 <__stack+0xde50fdd8>
     dd4:	0a970000 	beq	fe5c0ddc <__stack+0xde5baddc>
     dd8:	00010000 	andeq	r0, r1, r0
     ddc:	000a9750 	andeq	r9, sl, r0, asr r7
     de0:	000bb200 	andeq	fp, fp, r0, lsl #4
     de4:	54000100 	strpl	r0, [r0], #-256	; 0xffffff00
     de8:	00000bb2 			; <UNDEFINED> instruction: 0x00000bb2
     dec:	00000bb4 			; <UNDEFINED> instruction: 0x00000bb4
     df0:	01f30004 	mvnseq	r0, r4
     df4:	00009f50 	andeq	r9, r0, r0, asr pc
     df8:	00000000 	andeq	r0, r0, r0
     dfc:	0a6e0000 	beq	1b80e04 <__exidx_end+0x1b7f05c>
     e00:	0a810000 	beq	fe040e08 <__stack+0xde03ae08>
     e04:	00010000 	andeq	r0, r1, r0
     e08:	000a8151 	andeq	r8, sl, r1, asr r1
     e0c:	000a8400 	andeq	r8, sl, r0, lsl #8
     e10:	57000100 	strpl	r0, [r0, -r0, lsl #2]
     e14:	00000a84 	andeq	r0, r0, r4, lsl #21
     e18:	00000a91 	muleq	r0, r1, sl
     e1c:	91510001 	cmpls	r1, r1
     e20:	9400000a 	strls	r0, [r0], #-10
     e24:	0100000a 	tsteq	r0, sl
     e28:	0a945700 	beq	fe516a30 <__stack+0xde510a30>
     e2c:	0a970000 	beq	fe5c0e34 <__stack+0xde5bae34>
     e30:	00010000 	andeq	r0, r1, r0
     e34:	000a9751 	andeq	r9, sl, r1, asr r7
     e38:	000bb200 	andeq	fp, fp, r0, lsl #4
     e3c:	57000100 	strpl	r0, [r0, -r0, lsl #2]
     e40:	00000bb2 			; <UNDEFINED> instruction: 0x00000bb2
     e44:	00000bb4 			; <UNDEFINED> instruction: 0x00000bb4
     e48:	01f30004 	mvnseq	r0, r4
     e4c:	00009f51 	andeq	r9, r0, r1, asr pc
     e50:	00000000 	andeq	r0, r0, r0
     e54:	0a6e0000 	beq	1b80e5c <__exidx_end+0x1b7f0b4>
     e58:	0a810000 	beq	fe040e60 <__stack+0xde03ae60>
     e5c:	00010000 	andeq	r0, r1, r0
     e60:	000a8152 	andeq	r8, sl, r2, asr r1
     e64:	000a8400 	andeq	r8, sl, r0, lsl #8
     e68:	91000200 	mrsls	r0, R8_usr
     e6c:	000a845c 	andeq	r8, sl, ip, asr r4
     e70:	000a9100 	andeq	r9, sl, r0, lsl #2
     e74:	52000100 	andpl	r0, r0, #0, 2
     e78:	00000a91 	muleq	r0, r1, sl
     e7c:	00000a94 	muleq	r0, r4, sl
     e80:	5c910002 	ldcpl	0, cr0, [r1], {2}
     e84:	00000a94 	muleq	r0, r4, sl
     e88:	00000a97 	muleq	r0, r7, sl
     e8c:	97520001 	ldrbls	r0, [r2, -r1]
     e90:	d600000a 	strle	r0, [r0], -sl
     e94:	0200000a 	andeq	r0, r0, #10
     e98:	d65c9100 	ldrble	r9, [ip], -r0, lsl #2
     e9c:	db00000a 	blle	ecc <vTaskStartScheduler+0x34>
     ea0:	0200000a 	andeq	r0, r0, #10
     ea4:	db007100 	blle	1d2ac <__exidx_end+0x1b504>
     ea8:	b400000a 	strlt	r0, [r0], #-10
     eac:	0200000b 	andeq	r0, r0, #11
     eb0:	005c9100 	subseq	r9, ip, r0, lsl #2
     eb4:	00000000 	andeq	r0, r0, r0
     eb8:	6e000000 	cdpvs	0, 0, cr0, cr0, cr0, {0}
     ebc:	8100000a 	tsthi	r0, sl
     ec0:	0100000a 	tsteq	r0, sl
     ec4:	0a815300 	beq	fe055acc <__stack+0xde04facc>
     ec8:	0a840000 	beq	fe100ed0 <__stack+0xde0faed0>
     ecc:	00020000 	andeq	r0, r2, r0
     ed0:	0a84007d 	beq	fe1010cc <__stack+0xde0fb0cc>
     ed4:	0a8a0000 	beq	fe280edc <__stack+0xde27aedc>
     ed8:	00010000 	andeq	r0, r1, r0
     edc:	000a8a53 	andeq	r8, sl, r3, asr sl
     ee0:	000bb200 	andeq	fp, fp, r0, lsl #4
     ee4:	7d000200 	sfmvc	f0, 4, [r0, #-0]
     ee8:	000bb200 	andeq	fp, fp, r0, lsl #4
     eec:	000bb400 	andeq	fp, fp, r0, lsl #8
     ef0:	91000200 	mrsls	r0, R8_usr
     ef4:	00000058 	andeq	r0, r0, r8, asr r0
     ef8:	00000000 	andeq	r0, r0, r0
     efc:	000a6e00 	andeq	r6, sl, r0, lsl #28
     f00:	000aa600 	andeq	sl, sl, r0, lsl #12
     f04:	30000200 	andcc	r0, r0, r0, lsl #4
     f08:	000aa69f 	muleq	sl, pc, r6	; <UNPREDICTABLE>
     f0c:	000ab000 	andeq	fp, sl, r0
     f10:	56000100 	strpl	r0, [r0], -r0, lsl #2
     f14:	00000ab0 			; <UNDEFINED> instruction: 0x00000ab0
     f18:	00000b1c 	andeq	r0, r0, ip, lsl fp
     f1c:	9f310002 	svcls	0x00310002
     f20:	00000b1c 	andeq	r0, r0, ip, lsl fp
     f24:	00000b8a 	andeq	r0, r0, sl, lsl #23
     f28:	8a560001 	bhi	1580f34 <__exidx_end+0x157f18c>
     f2c:	aa00000b 	bge	f60 <xTaskIncrementTick+0x44>
     f30:	0200000b 	andeq	r0, r0, #11
     f34:	aa9f3100 	bge	fe7cd33c <__stack+0xde7c733c>
     f38:	b000000b 	andlt	r0, r0, fp
     f3c:	0200000b 	andeq	r0, r0, #11
     f40:	009f3000 	addseq	r3, pc, r0
     f44:	00000000 	andeq	r0, r0, r0
     f48:	2c000000 	stccs	0, cr0, [r0], {-0}
     f4c:	7c00000b 	stcvc	0, cr0, [r0], {11}
     f50:	0100000b 	tsteq	r0, fp
     f54:	00005500 	andeq	r5, r0, r0, lsl #10
     f58:	00000000 	andeq	r0, r0, r0
     f5c:	0a6e0000 	beq	1b80f64 <__exidx_end+0x1b7f1bc>
     f60:	0a810000 	beq	fe040f68 <__stack+0xde03af68>
     f64:	00010000 	andeq	r0, r1, r0
     f68:	000a8150 	andeq	r8, sl, r0, asr r1
     f6c:	000a8400 	andeq	r8, sl, r0, lsl #8
     f70:	54000100 	strpl	r0, [r0], #-256	; 0xffffff00
     f74:	00000a84 	andeq	r0, r0, r4, lsl #21
     f78:	00000a91 	muleq	r0, r1, sl
     f7c:	91500001 	cmpls	r0, r1
     f80:	9400000a 	strls	r0, [r0], #-10
     f84:	0100000a 	tsteq	r0, sl
     f88:	0a945400 	beq	fe515f90 <__stack+0xde50ff90>
     f8c:	0a970000 	beq	fe5c0f94 <__stack+0xde5baf94>
     f90:	00010000 	andeq	r0, r1, r0
     f94:	000a9750 	andeq	r9, sl, r0, asr r7
     f98:	000bb200 	andeq	fp, fp, r0, lsl #4
     f9c:	54000100 	strpl	r0, [r0], #-256	; 0xffffff00
     fa0:	00000bb2 			; <UNDEFINED> instruction: 0x00000bb2
     fa4:	00000bb4 			; <UNDEFINED> instruction: 0x00000bb4
     fa8:	01f30004 	mvnseq	r0, r4
     fac:	00009f50 	andeq	r9, r0, r0, asr pc
     fb0:	00000000 	andeq	r0, r0, r0
     fb4:	0ae00000 	beq	ff800fbc <__stack+0xdf7fafbc>
     fb8:	0aea0000 	beq	ffa80fc0 <__stack+0xdfa7afc0>
     fbc:	00010000 	andeq	r0, r1, r0
     fc0:	00000054 	andeq	r0, r0, r4, asr r0
     fc4:	00000000 	andeq	r0, r0, r0
     fc8:	000ae600 	andeq	lr, sl, r0, lsl #12
     fcc:	000aea00 	andeq	lr, sl, r0, lsl #20
     fd0:	75000800 	strvc	r0, [r0, #-2048]	; 0xfffff800
     fd4:	08293000 	stmdaeq	r9!, {ip, sp}
     fd8:	009f1aff 			; <UNDEFINED> instruction: 0x009f1aff
	...
     fe8:	01000000 	mrseq	r0, (UNDEF: 0)
     fec:	00005000 	andeq	r5, r0, r0
     ff0:	00000000 	andeq	r0, r0, r0
     ff4:	00010000 	andeq	r0, r1, r0
     ff8:	00000054 	andeq	r0, r0, r4, asr r0
     ffc:	00000000 	andeq	r0, r0, r0
    1000:	50000100 	andpl	r0, r0, r0, lsl #2
	...
    100c:	00540001 	subseq	r0, r4, r1
    1010:	00000000 	andeq	r0, r0, r0
    1014:	04000000 	streq	r0, [r0], #-0
    1018:	5001f300 	andpl	pc, r1, r0, lsl #6
    101c:	0000009f 	muleq	r0, pc, r0	; <UNPREDICTABLE>
	...
    102c:	51000100 	mrspl	r0, (UNDEF: 16)
	...
    1038:	00550001 	subseq	r0, r5, r1
    103c:	00000000 	andeq	r0, r0, r0
    1040:	01000000 	mrseq	r0, (UNDEF: 0)
    1044:	00005100 	andeq	r5, r0, r0, lsl #2
    1048:	00000000 	andeq	r0, r0, r0
    104c:	00010000 	andeq	r0, r1, r0
    1050:	00000055 	andeq	r0, r0, r5, asr r0
    1054:	00000000 	andeq	r0, r0, r0
    1058:	f3000400 	vshl.u8	d0, d0, d0
    105c:	009f5101 	addseq	r5, pc, r1, lsl #2
	...
    106c:	02000000 	andeq	r0, r0, #0
    1070:	009f3100 	addseq	r3, pc, r0, lsl #2
    1074:	00000000 	andeq	r0, r0, r0
    1078:	01000000 	mrseq	r0, (UNDEF: 0)
    107c:	00005000 	andeq	r5, r0, r0
	...
    108c:	00010000 	andeq	r0, r1, r0
    1090:	00000050 	andeq	r0, r0, r0, asr r0
    1094:	00000000 	andeq	r0, r0, r0
    1098:	54000100 	strpl	r0, [r0], #-256	; 0xffffff00
	...
    10a4:	00500001 	subseq	r0, r0, r1
    10a8:	00000000 	andeq	r0, r0, r0
    10ac:	01000000 	mrseq	r0, (UNDEF: 0)
    10b0:	00005400 	andeq	r5, r0, r0, lsl #8
    10b4:	00000000 	andeq	r0, r0, r0
    10b8:	00040000 	andeq	r0, r4, r0
    10bc:	9f5001f3 	svcls	0x005001f3
	...
    10d0:	00500001 	subseq	r0, r0, r1
    10d4:	00000000 	andeq	r0, r0, r0
    10d8:	01000000 	mrseq	r0, (UNDEF: 0)
    10dc:	00005400 	andeq	r5, r0, r0, lsl #8
    10e0:	00000000 	andeq	r0, r0, r0
    10e4:	00010000 	andeq	r0, r1, r0
    10e8:	00000050 	andeq	r0, r0, r0, asr r0
    10ec:	00000000 	andeq	r0, r0, r0
    10f0:	54000100 	strpl	r0, [r0], #-256	; 0xffffff00
	...
    10fc:	00500001 	subseq	r0, r0, r1
    1100:	00000000 	andeq	r0, r0, r0
    1104:	01000000 	mrseq	r0, (UNDEF: 0)
    1108:	00005400 	andeq	r5, r0, r0, lsl #8
    110c:	00000000 	andeq	r0, r0, r0
    1110:	00040000 	andeq	r0, r4, r0
    1114:	9f5001f3 	svcls	0x005001f3
	...
    1120:	00540001 	subseq	r0, r4, r1
    1124:	00000000 	andeq	r0, r0, r0
    1128:	04000000 	streq	r0, [r0], #-0
    112c:	5001f300 	andpl	pc, r1, r0, lsl #6
    1130:	0000009f 	muleq	r0, pc, r0	; <UNPREDICTABLE>
    1134:	00000000 	andeq	r0, r0, r0
    1138:	54000100 	strpl	r0, [r0], #-256	; 0xffffff00
	...
    1144:	01f30004 	mvnseq	r0, r4
    1148:	00009f50 	andeq	r9, r0, r0, asr pc
	...
    1158:	00010000 	andeq	r0, r1, r0
    115c:	00000051 	andeq	r0, r0, r1, asr r0
    1160:	00000000 	andeq	r0, r0, r0
    1164:	55000100 	strpl	r0, [r0, #-256]	; 0xffffff00
	...
    1170:	00510001 	subseq	r0, r1, r1
    1174:	00000000 	andeq	r0, r0, r0
    1178:	01000000 	mrseq	r0, (UNDEF: 0)
    117c:	00005500 	andeq	r5, r0, r0, lsl #10
    1180:	00000000 	andeq	r0, r0, r0
    1184:	00010000 	andeq	r0, r1, r0
    1188:	00000051 	andeq	r0, r0, r1, asr r0
    118c:	00000000 	andeq	r0, r0, r0
    1190:	55000100 	strpl	r0, [r0, #-256]	; 0xffffff00
	...
    119c:	01f30004 	mvnseq	r0, r4
    11a0:	00009f51 	andeq	r9, r0, r1, asr pc
	...
    11b0:	00010000 	andeq	r0, r1, r0
    11b4:	00000052 	andeq	r0, r0, r2, asr r0
    11b8:	00000000 	andeq	r0, r0, r0
    11bc:	57000100 	strpl	r0, [r0, -r0, lsl #2]
	...
    11c8:	00520001 	subseq	r0, r2, r1
    11cc:	00000000 	andeq	r0, r0, r0
    11d0:	01000000 	mrseq	r0, (UNDEF: 0)
    11d4:	00005700 	andeq	r5, r0, r0, lsl #14
    11d8:	00000000 	andeq	r0, r0, r0
    11dc:	00010000 	andeq	r0, r1, r0
    11e0:	00000052 	andeq	r0, r0, r2, asr r0
    11e4:	00000000 	andeq	r0, r0, r0
    11e8:	57000100 	strpl	r0, [r0, -r0, lsl #2]
	...
    11f4:	01f30004 	mvnseq	r0, r4
    11f8:	00009f52 	andeq	r9, r0, r2, asr pc
	...
    1208:	00010000 	andeq	r0, r1, r0
    120c:	00000054 	andeq	r0, r0, r4, asr r0
    1210:	00000000 	andeq	r0, r0, r0
    1214:	50000100 	andpl	r0, r0, r0, lsl #2
	...
    1228:	00500001 	subseq	r0, r0, r1
    122c:	00000000 	andeq	r0, r0, r0
    1230:	01000000 	mrseq	r0, (UNDEF: 0)
    1234:	00005600 	andeq	r5, r0, r0, lsl #12
    1238:	00000000 	andeq	r0, r0, r0
    123c:	00010000 	andeq	r0, r1, r0
    1240:	00000050 	andeq	r0, r0, r0, asr r0
    1244:	00000000 	andeq	r0, r0, r0
    1248:	56000100 	strpl	r0, [r0], -r0, lsl #2
	...
    125c:	00500001 	subseq	r0, r0, r1
    1260:	00000000 	andeq	r0, r0, r0
    1264:	01000000 	mrseq	r0, (UNDEF: 0)
    1268:	00005400 	andeq	r5, r0, r0, lsl #8
    126c:	00000000 	andeq	r0, r0, r0
    1270:	00010000 	andeq	r0, r1, r0
    1274:	00000050 	andeq	r0, r0, r0, asr r0
    1278:	00000000 	andeq	r0, r0, r0
    127c:	54000100 	strpl	r0, [r0], #-256	; 0xffffff00
	...
    1288:	00500001 	subseq	r0, r0, r1
    128c:	00000000 	andeq	r0, r0, r0
    1290:	01000000 	mrseq	r0, (UNDEF: 0)
    1294:	00005400 	andeq	r5, r0, r0, lsl #8
    1298:	00000000 	andeq	r0, r0, r0
    129c:	00040000 	andeq	r0, r4, r0
    12a0:	9f5001f3 	svcls	0x005001f3
	...
    12ac:	00540001 	subseq	r0, r4, r1
    12b0:	00000000 	andeq	r0, r0, r0
    12b4:	04000000 	streq	r0, [r0], #-0
    12b8:	5001f300 	andpl	pc, r1, r0, lsl #6
    12bc:	0000009f 	muleq	r0, pc, r0	; <UNPREDICTABLE>
    12c0:	00000000 	andeq	r0, r0, r0
    12c4:	54000100 	strpl	r0, [r0], #-256	; 0xffffff00
	...
    12d0:	01f30004 	mvnseq	r0, r4
    12d4:	00009f50 	andeq	r9, r0, r0, asr pc
	...
    12e4:	00010000 	andeq	r0, r1, r0
    12e8:	00000050 	andeq	r0, r0, r0, asr r0
    12ec:	00000000 	andeq	r0, r0, r0
    12f0:	54000100 	strpl	r0, [r0], #-256	; 0xffffff00
	...
    12fc:	00500001 	subseq	r0, r0, r1
    1300:	00000000 	andeq	r0, r0, r0
    1304:	01000000 	mrseq	r0, (UNDEF: 0)
    1308:	00005400 	andeq	r5, r0, r0, lsl #8
    130c:	00000000 	andeq	r0, r0, r0
    1310:	00010000 	andeq	r0, r1, r0
    1314:	00000050 	andeq	r0, r0, r0, asr r0
    1318:	00000000 	andeq	r0, r0, r0
    131c:	54000100 	strpl	r0, [r0], #-256	; 0xffffff00
	...
    1328:	00500001 	subseq	r0, r0, r1
    132c:	00000000 	andeq	r0, r0, r0
    1330:	01000000 	mrseq	r0, (UNDEF: 0)
    1334:	00005400 	andeq	r5, r0, r0, lsl #8
    1338:	00000000 	andeq	r0, r0, r0
    133c:	00040000 	andeq	r0, r4, r0
    1340:	9f5001f3 	svcls	0x005001f3
	...
    1354:	00510001 	subseq	r0, r1, r1
    1358:	00000000 	andeq	r0, r0, r0
    135c:	01000000 	mrseq	r0, (UNDEF: 0)
    1360:	00005600 	andeq	r5, r0, r0, lsl #12
    1364:	00000000 	andeq	r0, r0, r0
    1368:	00010000 	andeq	r0, r1, r0
    136c:	00000051 	andeq	r0, r0, r1, asr r0
    1370:	00000000 	andeq	r0, r0, r0
    1374:	56000100 	strpl	r0, [r0], -r0, lsl #2
	...
    1380:	00510001 	subseq	r0, r1, r1
    1384:	00000000 	andeq	r0, r0, r0
    1388:	01000000 	mrseq	r0, (UNDEF: 0)
    138c:	00005600 	andeq	r5, r0, r0, lsl #12
    1390:	00000000 	andeq	r0, r0, r0
    1394:	00010000 	andeq	r0, r1, r0
    1398:	00000051 	andeq	r0, r0, r1, asr r0
    139c:	00000000 	andeq	r0, r0, r0
    13a0:	56000100 	strpl	r0, [r0], -r0, lsl #2
	...
    13ac:	01f30004 	mvnseq	r0, r4
    13b0:	00009f51 	andeq	r9, r0, r1, asr pc
	...
    13c0:	00020000 	andeq	r0, r2, r0
    13c4:	00009f31 	andeq	r9, r0, r1, lsr pc
    13c8:	00000000 	andeq	r0, r0, r0
    13cc:	00010000 	andeq	r0, r1, r0
    13d0:	00000055 	andeq	r0, r0, r5, asr r0
    13d4:	00000000 	andeq	r0, r0, r0
    13d8:	50000100 	andpl	r0, r0, r0, lsl #2
	...
    13ec:	00500001 	subseq	r0, r0, r1
    13f0:	00000000 	andeq	r0, r0, r0
    13f4:	01000000 	mrseq	r0, (UNDEF: 0)
    13f8:	00005700 	andeq	r5, r0, r0, lsl #14
	...
    1408:	00010000 	andeq	r0, r1, r0
    140c:	00000055 	andeq	r0, r0, r5, asr r0
	...
    141c:	50000100 	andpl	r0, r0, r0, lsl #2
	...
    1428:	00540001 	subseq	r0, r4, r1
    142c:	00000000 	andeq	r0, r0, r0
    1430:	01000000 	mrseq	r0, (UNDEF: 0)
    1434:	00005000 	andeq	r5, r0, r0
    1438:	00000000 	andeq	r0, r0, r0
    143c:	00010000 	andeq	r0, r1, r0
    1440:	00000054 	andeq	r0, r0, r4, asr r0
    1444:	00000000 	andeq	r0, r0, r0
    1448:	50000100 	andpl	r0, r0, r0, lsl #2
	...
    1454:	00540001 	subseq	r0, r4, r1
    1458:	00000000 	andeq	r0, r0, r0
    145c:	01000000 	mrseq	r0, (UNDEF: 0)
    1460:	00005000 	andeq	r5, r0, r0
    1464:	00000000 	andeq	r0, r0, r0
    1468:	00010000 	andeq	r0, r1, r0
    146c:	00000054 	andeq	r0, r0, r4, asr r0
    1470:	00000000 	andeq	r0, r0, r0
    1474:	f3000400 	vshl.u8	d0, d0, d0
    1478:	009f5001 	addseq	r5, pc, r1
	...
    1488:	01000000 	mrseq	r0, (UNDEF: 0)
    148c:	00005000 	andeq	r5, r0, r0
    1490:	00000000 	andeq	r0, r0, r0
    1494:	00010000 	andeq	r0, r1, r0
    1498:	00000054 	andeq	r0, r0, r4, asr r0
    149c:	00000000 	andeq	r0, r0, r0
    14a0:	50000100 	andpl	r0, r0, r0, lsl #2
	...
    14ac:	00540001 	subseq	r0, r4, r1
    14b0:	00000000 	andeq	r0, r0, r0
    14b4:	04000000 	streq	r0, [r0], #-0
    14b8:	5001f300 	andpl	pc, r1, r0, lsl #6
    14bc:	0000009f 	muleq	r0, pc, r0	; <UNPREDICTABLE>
	...
    14cc:	54000100 	strpl	r0, [r0], #-256	; 0xffffff00
	...
    14d8:	00500001 	subseq	r0, r0, r1
	...
    14e8:	01000000 	mrseq	r0, (UNDEF: 0)
    14ec:	00005000 	andeq	r5, r0, r0
    14f0:	00000000 	andeq	r0, r0, r0
    14f4:	00010000 	andeq	r0, r1, r0
    14f8:	00000055 	andeq	r0, r0, r5, asr r0
    14fc:	00000000 	andeq	r0, r0, r0
    1500:	50000100 	andpl	r0, r0, r0, lsl #2
	...
    150c:	00550001 	subseq	r0, r5, r1
    1510:	00000000 	andeq	r0, r0, r0
    1514:	04000000 	streq	r0, [r0], #-0
    1518:	5001f300 	andpl	pc, r1, r0, lsl #6
    151c:	0000009f 	muleq	r0, pc, r0	; <UNPREDICTABLE>
	...
    152c:	54000100 	strpl	r0, [r0], #-256	; 0xffffff00
	...
    1538:	00500001 	subseq	r0, r0, r1
	...
    1548:	01000000 	mrseq	r0, (UNDEF: 0)
    154c:	00005000 	andeq	r5, r0, r0
    1550:	00000000 	andeq	r0, r0, r0
    1554:	00010000 	andeq	r0, r1, r0
    1558:	00000055 	andeq	r0, r0, r5, asr r0
    155c:	00000000 	andeq	r0, r0, r0
    1560:	50000100 	andpl	r0, r0, r0, lsl #2
	...
    156c:	00550001 	subseq	r0, r5, r1
    1570:	00000000 	andeq	r0, r0, r0
    1574:	04000000 	streq	r0, [r0], #-0
    1578:	5001f300 	andpl	pc, r1, r0, lsl #6
    157c:	0000009f 	muleq	r0, pc, r0	; <UNPREDICTABLE>
	...
    158c:	50000100 	andpl	r0, r0, r0, lsl #2
	...
    1598:	01f30004 	mvnseq	r0, r4
    159c:	00009f50 	andeq	r9, r0, r0, asr pc
    15a0:	00000000 	andeq	r0, r0, r0
    15a4:	00010000 	andeq	r0, r1, r0
    15a8:	00000050 	andeq	r0, r0, r0, asr r0
    15ac:	00000000 	andeq	r0, r0, r0
    15b0:	f3000400 	vshl.u8	d0, d0, d0
    15b4:	009f5001 	addseq	r5, pc, r1
	...
    15c4:	01000000 	mrseq	r0, (UNDEF: 0)
    15c8:	00005000 	andeq	r5, r0, r0
    15cc:	00000000 	andeq	r0, r0, r0
    15d0:	00040000 	andeq	r0, r4, r0
    15d4:	9f5001f3 	svcls	0x005001f3
	...
    15e0:	00500001 	subseq	r0, r0, r1
    15e4:	00000000 	andeq	r0, r0, r0
    15e8:	04000000 	streq	r0, [r0], #-0
    15ec:	5001f300 	andpl	pc, r1, r0, lsl #6
    15f0:	0000009f 	muleq	r0, pc, r0	; <UNPREDICTABLE>
	...
    1600:	50000100 	andpl	r0, r0, r0, lsl #2
	...
    160c:	01f30004 	mvnseq	r0, r4
    1610:	00009f50 	andeq	r9, r0, r0, asr pc
    1614:	00000000 	andeq	r0, r0, r0
    1618:	00010000 	andeq	r0, r1, r0
    161c:	00000050 	andeq	r0, r0, r0, asr r0
    1620:	00000000 	andeq	r0, r0, r0
    1624:	f3000400 	vshl.u8	d0, d0, d0
    1628:	009f5001 	addseq	r5, pc, r1
	...
    1638:	01000000 	mrseq	r0, (UNDEF: 0)
    163c:	00005000 	andeq	r5, r0, r0
    1640:	00000000 	andeq	r0, r0, r0
    1644:	00040000 	andeq	r0, r4, r0
    1648:	9f5001f3 	svcls	0x005001f3
	...
    1654:	00500001 	subseq	r0, r0, r1
    1658:	00000000 	andeq	r0, r0, r0
    165c:	04000000 	streq	r0, [r0], #-0
    1660:	5001f300 	andpl	pc, r1, r0, lsl #6
    1664:	0000009f 	muleq	r0, pc, r0	; <UNPREDICTABLE>
	...
    1674:	70000800 	andvc	r0, r0, r0, lsl #16
    1678:	08293000 	stmdaeq	r9!, {ip, sp}
    167c:	009f1aff 			; <UNDEFINED> instruction: 0x009f1aff
	...
    168c:	01000000 	mrseq	r0, (UNDEF: 0)
    1690:	00005000 	andeq	r5, r0, r0
    1694:	00000000 	andeq	r0, r0, r0
    1698:	00040000 	andeq	r0, r4, r0
    169c:	9f5001f3 	svcls	0x005001f3
	...
    16a8:	00500001 	subseq	r0, r0, r1
    16ac:	00000000 	andeq	r0, r0, r0
    16b0:	04000000 	streq	r0, [r0], #-0
    16b4:	5001f300 	andpl	pc, r1, r0, lsl #6
    16b8:	0000009f 	muleq	r0, pc, r0	; <UNPREDICTABLE>
	...
    16c8:	73000900 	movwvc	r0, #2304	; 0x900
    16cc:	29007200 	stmdbcs	r0, {r9, ip, sp, lr}
    16d0:	9f1aff08 	svcls	0x001aff08
	...
    16dc:	01f3000d 	mvnseq	r0, sp
    16e0:	063c2350 			; <UNDEFINED> instruction: 0x063c2350
    16e4:	08290072 	stmdaeq	r9!, {r1, r4, r5, r6}
    16e8:	009f1aff 			; <UNDEFINED> instruction: 0x009f1aff
    16ec:	00000000 	andeq	r0, r0, r0
    16f0:	b4000000 	strlt	r0, [r0], #-0
    16f4:	bd00000b 	stclt	0, cr0, [r0, #-44]	; 0xffffffd4
    16f8:	0100000b 	tsteq	r0, fp
    16fc:	0bbd5000 	bleq	fef55704 <__stack+0xdef4f704>
    1700:	0bec0000 	bleq	ffb01708 <__stack+0xdfafb708>
    1704:	00010000 	andeq	r0, r1, r0
    1708:	000bec54 	andeq	lr, fp, r4, asr ip
    170c:	000bee00 	andeq	lr, fp, r0, lsl #28
    1710:	f3000400 	vshl.u8	d0, d0, d0
    1714:	009f5001 	addseq	r5, pc, r1
    1718:	00000000 	andeq	r0, r0, r0
    171c:	b4000000 	strlt	r0, [r0], #-0
    1720:	bd00000b 	stclt	0, cr0, [r0, #-44]	; 0xffffffd4
    1724:	0100000b 	tsteq	r0, fp
    1728:	0bbd5100 	bleq	fef55b30 <__stack+0xdef4fb30>
    172c:	0bec0000 	bleq	ffb01734 <__stack+0xdfafb734>
    1730:	00010000 	andeq	r0, r1, r0
    1734:	000bec55 	andeq	lr, fp, r5, asr ip
    1738:	000bee00 	andeq	lr, fp, r0, lsl #28
    173c:	f3000400 	vshl.u8	d0, d0, d0
    1740:	009f5101 	addseq	r5, pc, r1, lsl #2
    1744:	00000000 	andeq	r0, r0, r0
    1748:	b8000000 	stmdalt	r0, {}	; <UNPREDICTABLE>
    174c:	bd00000b 	stclt	0, cr0, [r0, #-44]	; 0xffffffd4
    1750:	0100000b 	tsteq	r0, fp
    1754:	0bbd5000 	bleq	fef5575c <__stack+0xdef4f75c>
    1758:	0bec0000 	bleq	ffb01760 <__stack+0xdfafb760>
    175c:	00010000 	andeq	r0, r1, r0
    1760:	000bec54 	andeq	lr, fp, r4, asr ip
    1764:	000bee00 	andeq	lr, fp, r0, lsl #28
    1768:	f3000400 	vshl.u8	d0, d0, d0
    176c:	009f5001 	addseq	r5, pc, r1
    1770:	00000000 	andeq	r0, r0, r0
    1774:	0c000000 	stceq	0, cr0, [r0], {-0}
    1778:	1c00000c 	stcne	0, cr0, [r0], {12}
    177c:	0100000c 	tsteq	r0, ip
    1780:	00005300 	andeq	r5, r0, r0, lsl #6
    1784:	00000000 	andeq	r0, r0, r0
    1788:	0c300000 	ldceq	0, cr0, [r0], #-0
    178c:	0c3c0000 	ldceq	0, cr0, [ip], #-0
    1790:	00010000 	andeq	r0, r1, r0
    1794:	000c3e53 	andeq	r3, ip, r3, asr lr
    1798:	000c4c00 	andeq	r4, ip, r0, lsl #24
    179c:	53000100 	movwpl	r0, #256	; 0x100
	...
    17a8:	00000c26 	andeq	r0, r0, r6, lsr #24
    17ac:	00000c40 	andeq	r0, r0, r0, asr #24
    17b0:	40520001 	subsmi	r0, r2, r1
    17b4:	4400000c 	strmi	r0, [r0], #-12
    17b8:	0200000c 	andeq	r0, r0, #12
    17bc:	00007100 	andeq	r7, r0, r0, lsl #2
    17c0:	00000000 	andeq	r0, r0, r0
    17c4:	52000000 	andpl	r0, r0, #0
    17c8:	7200000c 	andvc	r0, r0, #12
    17cc:	0100000c 	tsteq	r0, ip
    17d0:	0c725000 	ldcleq	0, cr5, [r2], #-0
    17d4:	0c760000 	ldcleq	0, cr0, [r6], #-0
    17d8:	00040000 	andeq	r0, r4, r0
    17dc:	9f5001f3 	svcls	0x005001f3
	...
    17e8:	00000c8c 	andeq	r0, r0, ip, lsl #25
    17ec:	00000c8e 	andeq	r0, r0, lr, lsl #25
    17f0:	0c720005 	ldcleq	0, cr0, [r2], #-20	; 0xffffffec
    17f4:	8e0c2306 	cdphi	3, 0, cr2, cr12, cr6, {0}
    17f8:	9000000c 	andls	r0, r0, ip
    17fc:	0200000c 	andeq	r0, r0, #12
    1800:	900c7200 	andls	r7, ip, r0, lsl #4
    1804:	9200000c 	andls	r0, r0, #12
    1808:	0100000c 	tsteq	r0, ip
    180c:	00005200 	andeq	r5, r0, r0, lsl #4
	...
    181c:	00010000 	andeq	r0, r1, r0
    1820:	00000050 	andeq	r0, r0, r0, asr r0
    1824:	00000000 	andeq	r0, r0, r0
    1828:	f3000400 	vshl.u8	d0, d0, d0
    182c:	009f5001 	addseq	r5, pc, r1
    1830:	00000000 	andeq	r0, r0, r0
    1834:	01000000 	mrseq	r0, (UNDEF: 0)
    1838:	00005000 	andeq	r5, r0, r0
    183c:	00000000 	andeq	r0, r0, r0
    1840:	00040000 	andeq	r0, r4, r0
    1844:	9f5001f3 	svcls	0x005001f3
	...
    1858:	9f300002 	svcls	0x00300002
	...
    186c:	00500001 	subseq	r0, r0, r1
    1870:	00000000 	andeq	r0, r0, r0
    1874:	04000000 	streq	r0, [r0], #-0
    1878:	5001f300 	andpl	pc, r1, r0, lsl #6
    187c:	0000009f 	muleq	r0, pc, r0	; <UNPREDICTABLE>
    1880:	00000000 	andeq	r0, r0, r0
    1884:	50000100 	andpl	r0, r0, r0, lsl #2
	...
    1890:	01f30004 	mvnseq	r0, r4
    1894:	00009f50 	andeq	r9, r0, r0, asr pc
	...
    18a4:	00010000 	andeq	r0, r1, r0
    18a8:	00000050 	andeq	r0, r0, r0, asr r0
    18ac:	00000000 	andeq	r0, r0, r0
    18b0:	f3000400 	vshl.u8	d0, d0, d0
    18b4:	009f5001 	addseq	r5, pc, r1
    18b8:	00000000 	andeq	r0, r0, r0
    18bc:	a0000000 	andge	r0, r0, r0
    18c0:	b600000c 	strlt	r0, [r0], -ip
    18c4:	0100000c 	tsteq	r0, ip
    18c8:	0cb65000 	ldceq	0, cr5, [r6]
    18cc:	0cc00000 	stcleq	0, cr0, [r0], {0}
    18d0:	00010000 	andeq	r0, r1, r0
    18d4:	000cc054 	andeq	ip, ip, r4, asr r0
    18d8:	000cc400 	andeq	ip, ip, r0, lsl #8
    18dc:	50000100 	andpl	r0, r0, r0, lsl #2
    18e0:	00000cc4 	andeq	r0, r0, r4, asr #25
    18e4:	00000cd6 	ldrdeq	r0, [r0], -r6
    18e8:	d6540001 	ldrble	r0, [r4], -r1
    18ec:	ec00000c 	stc	0, cr0, [r0], {12}
    18f0:	0400000c 	streq	r0, [r0], #-12
    18f4:	5001f300 	andpl	pc, r1, r0, lsl #6
    18f8:	0000009f 	muleq	r0, pc, r0	; <UNPREDICTABLE>
    18fc:	00000000 	andeq	r0, r0, r0
    1900:	000cb200 	andeq	fp, ip, r0, lsl #4
    1904:	000cb600 	andeq	fp, ip, r0, lsl #12
    1908:	50000100 	andpl	r0, r0, r0, lsl #2
    190c:	00000cb6 			; <UNDEFINED> instruction: 0x00000cb6
    1910:	00000cc0 	andeq	r0, r0, r0, asr #25
    1914:	00540001 	subseq	r0, r4, r1
    1918:	00000000 	andeq	r0, r0, r0
    191c:	ec000000 	stc	0, cr0, [r0], {-0}
    1920:	fd00000c 	stc2	0, cr0, [r0, #-48]	; 0xffffffd0
    1924:	0100000c 	tsteq	r0, ip
    1928:	0cfd5000 	ldcleq	0, cr5, [sp]
    192c:	0d000000 	stceq	0, cr0, [r0, #-0]
    1930:	00010000 	andeq	r0, r1, r0
    1934:	000d0056 	andeq	r0, sp, r6, asr r0
    1938:	000d0900 	andeq	r0, sp, r0, lsl #18
    193c:	50000100 	andpl	r0, r0, r0, lsl #2
    1940:	00000d09 	andeq	r0, r0, r9, lsl #26
    1944:	00000d0c 	andeq	r0, r0, ip, lsl #26
    1948:	0c560001 	mrrceq	0, 0, r0, r6, cr1
    194c:	1400000d 	strne	r0, [r0], #-13
    1950:	0100000d 	tsteq	r0, sp
    1954:	0d145000 	ldceq	0, cr5, [r4, #-0]
    1958:	0dbe0000 	ldceq	0, cr0, [lr]
    195c:	00010000 	andeq	r0, r1, r0
    1960:	000dbe56 	andeq	fp, sp, r6, asr lr
    1964:	000e5c00 	andeq	r5, lr, r0, lsl #24
    1968:	f3000400 	vshl.u8	d0, d0, d0
    196c:	5c9f5001 	ldcpl	0, cr5, [pc], {1}
    1970:	6000000e 	andvs	r0, r0, lr
    1974:	0100000e 	tsteq	r0, lr
    1978:	0e605600 	cdpeq	6, 6, cr5, cr0, cr0, {0}
    197c:	0e980000 	cdpeq	0, 9, cr0, cr8, cr0, {0}
    1980:	00040000 	andeq	r0, r4, r0
    1984:	9f5001f3 	svcls	0x005001f3
	...
    1990:	00000cec 	andeq	r0, r0, ip, ror #25
    1994:	00000cfd 	strdeq	r0, [r0], -sp
    1998:	fd510001 	ldc2l	0, cr0, [r1, #-4]
    199c:	0000000c 	andeq	r0, r0, ip
    19a0:	0200000d 	andeq	r0, r0, #13
    19a4:	00007d00 	andeq	r7, r0, r0, lsl #26
    19a8:	0900000d 	stmdbeq	r0, {r0, r2, r3}
    19ac:	0100000d 	tsteq	r0, sp
    19b0:	0d095100 	stfeqs	f5, [r9, #-0]
    19b4:	0d0c0000 	stceq	0, cr0, [ip, #-0]
    19b8:	00020000 	andeq	r0, r2, r0
    19bc:	0d0c007d 	stceq	0, cr0, [ip, #-500]	; 0xfffffe0c
    19c0:	0d170000 	ldceq	0, cr0, [r7, #-0]
    19c4:	00010000 	andeq	r0, r1, r0
    19c8:	000d1751 	andeq	r1, sp, r1, asr r7
    19cc:	000d7a00 	andeq	r7, sp, r0, lsl #20
    19d0:	7d000200 	sfmvc	f0, 4, [r0, #-0]
    19d4:	000d7a00 	andeq	r7, sp, r0, lsl #20
    19d8:	000e5c00 	andeq	r5, lr, r0, lsl #24
    19dc:	f3000400 	vshl.u8	d0, d0, d0
    19e0:	5c9f5101 	ldfpls	f5, [pc], {1}
    19e4:	6000000e 	andvs	r0, r0, lr
    19e8:	0200000e 	andeq	r0, r0, #14
    19ec:	60007d00 	andvs	r7, r0, r0, lsl #26
    19f0:	9800000e 	stmdals	r0, {r1, r2, r3}
    19f4:	0400000e 	streq	r0, [r0], #-14
    19f8:	5101f300 	mrspl	pc, SP_irq	; <UNPREDICTABLE>
    19fc:	0000009f 	muleq	r0, pc, r0	; <UNPREDICTABLE>
    1a00:	00000000 	andeq	r0, r0, r0
    1a04:	000cec00 	andeq	lr, ip, r0, lsl #24
    1a08:	000cfd00 	andeq	pc, ip, r0, lsl #26
    1a0c:	52000100 	andpl	r0, r0, #0, 2
    1a10:	00000cfd 	strdeq	r0, [r0], -sp
    1a14:	00000d00 	andeq	r0, r0, r0, lsl #26
    1a18:	01f30004 	mvnseq	r0, r4
    1a1c:	0d009f52 	stceq	15, cr9, [r0, #-328]	; 0xfffffeb8
    1a20:	0d090000 	stceq	0, cr0, [r9, #-0]
    1a24:	00010000 	andeq	r0, r1, r0
    1a28:	000d0952 	andeq	r0, sp, r2, asr r9
    1a2c:	000d0c00 	andeq	r0, sp, r0, lsl #24
    1a30:	f3000400 	vshl.u8	d0, d0, d0
    1a34:	0c9f5201 	lfmeq	f5, 4, [pc], {1}
    1a38:	1700000d 	strne	r0, [r0, -sp]
    1a3c:	0100000d 	tsteq	r0, sp
    1a40:	0d175200 	lfmeq	f5, 4, [r7, #-0]
    1a44:	0e980000 	cdpeq	0, 9, cr0, cr8, cr0, {0}
    1a48:	00040000 	andeq	r0, r4, r0
    1a4c:	9f5201f3 	svcls	0x005201f3
	...
    1a58:	00000cec 	andeq	r0, r0, ip, ror #25
    1a5c:	00000cfd 	strdeq	r0, [r0], -sp
    1a60:	fd530001 	ldc2l	0, cr0, [r3, #-4]
    1a64:	0000000c 	andeq	r0, r0, ip
    1a68:	0200000d 	andeq	r0, r0, #13
    1a6c:	00649100 	rsbeq	r9, r4, r0, lsl #2
    1a70:	0200000d 	andeq	r0, r0, #13
    1a74:	0100000d 	tsteq	r0, sp
    1a78:	0d025300 	stceq	3, cr5, [r2, #-0]
    1a7c:	0e980000 	cdpeq	0, 9, cr0, cr8, cr0, {0}
    1a80:	00020000 	andeq	r0, r2, r0
    1a84:	00006491 	muleq	r0, r1, r4
    1a88:	00000000 	andeq	r0, r0, r0
    1a8c:	0e3e0000 	cdpeq	0, 3, cr0, cr14, cr0, {0}
    1a90:	0e5c0000 	cdpeq	0, 5, cr0, cr12, cr0, {0}
    1a94:	00020000 	andeq	r0, r2, r0
    1a98:	0e5c9f31 	mrceq	15, 2, r9, cr12, cr1, {1}
    1a9c:	0e600000 	cdpeq	0, 6, cr0, cr0, cr0, {0}
    1aa0:	00030000 	andeq	r0, r3, r0
    1aa4:	009fff09 	addseq	pc, pc, r9, lsl #30
    1aa8:	00000000 	andeq	r0, r0, r0
    1aac:	36000000 	strcc	r0, [r0], -r0
    1ab0:	3a00000d 	bcc	1aec <exit+0x18>
    1ab4:	0900000d 	stmdbeq	r0, {r0, r2, r3}
    1ab8:	06307400 	ldrteq	r7, [r0], -r0, lsl #8
    1abc:	34220077 	strtcc	r0, [r2], #-119	; 0xffffff89
    1ac0:	0d3a9f1c 	ldceq	15, cr9, [sl, #-112]!	; 0xffffff90
    1ac4:	0d3c0000 	ldceq	0, cr0, [ip, #-0]
    1ac8:	00070000 	andeq	r0, r7, r0
    1acc:	77063074 	smlsdxvc	r6, r4, r0, r3
    1ad0:	409f2200 	addsmi	r2, pc, r0, lsl #4
    1ad4:	4400000d 	strmi	r0, [r0], #-13
    1ad8:	0100000d 	tsteq	r0, sp
    1adc:	0d4c5700 	stcleq	7, cr5, [ip, #-0]
    1ae0:	0dcc0000 	stcleq	0, cr0, [ip]
    1ae4:	00010000 	andeq	r0, r1, r0
    1ae8:	000e0857 	andeq	r0, lr, r7, asr r8
    1aec:	000e1c00 	andeq	r1, lr, r0, lsl #24
    1af0:	57000100 	strpl	r0, [r0, -r0, lsl #2]
	...
    1afc:	00000d0c 	andeq	r0, r0, ip, lsl #26
    1b00:	00000d36 	andeq	r0, r0, r6, lsr sp
    1b04:	08910002 	ldmeq	r1, {r1}
    1b08:	00000d44 	andeq	r0, r0, r4, asr #26
    1b0c:	00000d4c 	andeq	r0, r0, ip, asr #26
    1b10:	08910002 	ldmeq	r1, {r1}
	...
    1b1c:	00000d0c 	andeq	r0, r0, ip, lsl #26
    1b20:	00000d17 	andeq	r0, r0, r7, lsl sp
    1b24:	17520001 	ldrbne	r0, [r2, -r1]
    1b28:	2a00000d 	bcs	1b64 <free+0x4>
    1b2c:	0100000d 	tsteq	r0, sp
    1b30:	0d445700 	stcleq	7, cr5, [r4, #-0]
    1b34:	0d4c0000 	stcleq	0, cr0, [ip, #-0]
    1b38:	00010000 	andeq	r0, r1, r0
    1b3c:	00000057 	andeq	r0, r0, r7, asr r0
    1b40:	00000000 	andeq	r0, r0, r0
    1b44:	000d2600 	andeq	r2, sp, r0, lsl #12
    1b48:	000d3200 	andeq	r3, sp, r0, lsl #4
    1b4c:	50000100 	andpl	r0, r0, r0, lsl #2
    1b50:	00000d32 	andeq	r0, r0, r2, lsr sp
    1b54:	00000d36 	andeq	r0, r0, r6, lsr sp
    1b58:	44540001 	ldrbmi	r0, [r4], #-1
    1b5c:	4600000d 	strmi	r0, [r0], -sp
    1b60:	0100000d 	tsteq	r0, sp
    1b64:	0d465000 	stcleq	0, cr5, [r6, #-0]
    1b68:	0d4c0000 	stcleq	0, cr0, [ip, #-0]
    1b6c:	00010000 	andeq	r0, r1, r0
    1b70:	00000054 	andeq	r0, r0, r4, asr r0
    1b74:	00000000 	andeq	r0, r0, r0
    1b78:	000d1a00 	andeq	r1, sp, r0, lsl #20
    1b7c:	000d1e00 	andeq	r1, sp, r0, lsl #28
    1b80:	50000100 	andpl	r0, r0, r0, lsl #2
    1b84:	00000d1e 	andeq	r0, r0, lr, lsl sp
    1b88:	00000d36 	andeq	r0, r0, r6, lsr sp
    1b8c:	44550001 	ldrbmi	r0, [r5], #-1
    1b90:	4c00000d 	stcmi	0, cr0, [r0], {13}
    1b94:	0100000d 	tsteq	r0, sp
    1b98:	00005500 	andeq	r5, r0, r0, lsl #10
    1b9c:	00000000 	andeq	r0, r0, r0
    1ba0:	0d400000 	stcleq	0, cr0, [r0, #-0]
    1ba4:	0d440000 	stcleq	0, cr0, [r4, #-0]
    1ba8:	00020000 	andeq	r0, r2, r0
    1bac:	0d4c0c91 	stcleq	12, cr0, [ip, #-580]	; 0xfffffdbc
    1bb0:	0e5c0000 	cdpeq	0, 5, cr0, cr12, cr0, {0}
    1bb4:	00020000 	andeq	r0, r2, r0
    1bb8:	00000c91 	muleq	r0, r1, ip
    1bbc:	00000000 	andeq	r0, r0, r0
    1bc0:	0d400000 	stcleq	0, cr0, [r0, #-0]
    1bc4:	0d440000 	stcleq	0, cr0, [r4, #-0]
    1bc8:	00020000 	andeq	r0, r2, r0
    1bcc:	0d4c0091 	stcleq	0, cr0, [ip, #-580]	; 0xfffffdbc
    1bd0:	0d9c0000 	ldceq	0, cr0, [ip]
    1bd4:	00020000 	andeq	r0, r2, r0
    1bd8:	00000091 	muleq	r0, r1, r0
    1bdc:	00000000 	andeq	r0, r0, r0
    1be0:	0d400000 	stcleq	0, cr0, [r0, #-0]
    1be4:	0d440000 	stcleq	0, cr0, [r4, #-0]
    1be8:	00020000 	andeq	r0, r2, r0
    1bec:	0d4c007d 	stcleq	0, cr0, [ip, #-500]	; 0xfffffe0c
    1bf0:	0d7a0000 	ldcleq	0, cr0, [sl, #-0]
    1bf4:	00020000 	andeq	r0, r2, r0
    1bf8:	0000007d 	andeq	r0, r0, sp, ror r0
    1bfc:	00000000 	andeq	r0, r0, r0
    1c00:	0d400000 	stcleq	0, cr0, [r0, #-0]
    1c04:	0d440000 	stcleq	0, cr0, [r4, #-0]
    1c08:	00010000 	andeq	r0, r1, r0
    1c0c:	000d4c54 	andeq	r4, sp, r4, asr ip
    1c10:	000d9c00 	andeq	r9, sp, r0, lsl #24
    1c14:	54000100 	strpl	r0, [r0], #-256	; 0xffffff00
	...
    1c20:	00000d40 	andeq	r0, r0, r0, asr #26
    1c24:	00000d44 	andeq	r0, r0, r4, asr #26
    1c28:	9f300002 	svcls	0x00300002
    1c2c:	00000d4c 	andeq	r0, r0, ip, asr #26
    1c30:	00000d66 	andeq	r0, r0, r6, ror #26
    1c34:	00530001 	subseq	r0, r3, r1
	...
    1c44:	01000000 	mrseq	r0, (UNDEF: 0)
    1c48:	00005000 	andeq	r5, r0, r0
    1c4c:	00000000 	andeq	r0, r0, r0
    1c50:	00010000 	andeq	r0, r1, r0
    1c54:	00000054 	andeq	r0, r0, r4, asr r0
	...
    1c64:	54000100 	strpl	r0, [r0], #-256	; 0xffffff00
	...
    1c70:	7c750003 	ldclvc	0, cr0, [r5], #-12
    1c74:	0000009f 	muleq	r0, pc, r0	; <UNPREDICTABLE>
	...
    1c84:	50000100 	andpl	r0, r0, r0, lsl #2
	...
    1c90:	00540001 	subseq	r0, r4, r1
	...
    1ca0:	01000000 	mrseq	r0, (UNDEF: 0)
    1ca4:	00005400 	andeq	r5, r0, r0, lsl #8
	...
    1cb4:	00010000 	andeq	r0, r1, r0
    1cb8:	00000054 	andeq	r0, r0, r4, asr r0
    1cbc:	00000000 	andeq	r0, r0, r0
    1cc0:	50000100 	andpl	r0, r0, r0, lsl #2
	...
    1cd4:	00500001 	subseq	r0, r0, r1
    1cd8:	00000000 	andeq	r0, r0, r0
    1cdc:	01000000 	mrseq	r0, (UNDEF: 0)
    1ce0:	00005400 	andeq	r5, r0, r0, lsl #8
	...
    1cf0:	00010000 	andeq	r0, r1, r0
    1cf4:	00000054 	andeq	r0, r0, r4, asr r0
	...
    1d04:	54000100 	strpl	r0, [r0], #-256	; 0xffffff00
	...
    1d10:	00500001 	subseq	r0, r0, r1
	...
    1d20:	01000000 	mrseq	r0, (UNDEF: 0)
    1d24:	00005000 	andeq	r5, r0, r0
	...
    1d34:	00010000 	andeq	r0, r1, r0
    1d38:	00000050 	andeq	r0, r0, r0, asr r0
    1d3c:	00000000 	andeq	r0, r0, r0
    1d40:	54000100 	strpl	r0, [r0], #-256	; 0xffffff00
	...
    1d4c:	00500001 	subseq	r0, r0, r1
    1d50:	00000000 	andeq	r0, r0, r0
    1d54:	01000000 	mrseq	r0, (UNDEF: 0)
    1d58:	00005400 	andeq	r5, r0, r0, lsl #8
	...
    1d68:	00010000 	andeq	r0, r1, r0
    1d6c:	00000051 	andeq	r0, r0, r1, asr r0
    1d70:	00000000 	andeq	r0, r0, r0
    1d74:	55000100 	strpl	r0, [r0, #-256]	; 0xffffff00
	...
    1d80:	00510001 	subseq	r0, r1, r1
    1d84:	00000000 	andeq	r0, r0, r0
    1d88:	01000000 	mrseq	r0, (UNDEF: 0)
    1d8c:	00005500 	andeq	r5, r0, r0, lsl #10
    1d90:	00000000 	andeq	r0, r0, r0
    1d94:	00030000 	andeq	r0, r3, r0
    1d98:	0000c074 	andeq	ip, r0, r4, ror r0
    1d9c:	00000000 	andeq	r0, r0, r0
    1da0:	04000000 	streq	r0, [r0], #-0
    1da4:	5101f300 	mrspl	pc, SP_irq	; <UNPREDICTABLE>
    1da8:	0000009f 	muleq	r0, pc, r0	; <UNPREDICTABLE>
	...
    1db8:	54000100 	strpl	r0, [r0], #-256	; 0xffffff00
	...
    1dcc:	00520001 	subseq	r0, r2, r1
	...
    1ddc:	01000000 	mrseq	r0, (UNDEF: 0)
    1de0:	00005100 	andeq	r5, r0, r0, lsl #2
	...
    1df0:	00020000 	andeq	r0, r2, r0
    1df4:	00009f30 	andeq	r9, r0, r0, lsr pc
    1df8:	00000000 	andeq	r0, r0, r0
    1dfc:	00010000 	andeq	r0, r1, r0
    1e00:	00000056 	andeq	r0, r0, r6, asr r0
	...
    1e10:	50000100 	andpl	r0, r0, r0, lsl #2
	...
    1e1c:	00540001 	subseq	r0, r4, r1
    1e20:	00000000 	andeq	r0, r0, r0
    1e24:	01000000 	mrseq	r0, (UNDEF: 0)
    1e28:	00005000 	andeq	r5, r0, r0
    1e2c:	00000000 	andeq	r0, r0, r0
    1e30:	00010000 	andeq	r0, r1, r0
    1e34:	00000054 	andeq	r0, r0, r4, asr r0
    1e38:	00000000 	andeq	r0, r0, r0
    1e3c:	f3000400 	vshl.u8	d0, d0, d0
    1e40:	009f5001 	addseq	r5, pc, r1
	...
    1e50:	01000000 	mrseq	r0, (UNDEF: 0)
    1e54:	00005000 	andeq	r5, r0, r0
    1e58:	00000000 	andeq	r0, r0, r0
    1e5c:	00010000 	andeq	r0, r1, r0
    1e60:	00000054 	andeq	r0, r0, r4, asr r0
    1e64:	00000000 	andeq	r0, r0, r0
    1e68:	50000100 	andpl	r0, r0, r0, lsl #2
	...
    1e74:	00540001 	subseq	r0, r4, r1
    1e78:	00000000 	andeq	r0, r0, r0
    1e7c:	04000000 	streq	r0, [r0], #-0
    1e80:	5001f300 	andpl	pc, r1, r0, lsl #6
    1e84:	0000009f 	muleq	r0, pc, r0	; <UNPREDICTABLE>
	...
    1e94:	50000100 	andpl	r0, r0, r0, lsl #2
	...
    1ea0:	00540001 	subseq	r0, r4, r1
    1ea4:	00000000 	andeq	r0, r0, r0
    1ea8:	01000000 	mrseq	r0, (UNDEF: 0)
    1eac:	00005000 	andeq	r5, r0, r0
    1eb0:	00000000 	andeq	r0, r0, r0
    1eb4:	00010000 	andeq	r0, r1, r0
    1eb8:	00000054 	andeq	r0, r0, r4, asr r0
    1ebc:	00000000 	andeq	r0, r0, r0
    1ec0:	f3000400 	vshl.u8	d0, d0, d0
    1ec4:	009f5001 	addseq	r5, pc, r1
	...
    1ed4:	02000000 	andeq	r0, r0, #0
    1ed8:	009f3000 	addseq	r3, pc, r0
    1edc:	00000000 	andeq	r0, r0, r0
    1ee0:	01000000 	mrseq	r0, (UNDEF: 0)
    1ee4:	00005500 	andeq	r5, r0, r0, lsl #10
    1ee8:	00000000 	andeq	r0, r0, r0
    1eec:	00020000 	andeq	r0, r2, r0
    1ef0:	00009f30 	andeq	r9, r0, r0, lsr pc
    1ef4:	00000000 	andeq	r0, r0, r0
    1ef8:	00010000 	andeq	r0, r1, r0
    1efc:	00000055 	andeq	r0, r0, r5, asr r0
    1f00:	00000000 	andeq	r0, r0, r0
    1f04:	50000100 	andpl	r0, r0, r0, lsl #2
	...
    1f18:	00500001 	subseq	r0, r0, r1
    1f1c:	00000000 	andeq	r0, r0, r0
    1f20:	01000000 	mrseq	r0, (UNDEF: 0)
    1f24:	00005400 	andeq	r5, r0, r0, lsl #8
    1f28:	00000000 	andeq	r0, r0, r0
    1f2c:	00010000 	andeq	r0, r1, r0
    1f30:	00000050 	andeq	r0, r0, r0, asr r0
    1f34:	00000000 	andeq	r0, r0, r0
    1f38:	54000100 	strpl	r0, [r0], #-256	; 0xffffff00
	...
    1f44:	01f30004 	mvnseq	r0, r4
    1f48:	00009f50 	andeq	r9, r0, r0, asr pc
	...
    1f58:	00010000 	andeq	r0, r1, r0
    1f5c:	00000050 	andeq	r0, r0, r0, asr r0
    1f60:	00000000 	andeq	r0, r0, r0
    1f64:	56000100 	strpl	r0, [r0], -r0, lsl #2
	...
    1f70:	00000eb4 			; <UNDEFINED> instruction: 0x00000eb4
    1f74:	00000ebb 			; <UNDEFINED> instruction: 0x00000ebb
    1f78:	bb500001 	bllt	1401f84 <__exidx_end+0x14001dc>
    1f7c:	be00000e 	cdplt	0, 0, cr0, cr0, cr14, {0}
    1f80:	0100000e 	tsteq	r0, lr
    1f84:	0ebe5500 	cdpeq	5, 11, cr5, cr14, cr0, {0}
    1f88:	0ec50000 	cdpeq	0, 12, cr0, cr5, cr0, {0}
    1f8c:	00010000 	andeq	r0, r1, r0
    1f90:	000ec550 	andeq	ip, lr, r0, asr r5
    1f94:	000ed400 	andeq	sp, lr, r0, lsl #8
    1f98:	55000100 	strpl	r0, [r0, #-256]	; 0xffffff00
    1f9c:	00000ed4 	ldrdeq	r0, [r0], -r4
    1fa0:	00000edb 	ldrdeq	r0, [r0], -fp
    1fa4:	db500001 	blle	1401fb0 <__exidx_end+0x1400208>
    1fa8:	e000000e 	and	r0, r0, lr
    1fac:	0100000e 	tsteq	r0, lr
    1fb0:	00005500 	andeq	r5, r0, r0, lsl #10
    1fb4:	00000000 	andeq	r0, r0, r0
    1fb8:	0f0e0000 	svceq	0x000e0000
    1fbc:	0f140000 	svceq	0x00140000
    1fc0:	00010000 	andeq	r0, r1, r0
    1fc4:	000f1454 	andeq	r1, pc, r4, asr r4	; <UNPREDICTABLE>
    1fc8:	000f1c00 	andeq	r1, pc, r0, lsl #24
    1fcc:	50000100 	andpl	r0, r0, r0, lsl #2
	...
    1fe0:	00540001 	subseq	r0, r4, r1
    1fe4:	00000000 	andeq	r0, r0, r0
    1fe8:	01000000 	mrseq	r0, (UNDEF: 0)
    1fec:	00005000 	andeq	r5, r0, r0
	...
    1ffc:	00010000 	andeq	r0, r1, r0
    2000:	00000050 	andeq	r0, r0, r0, asr r0
    2004:	00000000 	andeq	r0, r0, r0
    2008:	000f7a00 	andeq	r7, pc, r0, lsl #20
    200c:	000f8000 	andeq	r8, pc, r0
    2010:	54000100 	strpl	r0, [r0], #-256	; 0xffffff00
    2014:	00000fae 	andeq	r0, r0, lr, lsr #31
    2018:	00000ff0 	strdeq	r0, [r0], -r0	; <UNPREDICTABLE>
    201c:	00540001 	subseq	r0, r4, r1
    2020:	00000000 	andeq	r0, r0, r0
    2024:	7c000000 	stcvc	0, cr0, [r0], {-0}
    2028:	8000000f 	andhi	r0, r0, pc
    202c:	0100000f 	tsteq	r0, pc
    2030:	0fae5300 	svceq	0x00ae5300
    2034:	0fb00000 	svceq	0x00b00000
    2038:	00010000 	andeq	r0, r1, r0
    203c:	000fb053 	andeq	fp, pc, r3, asr r0	; <UNPREDICTABLE>
    2040:	000fb700 	andeq	fp, pc, r0, lsl #14
    2044:	74000200 	strvc	r0, [r0], #-512	; 0xfffffe00
    2048:	00000004 	andeq	r0, r0, r4
    204c:	00000000 	andeq	r0, r0, r0
    2050:	000f1c00 	andeq	r1, pc, r0, lsl #24
    2054:	000f6400 	andeq	r6, pc, r0, lsl #8
    2058:	30000200 	andcc	r0, r0, r0, lsl #4
    205c:	000f649f 	muleq	pc, pc, r4	; <UNPREDICTABLE>
    2060:	000f9600 	andeq	r9, pc, r0, lsl #12
    2064:	55000100 	strpl	r0, [r0, #-256]	; 0xffffff00
    2068:	00000f98 	muleq	r0, r8, pc	; <UNPREDICTABLE>
    206c:	00000fa2 	andeq	r0, r0, r2, lsr #31
    2070:	9f300002 	svcls	0x00300002
    2074:	00000fa2 	andeq	r0, r0, r2, lsr #31
    2078:	00000fee 	andeq	r0, r0, lr, ror #31
    207c:	f0550001 			; <UNDEFINED> instruction: 0xf0550001
    2080:	f200000f 	vhadd.s8	d0, d0, d15
    2084:	0100000f 	tsteq	r0, pc
    2088:	0ff25500 	svceq	0x00f25500
    208c:	10200000 	eorne	r0, r0, r0
    2090:	00010000 	andeq	r0, r1, r0
    2094:	00000050 	andeq	r0, r0, r0, asr r0
    2098:	00000000 	andeq	r0, r0, r0
    209c:	000f3000 	andeq	r3, pc, r0
    20a0:	000f9800 	andeq	r9, pc, r0, lsl #16
    20a4:	57000100 	strpl	r0, [r0, -r0, lsl #2]
    20a8:	00000fae 	andeq	r0, r0, lr, lsr #31
    20ac:	00000ff0 	strdeq	r0, [r0], -r0	; <UNPREDICTABLE>
    20b0:	00570001 	subseq	r0, r7, r1
    20b4:	00000000 	andeq	r0, r0, r0
    20b8:	48000000 	stmdami	r0, {}	; <UNPREDICTABLE>
    20bc:	5900000f 	stmdbpl	r0, {r0, r1, r2, r3}
    20c0:	0100000f 	tsteq	r0, pc
    20c4:	00005100 	andeq	r5, r0, r0, lsl #2
    20c8:	00000000 	andeq	r0, r0, r0
    20cc:	105c0000 	subsne	r0, ip, r0
    20d0:	10960000 	addsne	r0, r6, r0
    20d4:	00010000 	andeq	r0, r1, r0
    20d8:	00000054 	andeq	r0, r0, r4, asr r0
    20dc:	00000000 	andeq	r0, r0, r0
    20e0:	00102000 	andseq	r2, r0, r0
    20e4:	0010a600 	andseq	sl, r0, r0, lsl #12
    20e8:	30000200 	andcc	r0, r0, r0, lsl #4
    20ec:	0010a69f 	mulseq	r0, pc, r6	; <UNPREDICTABLE>
    20f0:	0010ac00 	andseq	sl, r0, r0, lsl #24
    20f4:	31000200 	mrscc	r0, R8_usr
    20f8:	0010ac9f 	mulseq	r0, pc, ip	; <UNPREDICTABLE>
    20fc:	0010c800 	andseq	ip, r0, r0, lsl #16
    2100:	30000200 	andcc	r0, r0, r0, lsl #4
    2104:	0010c89f 	mulseq	r0, pc, r8	; <UNPREDICTABLE>
    2108:	0010ce00 	andseq	ip, r0, r0, lsl #28
    210c:	54000100 	strpl	r0, [r0], #-256	; 0xffffff00
    2110:	000010ce 	andeq	r1, r0, lr, asr #1
    2114:	000010f0 	strdeq	r1, [r0], -r0
    2118:	00500001 	subseq	r0, r0, r1
	...
    2128:	01000000 	mrseq	r0, (UNDEF: 0)
    212c:	00005000 	andeq	r5, r0, r0
    2130:	00000000 	andeq	r0, r0, r0
    2134:	00010000 	andeq	r0, r1, r0
    2138:	00000056 	andeq	r0, r0, r6, asr r0
    213c:	00000000 	andeq	r0, r0, r0
    2140:	50000100 	andpl	r0, r0, r0, lsl #2
	...
    214c:	00560001 	subseq	r0, r6, r1
    2150:	00000000 	andeq	r0, r0, r0
    2154:	01000000 	mrseq	r0, (UNDEF: 0)
    2158:	00005000 	andeq	r5, r0, r0
    215c:	00000000 	andeq	r0, r0, r0
    2160:	00010000 	andeq	r0, r1, r0
    2164:	00000056 	andeq	r0, r0, r6, asr r0
    2168:	00000000 	andeq	r0, r0, r0
    216c:	50000100 	andpl	r0, r0, r0, lsl #2
	...
    2178:	00560001 	subseq	r0, r6, r1
    217c:	00000000 	andeq	r0, r0, r0
    2180:	04000000 	streq	r0, [r0], #-0
    2184:	5001f300 	andpl	pc, r1, r0, lsl #6
    2188:	0000009f 	muleq	r0, pc, r0	; <UNPREDICTABLE>
	...
    2198:	51000100 	mrspl	r0, (UNDEF: 16)
	...
    21a4:	00540001 	subseq	r0, r4, r1
    21a8:	00000000 	andeq	r0, r0, r0
    21ac:	01000000 	mrseq	r0, (UNDEF: 0)
    21b0:	00005100 	andeq	r5, r0, r0, lsl #2
    21b4:	00000000 	andeq	r0, r0, r0
    21b8:	00010000 	andeq	r0, r1, r0
    21bc:	00000054 	andeq	r0, r0, r4, asr r0
    21c0:	00000000 	andeq	r0, r0, r0
    21c4:	51000100 	mrspl	r0, (UNDEF: 16)
	...
    21d0:	00540001 	subseq	r0, r4, r1
    21d4:	00000000 	andeq	r0, r0, r0
    21d8:	01000000 	mrseq	r0, (UNDEF: 0)
    21dc:	00005100 	andeq	r5, r0, r0, lsl #2
    21e0:	00000000 	andeq	r0, r0, r0
    21e4:	00010000 	andeq	r0, r1, r0
    21e8:	00000054 	andeq	r0, r0, r4, asr r0
    21ec:	00000000 	andeq	r0, r0, r0
    21f0:	f3000400 	vshl.u8	d0, d0, d0
    21f4:	009f5101 	addseq	r5, pc, r1, lsl #2
	...
    2204:	01000000 	mrseq	r0, (UNDEF: 0)
    2208:	00005400 	andeq	r5, r0, r0, lsl #8
	...
    2218:	00010000 	andeq	r0, r1, r0
    221c:	00000050 	andeq	r0, r0, r0, asr r0
	...
    222c:	30000200 	andcc	r0, r0, r0, lsl #4
    2230:	0000009f 	muleq	r0, pc, r0	; <UNPREDICTABLE>
	...
    2240:	52000100 	andpl	r0, r0, #0, 2
	...
    224c:	000010f0 	strdeq	r1, [r0], -r0
    2250:	000010f6 	strdeq	r1, [r0], -r6
    2254:	f6500001 			; <UNDEFINED> instruction: 0xf6500001
    2258:	fc000010 	stc2	0, cr0, [r0], {16}
    225c:	04000010 	streq	r0, [r0], #-16
    2260:	5001f300 	andpl	pc, r1, r0, lsl #6
    2264:	0010fc9f 	mulseq	r0, pc, ip	; <UNPREDICTABLE>
    2268:	00110700 	andseq	r0, r1, r0, lsl #14
    226c:	50000100 	andpl	r0, r0, r0, lsl #2
    2270:	00001107 	andeq	r1, r0, r7, lsl #2
    2274:	0000110a 	andeq	r1, r0, sl, lsl #2
    2278:	0a540001 	beq	1502284 <__exidx_end+0x15004dc>
    227c:	0d000011 	stceq	0, cr0, [r0, #-68]	; 0xffffffbc
    2280:	01000011 	tsteq	r0, r1, lsl r0
    2284:	110d5000 	mrsne	r5, (UNDEF: 13)
    2288:	11140000 	tstne	r4, r0
    228c:	00010000 	andeq	r0, r1, r0
    2290:	00111454 	andseq	r1, r1, r4, asr r4
    2294:	00113c00 	andseq	r3, r1, r0, lsl #24
    2298:	f3000400 	vshl.u8	d0, d0, d0
    229c:	009f5001 	addseq	r5, pc, r1
    22a0:	00000000 	andeq	r0, r0, r0
    22a4:	14000000 	strne	r0, [r0], #-0
    22a8:	2c000011 	stccs	0, cr0, [r0], {17}
    22ac:	01000011 	tsteq	r0, r1, lsl r0
    22b0:	00005400 	andeq	r5, r0, r0, lsl #8
    22b4:	00000000 	andeq	r0, r0, r0
    22b8:	10f00000 	rscsne	r0, r0, r0
    22bc:	10f60000 	rscsne	r0, r6, r0
    22c0:	00020000 	andeq	r0, r2, r0
    22c4:	10fc9f30 	rscsne	r9, ip, r0, lsr pc
    22c8:	11280000 			; <UNDEFINED> instruction: 0x11280000
    22cc:	00020000 	andeq	r0, r2, r0
    22d0:	11289f30 			; <UNDEFINED> instruction: 0x11289f30
    22d4:	112c0000 			; <UNDEFINED> instruction: 0x112c0000
    22d8:	00010000 	andeq	r0, r1, r0
    22dc:	00000050 	andeq	r0, r0, r0, asr r0
    22e0:	00000000 	andeq	r0, r0, r0
    22e4:	00113c00 	andseq	r3, r1, r0, lsl #24
    22e8:	00113e00 	andseq	r3, r1, r0, lsl #28
    22ec:	50000100 	andpl	r0, r0, r0, lsl #2
    22f0:	0000113e 	andeq	r1, r0, lr, lsr r1
    22f4:	000011a4 	andeq	r1, r0, r4, lsr #3
    22f8:	01f30004 	mvnseq	r0, r4
    22fc:	00009f50 	andeq	r9, r0, r0, asr pc
    2300:	00000000 	andeq	r0, r0, r0
    2304:	114e0000 	mrsne	r0, (UNDEF: 78)
    2308:	11840000 	orrne	r0, r4, r0
    230c:	00080000 	andeq	r0, r8, r0
    2310:	29300076 	ldmdbcs	r0!, {r1, r2, r4, r5, r6}
    2314:	9f1aff08 	svcls	0x001aff08
	...
    2320:	0000115e 	andeq	r1, r0, lr, asr r1
    2324:	00001184 	andeq	r1, r0, r4, lsl #3
    2328:	00550001 	subseq	r0, r5, r1
    232c:	00000000 	andeq	r0, r0, r0
    2330:	76000000 	strvc	r0, [r0], -r0
    2334:	84000011 	strhi	r0, [r0], #-17	; 0xffffffef
    2338:	01000011 	tsteq	r0, r1, lsl r0
    233c:	00005500 	andeq	r5, r0, r0, lsl #10
    2340:	00000000 	andeq	r0, r0, r0
    2344:	11e00000 	mvnne	r0, r0
    2348:	12040000 	andne	r0, r4, #0
    234c:	000b0000 	andeq	r0, fp, r0
    2350:	1e440074 	mcrne	0, 2, r0, cr4, cr4, {3}
    2354:	ffe19403 			; <UNDEFINED> instruction: 0xffe19403
    2358:	009f221f 	addseq	r2, pc, pc, lsl r2	; <UNPREDICTABLE>
	...
    2368:	01000000 	mrseq	r0, (UNDEF: 0)
    236c:	00005000 	andeq	r5, r0, r0
    2370:	00000000 	andeq	r0, r0, r0
    2374:	00010000 	andeq	r0, r1, r0
    2378:	00000054 	andeq	r0, r0, r4, asr r0
	...
    2388:	54000100 	strpl	r0, [r0], #-256	; 0xffffff00
	...
    2394:	7c770003 	ldclvc	0, cr0, [r7], #-12
    2398:	0000009f 	muleq	r0, pc, r0	; <UNPREDICTABLE>
    239c:	00000000 	andeq	r0, r0, r0
    23a0:	00121c00 	andseq	r1, r2, r0, lsl #24
    23a4:	00122700 	andseq	r2, r2, r0, lsl #14
    23a8:	50000100 	andpl	r0, r0, r0, lsl #2
    23ac:	00001227 	andeq	r1, r0, r7, lsr #4
    23b0:	0000122a 	andeq	r1, r0, sl, lsr #4
    23b4:	01f30004 	mvnseq	r0, r4
    23b8:	122a9f50 	eorne	r9, sl, #80, 30	; 0x140
    23bc:	12330000 	eorsne	r0, r3, #0
    23c0:	00010000 	andeq	r0, r1, r0
    23c4:	00123350 	andseq	r3, r2, r0, asr r3
    23c8:	00126400 	andseq	r6, r2, r0, lsl #8
    23cc:	f3000400 	vshl.u8	d0, d0, d0
    23d0:	009f5001 	addseq	r5, pc, r1
    23d4:	00000000 	andeq	r0, r0, r0
    23d8:	1c000000 	stcne	0, cr0, [r0], {-0}
    23dc:	27000012 	smladcs	r0, r2, r0, r0
    23e0:	01000012 	tsteq	r0, r2, lsl r0
    23e4:	12275100 	eorne	r5, r7, #0, 2
    23e8:	122a0000 	eorne	r0, sl, #0
    23ec:	00010000 	andeq	r0, r1, r0
    23f0:	00122a55 	andseq	r2, r2, r5, asr sl
    23f4:	00122e00 	andseq	r2, r2, r0, lsl #28
    23f8:	51000100 	mrspl	r0, (UNDEF: 16)
    23fc:	0000122e 	andeq	r1, r0, lr, lsr #4
    2400:	00001256 	andeq	r1, r0, r6, asr r2
    2404:	56550001 	ldrbpl	r0, [r5], -r1
    2408:	64000012 	strvs	r0, [r0], #-18	; 0xffffffee
    240c:	04000012 	streq	r0, [r0], #-18	; 0xffffffee
    2410:	5101f300 	mrspl	pc, SP_irq	; <UNPREDICTABLE>
    2414:	0000009f 	muleq	r0, pc, r0	; <UNPREDICTABLE>
    2418:	00000000 	andeq	r0, r0, r0
    241c:	00125000 	andseq	r5, r2, r0
    2420:	00125200 	andseq	r5, r2, r0, lsl #4
    2424:	75000600 	strvc	r0, [r0, #-1536]	; 0xfffffa00
    2428:	22007000 	andcs	r7, r0, #0
    242c:	0012529f 	mulseq	r2, pc, r2	; <UNPREDICTABLE>
    2430:	00125500 	andseq	r5, r2, r0, lsl #10
    2434:	50000100 	andpl	r0, r0, r0, lsl #2
	...
    2448:	00500001 	subseq	r0, r0, r1
    244c:	00000000 	andeq	r0, r0, r0
    2450:	04000000 	streq	r0, [r0], #-0
    2454:	5001f300 	andpl	pc, r1, r0, lsl #6
    2458:	0000009f 	muleq	r0, pc, r0	; <UNPREDICTABLE>
    245c:	00000000 	andeq	r0, r0, r0
    2460:	50000100 	andpl	r0, r0, r0, lsl #2
	...
    246c:	01f30004 	mvnseq	r0, r4
    2470:	00009f50 	andeq	r9, r0, r0, asr pc
    2474:	00000000 	andeq	r0, r0, r0
    2478:	00010000 	andeq	r0, r1, r0
    247c:	00000050 	andeq	r0, r0, r0, asr r0
    2480:	00000000 	andeq	r0, r0, r0
    2484:	f3000400 	vshl.u8	d0, d0, d0
    2488:	009f5001 	addseq	r5, pc, r1
	...
    2498:	01000000 	mrseq	r0, (UNDEF: 0)
    249c:	00005100 	andeq	r5, r0, r0, lsl #2
    24a0:	00000000 	andeq	r0, r0, r0
    24a4:	00040000 	andeq	r0, r4, r0
    24a8:	9f5101f3 	svcls	0x005101f3
	...
    24b4:	00510001 	subseq	r0, r1, r1
    24b8:	00000000 	andeq	r0, r0, r0
    24bc:	04000000 	streq	r0, [r0], #-0
    24c0:	5101f300 	mrspl	pc, SP_irq	; <UNPREDICTABLE>
    24c4:	0000009f 	muleq	r0, pc, r0	; <UNPREDICTABLE>
    24c8:	00000000 	andeq	r0, r0, r0
    24cc:	51000100 	mrspl	r0, (UNDEF: 16)
	...
    24d8:	01f30004 	mvnseq	r0, r4
    24dc:	00009f51 	andeq	r9, r0, r1, asr pc
	...
    24ec:	00010000 	andeq	r0, r1, r0
    24f0:	00000052 	andeq	r0, r0, r2, asr r0
    24f4:	00000000 	andeq	r0, r0, r0
    24f8:	55000100 	strpl	r0, [r0, #-256]	; 0xffffff00
	...
    2504:	00520001 	subseq	r0, r2, r1
    2508:	00000000 	andeq	r0, r0, r0
    250c:	01000000 	mrseq	r0, (UNDEF: 0)
    2510:	00005500 	andeq	r5, r0, r0, lsl #10
    2514:	00000000 	andeq	r0, r0, r0
    2518:	00010000 	andeq	r0, r1, r0
    251c:	00000052 	andeq	r0, r0, r2, asr r0
    2520:	00000000 	andeq	r0, r0, r0
    2524:	55000100 	strpl	r0, [r0, #-256]	; 0xffffff00
	...
    2530:	01f30004 	mvnseq	r0, r4
    2534:	00009f52 	andeq	r9, r0, r2, asr pc
	...
    2544:	00060000 	andeq	r0, r6, r0
    2548:	00700075 	rsbseq	r0, r0, r5, ror r0
    254c:	00009f22 	andeq	r9, r0, r2, lsr #30
    2550:	00000000 	andeq	r0, r0, r0
    2554:	00010000 	andeq	r0, r1, r0
    2558:	00000050 	andeq	r0, r0, r0, asr r0
    255c:	00000000 	andeq	r0, r0, r0
    2560:	00126400 	andseq	r6, r2, r0, lsl #8
    2564:	00126f00 	andseq	r6, r2, r0, lsl #30
    2568:	50000100 	andpl	r0, r0, r0, lsl #2
    256c:	0000126f 	andeq	r1, r0, pc, ror #4
    2570:	00001272 	andeq	r1, r0, r2, ror r2
    2574:	01f30004 	mvnseq	r0, r4
    2578:	12729f50 	rsbsne	r9, r2, #80, 30	; 0x140
    257c:	127b0000 	rsbsne	r0, fp, #0
    2580:	00010000 	andeq	r0, r1, r0
    2584:	00127b50 	andseq	r7, r2, r0, asr fp
    2588:	00129800 	andseq	r9, r2, r0, lsl #16
    258c:	f3000400 	vshl.u8	d0, d0, d0
    2590:	009f5001 	addseq	r5, pc, r1
    2594:	00000000 	andeq	r0, r0, r0
    2598:	64000000 	strvs	r0, [r0], #-0
    259c:	6f000012 	svcvs	0x00000012
    25a0:	01000012 	tsteq	r0, r2, lsl r0
    25a4:	126f5100 	rsbne	r5, pc, #0, 2
    25a8:	12720000 	rsbsne	r0, r2, #0
    25ac:	00010000 	andeq	r0, r1, r0
    25b0:	00127254 	andseq	r7, r2, r4, asr r2
    25b4:	00127600 	andseq	r7, r2, r0, lsl #12
    25b8:	51000100 	mrspl	r0, (UNDEF: 16)
    25bc:	00001276 	andeq	r1, r0, r6, ror r2
    25c0:	0000128e 	andeq	r1, r0, lr, lsl #5
    25c4:	8e540001 	cdphi	0, 5, cr0, cr4, cr1, {0}
    25c8:	98000012 	stmdals	r0, {r1, r4}
    25cc:	04000012 	streq	r0, [r0], #-18	; 0xffffffee
    25d0:	5101f300 	mrspl	pc, SP_irq	; <UNPREDICTABLE>
    25d4:	0000009f 	muleq	r0, pc, r0	; <UNPREDICTABLE>
    25d8:	00000000 	andeq	r0, r0, r0
    25dc:	00128800 	andseq	r8, r2, r0, lsl #16
    25e0:	00128a00 	andseq	r8, r2, r0, lsl #20
    25e4:	70000600 	andvc	r0, r0, r0, lsl #12
    25e8:	22007400 	andcs	r7, r0, #0, 8
    25ec:	00128a9f 	mulseq	r2, pc, sl	; <UNPREDICTABLE>
    25f0:	00128d00 	andseq	r8, r2, r0, lsl #26
    25f4:	50000100 	andpl	r0, r0, r0, lsl #2
	...
    2600:	00001298 	muleq	r0, r8, r2
    2604:	000012a5 	andeq	r1, r0, r5, lsr #5
    2608:	a5500001 	ldrbge	r0, [r0, #-1]
    260c:	a8000012 	stmdage	r0, {r1, r4}
    2610:	04000012 	streq	r0, [r0], #-18	; 0xffffffee
    2614:	5001f300 	andpl	pc, r1, r0, lsl #6
    2618:	0012a89f 	mulseq	r2, pc, r8	; <UNPREDICTABLE>
    261c:	0012ae00 	andseq	sl, r2, r0, lsl #28
    2620:	50000100 	andpl	r0, r0, r0, lsl #2
    2624:	000012ae 	andeq	r1, r0, lr, lsr #5
    2628:	00001310 	andeq	r1, r0, r0, lsl r3
    262c:	01f30004 	mvnseq	r0, r4
    2630:	00009f50 	andeq	r9, r0, r0, asr pc
    2634:	00000000 	andeq	r0, r0, r0
    2638:	129e0000 	addsne	r0, lr, #0
    263c:	12f60000 	rscsne	r0, r6, #0
    2640:	00010000 	andeq	r0, r1, r0
    2644:	00000054 	andeq	r0, r0, r4, asr r0
    2648:	00000000 	andeq	r0, r0, r0
    264c:	0012f000 	andseq	pc, r2, r0
    2650:	0012f600 	andseq	pc, r2, r0, lsl #12
    2654:	31000200 	mrscc	r0, R8_usr
    2658:	0012f69f 	mulseq	r2, pc, r6	; <UNPREDICTABLE>
    265c:	00131000 	andseq	r1, r3, r0
    2660:	50000100 	andpl	r0, r0, r0, lsl #2
	...
    2674:	00500001 	subseq	r0, r0, r1
    2678:	00000000 	andeq	r0, r0, r0
    267c:	04000000 	streq	r0, [r0], #-0
    2680:	5001f300 	andpl	pc, r1, r0, lsl #6
    2684:	0000009f 	muleq	r0, pc, r0	; <UNPREDICTABLE>
    2688:	00000000 	andeq	r0, r0, r0
    268c:	50000100 	andpl	r0, r0, r0, lsl #2
	...
    2698:	01f30004 	mvnseq	r0, r4
    269c:	00009f50 	andeq	r9, r0, r0, asr pc
    26a0:	00000000 	andeq	r0, r0, r0
    26a4:	00010000 	andeq	r0, r1, r0
    26a8:	00000050 	andeq	r0, r0, r0, asr r0
    26ac:	00000000 	andeq	r0, r0, r0
    26b0:	f3000400 	vshl.u8	d0, d0, d0
    26b4:	009f5001 	addseq	r5, pc, r1
	...
    26c4:	01000000 	mrseq	r0, (UNDEF: 0)
    26c8:	00005100 	andeq	r5, r0, r0, lsl #2
    26cc:	00000000 	andeq	r0, r0, r0
    26d0:	00040000 	andeq	r0, r4, r0
    26d4:	9f5101f3 	svcls	0x005101f3
	...
    26e0:	00510001 	subseq	r0, r1, r1
    26e4:	00000000 	andeq	r0, r0, r0
    26e8:	04000000 	streq	r0, [r0], #-0
    26ec:	5101f300 	mrspl	pc, SP_irq	; <UNPREDICTABLE>
    26f0:	0000009f 	muleq	r0, pc, r0	; <UNPREDICTABLE>
	...
    2700:	54000100 	strpl	r0, [r0], #-256	; 0xffffff00
	...
    270c:	7c750003 	ldclvc	0, cr0, [r5], #-12
    2710:	0000009f 	muleq	r0, pc, r0	; <UNPREDICTABLE>
	...
    2720:	31000200 	mrscc	r0, R8_usr
    2724:	0000009f 	muleq	r0, pc, r0	; <UNPREDICTABLE>
    2728:	00000000 	andeq	r0, r0, r0
    272c:	50000100 	andpl	r0, r0, r0, lsl #2
	...
    2738:	00001310 	andeq	r1, r0, r0, lsl r3
    273c:	00001319 	andeq	r1, r0, r9, lsl r3
    2740:	19500001 	ldmdbne	r0, {r0}^
    2744:	1c000013 	stcne	0, cr0, [r0], {19}
    2748:	04000013 	streq	r0, [r0], #-19	; 0xffffffed
    274c:	5001f300 	andpl	pc, r1, r0, lsl #6
    2750:	00131c9f 	mulseq	r3, pc, ip	; <UNPREDICTABLE>
    2754:	00133400 	andseq	r3, r3, r0, lsl #8
    2758:	50000100 	andpl	r0, r0, r0, lsl #2
	...
    2764:	00001334 	andeq	r1, r0, r4, lsr r3
    2768:	00001341 	andeq	r1, r0, r1, asr #6
    276c:	41500001 	cmpmi	r0, r1
    2770:	44000013 	strmi	r0, [r0], #-19	; 0xffffffed
    2774:	01000013 	tsteq	r0, r3, lsl r0
    2778:	13445400 	movtne	r5, #17408	; 0x4400
    277c:	134b0000 	movtne	r0, #45056	; 0xb000
    2780:	00010000 	andeq	r0, r1, r0
    2784:	00134b50 	andseq	r4, r3, r0, asr fp
    2788:	00134e00 	andseq	r4, r3, r0, lsl #28
    278c:	54000100 	strpl	r0, [r0], #-256	; 0xffffff00
    2790:	0000134e 	andeq	r1, r0, lr, asr #6
    2794:	00001351 	andeq	r1, r0, r1, asr r3
    2798:	51500001 	cmppl	r0, r1
    279c:	8c000013 	stchi	0, cr0, [r0], {19}
    27a0:	01000013 	tsteq	r0, r3, lsl r0
    27a4:	138c5400 	orrne	r5, ip, #0, 8
    27a8:	13980000 	orrsne	r0, r8, #0
    27ac:	00040000 	andeq	r0, r4, r0
    27b0:	9f5001f3 	svcls	0x005001f3
	...
    27bc:	00001334 	andeq	r1, r0, r4, lsr r3
    27c0:	00001341 	andeq	r1, r0, r1, asr #6
    27c4:	41510001 	cmpmi	r1, r1
    27c8:	44000013 	strmi	r0, [r0], #-19	; 0xffffffed
    27cc:	01000013 	tsteq	r0, r3, lsl r0
    27d0:	13445500 	movtne	r5, #17664	; 0x4500
    27d4:	134b0000 	movtne	r0, #45056	; 0xb000
    27d8:	00010000 	andeq	r0, r1, r0
    27dc:	00134b51 	andseq	r4, r3, r1, asr fp
    27e0:	00134e00 	andseq	r4, r3, r0, lsl #28
    27e4:	55000100 	strpl	r0, [r0, #-256]	; 0xffffff00
    27e8:	0000134e 	andeq	r1, r0, lr, asr #6
    27ec:	00001351 	andeq	r1, r0, r1, asr r3
    27f0:	51510001 	cmppl	r1, r1
    27f4:	8c000013 	stchi	0, cr0, [r0], {19}
    27f8:	01000013 	tsteq	r0, r3, lsl r0
    27fc:	138c5500 	orrne	r5, ip, #0, 10
    2800:	13980000 	orrsne	r0, r8, #0
    2804:	00040000 	andeq	r0, r4, r0
    2808:	9f5101f3 	svcls	0x005101f3
	...
    2814:	00001384 	andeq	r1, r0, r4, lsl #7
    2818:	00001386 	andeq	r1, r0, r6, lsl #7
    281c:	9f300002 	svcls	0x00300002
    2820:	00001386 	andeq	r1, r0, r6, lsl #7
    2824:	0000138c 	andeq	r1, r0, ip, lsl #7
    2828:	8c560001 	mrrchi	0, 0, r0, r6, cr1
    282c:	98000013 	stmdals	r0, {r0, r1, r4}
    2830:	01000013 	tsteq	r0, r3, lsl r0
    2834:	00005000 	andeq	r5, r0, r0
    2838:	00000000 	andeq	r0, r0, r0
    283c:	13580000 	cmpne	r8, #0
    2840:	13830000 	orrne	r0, r3, #0
    2844:	00010000 	andeq	r0, r1, r0
    2848:	00000051 	andeq	r0, r0, r1, asr r0
	...
    2858:	50000100 	andpl	r0, r0, r0, lsl #2
	...
    286c:	00500001 	subseq	r0, r0, r1
	...
    287c:	09000000 	stmdbeq	r0, {}	; <UNPREDICTABLE>
    2880:	32007000 	andcc	r7, r0, #0
    2884:	ffff0a25 			; <UNDEFINED> instruction: 0xffff0a25
    2888:	00009f1a 	andeq	r9, r0, sl, lsl pc
    288c:	00000000 	andeq	r0, r0, r0
    2890:	000c0000 	andeq	r0, ip, r0
    2894:	00720073 	rsbseq	r0, r2, r3, ror r0
    2898:	0a25321c 	beq	94f110 <__exidx_end+0x94d368>
    289c:	9f1affff 	svcls	0x001affff
	...
    28b0:	00520001 	subseq	r0, r2, r1
    28b4:	00000000 	andeq	r0, r0, r0
    28b8:	01000000 	mrseq	r0, (UNDEF: 0)
    28bc:	00005300 	andeq	r5, r0, r0, lsl #6
	...
    28cc:	00020000 	andeq	r0, r2, r0
    28d0:	00009f30 	andeq	r9, r0, r0, lsr pc
    28d4:	00000000 	andeq	r0, r0, r0
    28d8:	00010000 	andeq	r0, r1, r0
    28dc:	00000050 	andeq	r0, r0, r0, asr r0
    28e0:	00000000 	andeq	r0, r0, r0
    28e4:	73000600 	movwvc	r0, #1536	; 0x600
    28e8:	1c007200 	sfmne	f7, 4, [r0], {-0}
    28ec:	0000009f 	muleq	r0, pc, r0	; <UNPREDICTABLE>
    28f0:	00000000 	andeq	r0, r0, r0
    28f4:	0013c400 	andseq	ip, r3, r0, lsl #8
    28f8:	0013ec00 	andseq	lr, r3, r0, lsl #24
    28fc:	50000100 	andpl	r0, r0, r0, lsl #2
    2900:	000013ec 	andeq	r1, r0, ip, ror #7
    2904:	00001422 	andeq	r1, r0, r2, lsr #8
    2908:	22540001 	subscs	r0, r4, #1
    290c:	30000014 	andcc	r0, r0, r4, lsl r0
    2910:	04000014 	streq	r0, [r0], #-20	; 0xffffffec
    2914:	5001f300 	andpl	pc, r1, r0, lsl #6
    2918:	0000009f 	muleq	r0, pc, r0	; <UNPREDICTABLE>
    291c:	00000000 	andeq	r0, r0, r0
    2920:	0013c400 	andseq	ip, r3, r0, lsl #8
    2924:	0013ec00 	andseq	lr, r3, r0, lsl #24
    2928:	50000100 	andpl	r0, r0, r0, lsl #2
    292c:	000013ec 	andeq	r1, r0, ip, ror #7
    2930:	00001422 	andeq	r1, r0, r2, lsr #8
    2934:	22540001 	subscs	r0, r4, #1
    2938:	30000014 	andcc	r0, r0, r4, lsl r0
    293c:	04000014 	streq	r0, [r0], #-20	; 0xffffffec
    2940:	5001f300 	andpl	pc, r1, r0, lsl #6
    2944:	0000009f 	muleq	r0, pc, r0	; <UNPREDICTABLE>
    2948:	00000000 	andeq	r0, r0, r0
    294c:	00143000 	andseq	r3, r4, r0
    2950:	00143800 	andseq	r3, r4, r0, lsl #16
    2954:	50000100 	andpl	r0, r0, r0, lsl #2
    2958:	00001438 	andeq	r1, r0, r8, lsr r4
    295c:	0000143a 	andeq	r1, r0, sl, lsr r4
    2960:	3a540001 	bcc	150296c <__exidx_end+0x1500bc4>
    2964:	43000014 	movwmi	r0, #20
    2968:	01000014 	tsteq	r0, r4, lsl r0
    296c:	14435000 	strbne	r5, [r3], #-0
    2970:	14460000 	strbne	r0, [r6], #-0
    2974:	00010000 	andeq	r0, r1, r0
    2978:	00144654 	andseq	r4, r4, r4, asr r6
    297c:	00145a00 	andseq	r5, r4, r0, lsl #20
    2980:	50000100 	andpl	r0, r0, r0, lsl #2
    2984:	0000145a 	andeq	r1, r0, sl, asr r4
    2988:	00001482 	andeq	r1, r0, r2, lsl #9
    298c:	82540001 	subshi	r0, r4, #1
    2990:	8c000014 	stchi	0, cr0, [r0], {20}
    2994:	04000014 	streq	r0, [r0], #-20	; 0xffffffec
    2998:	5001f300 	andpl	pc, r1, r0, lsl #6
    299c:	0000009f 	muleq	r0, pc, r0	; <UNPREDICTABLE>
    29a0:	00000000 	andeq	r0, r0, r0
    29a4:	00143000 	andseq	r3, r4, r0
    29a8:	00143800 	andseq	r3, r4, r0, lsl #16
    29ac:	50000100 	andpl	r0, r0, r0, lsl #2
    29b0:	00001438 	andeq	r1, r0, r8, lsr r4
    29b4:	0000143a 	andeq	r1, r0, sl, lsr r4
    29b8:	3a540001 	bcc	15029c4 <__exidx_end+0x1500c1c>
    29bc:	43000014 	movwmi	r0, #20
    29c0:	01000014 	tsteq	r0, r4, lsl r0
    29c4:	14435000 	strbne	r5, [r3], #-0
    29c8:	14460000 	strbne	r0, [r6], #-0
    29cc:	00010000 	andeq	r0, r1, r0
    29d0:	00144654 	andseq	r4, r4, r4, asr r6
    29d4:	00145a00 	andseq	r5, r4, r0, lsl #20
    29d8:	50000100 	andpl	r0, r0, r0, lsl #2
    29dc:	0000145a 	andeq	r1, r0, sl, asr r4
    29e0:	00001482 	andeq	r1, r0, r2, lsl #9
    29e4:	82540001 	subshi	r0, r4, #1
    29e8:	8c000014 	stchi	0, cr0, [r0], {20}
    29ec:	04000014 	streq	r0, [r0], #-20	; 0xffffffec
    29f0:	5001f300 	andpl	pc, r1, r0, lsl #6
    29f4:	0000009f 	muleq	r0, pc, r0	; <UNPREDICTABLE>
    29f8:	00000000 	andeq	r0, r0, r0
    29fc:	00143000 	andseq	r3, r4, r0
    2a00:	00148000 	andseq	r8, r4, r0
    2a04:	30000200 	andcc	r0, r0, r0, lsl #4
    2a08:	0014809f 	mulseq	r4, pc, r0	; <UNPREDICTABLE>
    2a0c:	00148200 	andseq	r8, r4, r0, lsl #4
    2a10:	31000200 	mrscc	r0, R8_usr
    2a14:	0014829f 	mulseq	r4, pc, r2	; <UNPREDICTABLE>
    2a18:	00148c00 	andseq	r8, r4, r0, lsl #24
    2a1c:	50000100 	andpl	r0, r0, r0, lsl #2
	...
    2a30:	00500001 	subseq	r0, r0, r1
    2a34:	00000000 	andeq	r0, r0, r0
    2a38:	01000000 	mrseq	r0, (UNDEF: 0)
    2a3c:	00005600 	andeq	r5, r0, r0, lsl #12
    2a40:	00000000 	andeq	r0, r0, r0
    2a44:	00040000 	andeq	r0, r4, r0
    2a48:	9f5001f3 	svcls	0x005001f3
	...
    2a5c:	00510001 	subseq	r0, r1, r1
    2a60:	00000000 	andeq	r0, r0, r0
    2a64:	01000000 	mrseq	r0, (UNDEF: 0)
    2a68:	00005500 	andeq	r5, r0, r0, lsl #10
    2a6c:	00000000 	andeq	r0, r0, r0
    2a70:	00040000 	andeq	r0, r4, r0
    2a74:	9f5101f3 	svcls	0x005101f3
	...
    2a88:	00750006 	rsbseq	r0, r5, r6
    2a8c:	9f220070 	svcls	0x00220070
	...
    2a98:	00500001 	subseq	r0, r0, r1
	...
    2aa8:	01000000 	mrseq	r0, (UNDEF: 0)
    2aac:	00005500 	andeq	r5, r0, r0, lsl #10
    2ab0:	00000000 	andeq	r0, r0, r0
    2ab4:	00010000 	andeq	r0, r1, r0
    2ab8:	00000050 	andeq	r0, r0, r0, asr r0
	...
    2ac8:	50000100 	andpl	r0, r0, r0, lsl #2
	...
    2ad4:	64910002 	ldrvs	r0, [r1], #2
	...
    2ae8:	00510001 	subseq	r0, r1, r1
    2aec:	00000000 	andeq	r0, r0, r0
    2af0:	01000000 	mrseq	r0, (UNDEF: 0)
    2af4:	00005700 	andeq	r5, r0, r0, lsl #14
    2af8:	00000000 	andeq	r0, r0, r0
    2afc:	00040000 	andeq	r0, r4, r0
    2b00:	9f5101f3 	svcls	0x005101f3
	...
    2b14:	00520001 	subseq	r0, r2, r1
    2b18:	00000000 	andeq	r0, r0, r0
    2b1c:	01000000 	mrseq	r0, (UNDEF: 0)
    2b20:	00005600 	andeq	r5, r0, r0, lsl #12
    2b24:	00000000 	andeq	r0, r0, r0
    2b28:	00040000 	andeq	r0, r4, r0
    2b2c:	9f5201f3 	svcls	0x005201f3
	...
    2b40:	00530001 	subseq	r0, r3, r1
    2b44:	00000000 	andeq	r0, r0, r0
    2b48:	01000000 	mrseq	r0, (UNDEF: 0)
    2b4c:	00005500 	andeq	r5, r0, r0, lsl #10
    2b50:	00000000 	andeq	r0, r0, r0
    2b54:	00040000 	andeq	r0, r4, r0
    2b58:	9f5301f3 	svcls	0x005301f3
	...
    2b6c:	00750006 	rsbseq	r0, r5, r6
    2b70:	9f220070 	svcls	0x00220070
	...
    2b7c:	00500001 	subseq	r0, r0, r1
	...
    2b8c:	01000000 	mrseq	r0, (UNDEF: 0)
    2b90:	00005500 	andeq	r5, r0, r0, lsl #10
    2b94:	00000000 	andeq	r0, r0, r0
    2b98:	00010000 	andeq	r0, r1, r0
    2b9c:	00000050 	andeq	r0, r0, r0, asr r0
	...
    2bac:	50000100 	andpl	r0, r0, r0, lsl #2
	...
    2bb8:	00540001 	subseq	r0, r4, r1
    2bbc:	00000000 	andeq	r0, r0, r0
    2bc0:	01000000 	mrseq	r0, (UNDEF: 0)
    2bc4:	00005000 	andeq	r5, r0, r0
    2bc8:	00000000 	andeq	r0, r0, r0
    2bcc:	00010000 	andeq	r0, r1, r0
    2bd0:	00000054 	andeq	r0, r0, r4, asr r0
    2bd4:	00000000 	andeq	r0, r0, r0
    2bd8:	f3000400 	vshl.u8	d0, d0, d0
    2bdc:	009f5001 	addseq	r5, pc, r1
    2be0:	00000000 	andeq	r0, r0, r0
    2be4:	01000000 	mrseq	r0, (UNDEF: 0)
    2be8:	00005400 	andeq	r5, r0, r0, lsl #8
    2bec:	00000000 	andeq	r0, r0, r0
    2bf0:	00040000 	andeq	r0, r4, r0
    2bf4:	9f5001f3 	svcls	0x005001f3
	...
    2c08:	00510001 	subseq	r0, r1, r1
    2c0c:	00000000 	andeq	r0, r0, r0
    2c10:	01000000 	mrseq	r0, (UNDEF: 0)
    2c14:	00005500 	andeq	r5, r0, r0, lsl #10
    2c18:	00000000 	andeq	r0, r0, r0
    2c1c:	00010000 	andeq	r0, r1, r0
    2c20:	00000051 	andeq	r0, r0, r1, asr r0
    2c24:	00000000 	andeq	r0, r0, r0
    2c28:	55000100 	strpl	r0, [r0, #-256]	; 0xffffff00
	...
    2c34:	01f30004 	mvnseq	r0, r4
    2c38:	00009f51 	andeq	r9, r0, r1, asr pc
    2c3c:	00000000 	andeq	r0, r0, r0
    2c40:	00010000 	andeq	r0, r1, r0
    2c44:	00000055 	andeq	r0, r0, r5, asr r0
    2c48:	00000000 	andeq	r0, r0, r0
    2c4c:	f3000400 	vshl.u8	d0, d0, d0
    2c50:	009f5101 	addseq	r5, pc, r1, lsl #2
    2c54:	00000000 	andeq	r0, r0, r0
    2c58:	01000000 	mrseq	r0, (UNDEF: 0)
    2c5c:	00005500 	andeq	r5, r0, r0, lsl #10
    2c60:	00000000 	andeq	r0, r0, r0
    2c64:	00040000 	andeq	r0, r4, r0
    2c68:	9f5101f3 	svcls	0x005101f3
	...
    2c7c:	00520001 	subseq	r0, r2, r1
    2c80:	00000000 	andeq	r0, r0, r0
    2c84:	04000000 	streq	r0, [r0], #-0
    2c88:	5201f300 	andpl	pc, r1, #0, 6
    2c8c:	0000009f 	muleq	r0, pc, r0	; <UNPREDICTABLE>
    2c90:	00000000 	andeq	r0, r0, r0
    2c94:	52000100 	andpl	r0, r0, #0, 2
	...
    2ca0:	01f30004 	mvnseq	r0, r4
    2ca4:	00009f52 	andeq	r9, r0, r2, asr pc
	...
    2cb4:	00010000 	andeq	r0, r1, r0
    2cb8:	00000050 	andeq	r0, r0, r0, asr r0
    2cbc:	00000000 	andeq	r0, r0, r0
    2cc0:	54000100 	strpl	r0, [r0], #-256	; 0xffffff00
	...
    2ccc:	01f30004 	mvnseq	r0, r4
    2cd0:	00009f50 	andeq	r9, r0, r0, asr pc
    2cd4:	00000000 	andeq	r0, r0, r0
    2cd8:	00010000 	andeq	r0, r1, r0
    2cdc:	00000054 	andeq	r0, r0, r4, asr r0
    2ce0:	00000000 	andeq	r0, r0, r0
    2ce4:	f3000400 	vshl.u8	d0, d0, d0
    2ce8:	009f5001 	addseq	r5, pc, r1
	...
    2cf8:	01000000 	mrseq	r0, (UNDEF: 0)
    2cfc:	00005300 	andeq	r5, r0, r0, lsl #6
    2d00:	00000000 	andeq	r0, r0, r0
    2d04:	00010000 	andeq	r0, r1, r0
    2d08:	00000053 	andeq	r0, r0, r3, asr r0
	...
    2d18:	50000100 	andpl	r0, r0, r0, lsl #2
	...
    2d24:	00540001 	subseq	r0, r4, r1
    2d28:	00000000 	andeq	r0, r0, r0
    2d2c:	01000000 	mrseq	r0, (UNDEF: 0)
    2d30:	00005000 	andeq	r5, r0, r0
    2d34:	00000000 	andeq	r0, r0, r0
    2d38:	00010000 	andeq	r0, r1, r0
    2d3c:	00000054 	andeq	r0, r0, r4, asr r0
    2d40:	00000000 	andeq	r0, r0, r0
    2d44:	f3000400 	vshl.u8	d0, d0, d0
    2d48:	009f5001 	addseq	r5, pc, r1
    2d4c:	00000000 	andeq	r0, r0, r0
    2d50:	01000000 	mrseq	r0, (UNDEF: 0)
    2d54:	00005400 	andeq	r5, r0, r0, lsl #8
    2d58:	00000000 	andeq	r0, r0, r0
    2d5c:	00040000 	andeq	r0, r4, r0
    2d60:	9f5001f3 	svcls	0x005001f3
	...
    2d6c:	00540001 	subseq	r0, r4, r1
    2d70:	00000000 	andeq	r0, r0, r0
    2d74:	04000000 	streq	r0, [r0], #-0
    2d78:	5001f300 	andpl	pc, r1, r0, lsl #6
    2d7c:	0000009f 	muleq	r0, pc, r0	; <UNPREDICTABLE>
	...
    2d8c:	51000100 	mrspl	r0, (UNDEF: 16)
	...
    2d98:	00550001 	subseq	r0, r5, r1
    2d9c:	00000000 	andeq	r0, r0, r0
    2da0:	01000000 	mrseq	r0, (UNDEF: 0)
    2da4:	00005100 	andeq	r5, r0, r0, lsl #2
    2da8:	00000000 	andeq	r0, r0, r0
    2dac:	00010000 	andeq	r0, r1, r0
    2db0:	00000055 	andeq	r0, r0, r5, asr r0
    2db4:	00000000 	andeq	r0, r0, r0
    2db8:	f3000400 	vshl.u8	d0, d0, d0
    2dbc:	009f5101 	addseq	r5, pc, r1, lsl #2
    2dc0:	00000000 	andeq	r0, r0, r0
    2dc4:	01000000 	mrseq	r0, (UNDEF: 0)
    2dc8:	00005500 	andeq	r5, r0, r0, lsl #10
    2dcc:	00000000 	andeq	r0, r0, r0
    2dd0:	00040000 	andeq	r0, r4, r0
    2dd4:	9f5101f3 	svcls	0x005101f3
	...
    2de0:	00550001 	subseq	r0, r5, r1
    2de4:	00000000 	andeq	r0, r0, r0
    2de8:	04000000 	streq	r0, [r0], #-0
    2dec:	5101f300 	mrspl	pc, SP_irq	; <UNPREDICTABLE>
    2df0:	0000009f 	muleq	r0, pc, r0	; <UNPREDICTABLE>
	...
    2e00:	52000100 	andpl	r0, r0, #0, 2
	...
    2e0c:	01f30004 	mvnseq	r0, r4
    2e10:	00009f52 	andeq	r9, r0, r2, asr pc
    2e14:	00000000 	andeq	r0, r0, r0
    2e18:	00010000 	andeq	r0, r1, r0
    2e1c:	00000052 	andeq	r0, r0, r2, asr r0
    2e20:	00000000 	andeq	r0, r0, r0
    2e24:	f3000400 	vshl.u8	d0, d0, d0
    2e28:	009f5201 	addseq	r5, pc, r1, lsl #4
	...
    2e38:	01000000 	mrseq	r0, (UNDEF: 0)
    2e3c:	00005300 	andeq	r5, r0, r0, lsl #6
    2e40:	00000000 	andeq	r0, r0, r0
    2e44:	00010000 	andeq	r0, r1, r0
    2e48:	00000056 	andeq	r0, r0, r6, asr r0
    2e4c:	00000000 	andeq	r0, r0, r0
    2e50:	53000100 	movwpl	r0, #256	; 0x100
	...
    2e5c:	00560001 	subseq	r0, r6, r1
    2e60:	00000000 	andeq	r0, r0, r0
    2e64:	04000000 	streq	r0, [r0], #-0
    2e68:	5301f300 	movwpl	pc, #4864	; 0x1300	; <UNPREDICTABLE>
    2e6c:	0000009f 	muleq	r0, pc, r0	; <UNPREDICTABLE>
	...
    2e7c:	50000100 	andpl	r0, r0, r0, lsl #2
	...
    2e88:	00540001 	subseq	r0, r4, r1
    2e8c:	00000000 	andeq	r0, r0, r0
    2e90:	04000000 	streq	r0, [r0], #-0
    2e94:	5001f300 	andpl	pc, r1, r0, lsl #6
    2e98:	0000009f 	muleq	r0, pc, r0	; <UNPREDICTABLE>
    2e9c:	00000000 	andeq	r0, r0, r0
    2ea0:	54000100 	strpl	r0, [r0], #-256	; 0xffffff00
	...
    2eac:	01f30004 	mvnseq	r0, r4
    2eb0:	00009f50 	andeq	r9, r0, r0, asr pc
    2eb4:	00000000 	andeq	r0, r0, r0
    2eb8:	00010000 	andeq	r0, r1, r0
    2ebc:	00000054 	andeq	r0, r0, r4, asr r0
    2ec0:	00000000 	andeq	r0, r0, r0
    2ec4:	f3000400 	vshl.u8	d0, d0, d0
    2ec8:	009f5001 	addseq	r5, pc, r1
	...
    2ed8:	01000000 	mrseq	r0, (UNDEF: 0)
    2edc:	00005300 	andeq	r5, r0, r0, lsl #6
    2ee0:	00000000 	andeq	r0, r0, r0
    2ee4:	00010000 	andeq	r0, r1, r0
    2ee8:	00000053 	andeq	r0, r0, r3, asr r0
    2eec:	00000000 	andeq	r0, r0, r0
    2ef0:	53000100 	movwpl	r0, #256	; 0x100
	...
    2f04:	00500001 	subseq	r0, r0, r1
    2f08:	00000000 	andeq	r0, r0, r0
    2f0c:	01000000 	mrseq	r0, (UNDEF: 0)
    2f10:	00005700 	andeq	r5, r0, r0, lsl #14
	...
    2f20:	00010000 	andeq	r0, r1, r0
    2f24:	00000050 	andeq	r0, r0, r0, asr r0
    2f28:	00000000 	andeq	r0, r0, r0
    2f2c:	54000100 	strpl	r0, [r0], #-256	; 0xffffff00
	...
    2f38:	00500001 	subseq	r0, r0, r1
    2f3c:	00000000 	andeq	r0, r0, r0
    2f40:	01000000 	mrseq	r0, (UNDEF: 0)
    2f44:	00005400 	andeq	r5, r0, r0, lsl #8
    2f48:	00000000 	andeq	r0, r0, r0
    2f4c:	00040000 	andeq	r0, r4, r0
    2f50:	9f5001f3 	svcls	0x005001f3
	...
    2f64:	00510001 	subseq	r0, r1, r1
    2f68:	00000000 	andeq	r0, r0, r0
    2f6c:	01000000 	mrseq	r0, (UNDEF: 0)
    2f70:	00005500 	andeq	r5, r0, r0, lsl #10
    2f74:	00000000 	andeq	r0, r0, r0
    2f78:	00010000 	andeq	r0, r1, r0
    2f7c:	00000051 	andeq	r0, r0, r1, asr r0
    2f80:	00000000 	andeq	r0, r0, r0
    2f84:	55000100 	strpl	r0, [r0, #-256]	; 0xffffff00
	...
    2f90:	01f30004 	mvnseq	r0, r4
    2f94:	00009f51 	andeq	r9, r0, r1, asr pc
	...
    2fa4:	00010000 	andeq	r0, r1, r0
    2fa8:	00000050 	andeq	r0, r0, r0, asr r0
    2fac:	00000000 	andeq	r0, r0, r0
    2fb0:	54000100 	strpl	r0, [r0], #-256	; 0xffffff00
	...
    2fbc:	01f30004 	mvnseq	r0, r4
    2fc0:	00009f50 	andeq	r9, r0, r0, asr pc
	...
    2fd0:	00010000 	andeq	r0, r1, r0
    2fd4:	00000052 	andeq	r0, r0, r2, asr r0
    2fd8:	00000000 	andeq	r0, r0, r0
    2fdc:	52000100 	andpl	r0, r0, #0, 2
	...
    2fe8:	00520001 	subseq	r0, r2, r1
	...
    2ff8:	01000000 	mrseq	r0, (UNDEF: 0)
    2ffc:	00005000 	andeq	r5, r0, r0
    3000:	00000000 	andeq	r0, r0, r0
    3004:	00010000 	andeq	r0, r1, r0
    3008:	00000057 	andeq	r0, r0, r7, asr r0
    300c:	00000000 	andeq	r0, r0, r0
    3010:	50000100 	andpl	r0, r0, r0, lsl #2
	...
    301c:	00570001 	subseq	r0, r7, r1
    3020:	00000000 	andeq	r0, r0, r0
    3024:	01000000 	mrseq	r0, (UNDEF: 0)
    3028:	00005000 	andeq	r5, r0, r0
    302c:	00000000 	andeq	r0, r0, r0
    3030:	00010000 	andeq	r0, r1, r0
    3034:	00000057 	andeq	r0, r0, r7, asr r0
    3038:	00000000 	andeq	r0, r0, r0
    303c:	0014fc00 	andseq	pc, r4, r0, lsl #24
    3040:	00152600 	andseq	r2, r5, r0, lsl #12
    3044:	50000100 	andpl	r0, r0, r0, lsl #2
    3048:	00001526 	andeq	r1, r0, r6, lsr #10
    304c:	00001538 	andeq	r1, r0, r8, lsr r5
    3050:	01f30004 	mvnseq	r0, r4
    3054:	00009f50 	andeq	r9, r0, r0, asr pc
    3058:	00000000 	andeq	r0, r0, r0
    305c:	14fc0000 	ldrbtne	r0, [ip], #0
    3060:	15120000 	ldrne	r0, [r2, #-0]
    3064:	00010000 	andeq	r0, r1, r0
    3068:	00151251 	andseq	r1, r5, r1, asr r2
    306c:	00151600 	andseq	r1, r5, r0, lsl #12
    3070:	71000200 	mrsvc	r0, R8_usr
    3074:	00151600 	andseq	r1, r5, r0, lsl #12
    3078:	00152400 	andseq	r2, r5, r0, lsl #8
    307c:	51000100 	mrspl	r0, (UNDEF: 16)
    3080:	00001524 	andeq	r1, r0, r4, lsr #10
    3084:	00001526 	andeq	r1, r0, r6, lsr #10
    3088:	04700002 	ldrbteq	r0, [r0], #-2
    308c:	00001526 	andeq	r1, r0, r6, lsr #10
    3090:	00001529 	andeq	r1, r0, r9, lsr #10
    3094:	01f30005 	mvnseq	r0, r5
    3098:	29042350 	stmdbcs	r4, {r4, r6, r8, r9, sp}
    309c:	38000015 	stmdacc	r0, {r0, r2, r4}
    30a0:	04000015 	streq	r0, [r0], #-21	; 0xffffffeb
    30a4:	5101f300 	mrspl	pc, SP_irq	; <UNPREDICTABLE>
    30a8:	0000009f 	muleq	r0, pc, r0	; <UNPREDICTABLE>
    30ac:	00000000 	andeq	r0, r0, r0
    30b0:	0014fc00 	andseq	pc, r4, r0, lsl #24
    30b4:	00150800 	andseq	r0, r5, r0, lsl #16
    30b8:	52000100 	andpl	r0, r0, #0, 2
    30bc:	00001508 	andeq	r1, r0, r8, lsl #10
    30c0:	00001516 	andeq	r1, r0, r6, lsl r5
    30c4:	01f30004 	mvnseq	r0, r4
    30c8:	15169f52 	ldrne	r9, [r6, #-3922]	; 0xfffff0ae
    30cc:	15240000 	strne	r0, [r4, #-0]!
    30d0:	00010000 	andeq	r0, r1, r0
    30d4:	00152452 	andseq	r2, r5, r2, asr r4
    30d8:	00153800 	andseq	r3, r5, r0, lsl #16
    30dc:	f3000400 	vshl.u8	d0, d0, d0
    30e0:	009f5201 	addseq	r5, pc, r1, lsl #4
    30e4:	00000000 	andeq	r0, r0, r0
    30e8:	fc000000 	stc2	0, cr0, [r0], {-0}
    30ec:	0a000014 	beq	3144 <__exidx_end+0x139c>
    30f0:	01000015 	tsteq	r0, r5, lsl r0
    30f4:	150a5300 	strne	r5, [sl, #-768]	; 0xfffffd00
    30f8:	15160000 	ldrne	r0, [r6, #-0]
    30fc:	00040000 	andeq	r0, r4, r0
    3100:	9f5301f3 	svcls	0x005301f3
    3104:	00001516 	andeq	r1, r0, r6, lsl r5
    3108:	00001522 	andeq	r1, r0, r2, lsr #10
    310c:	22530001 	subscs	r0, r3, #1
    3110:	38000015 	stmdacc	r0, {r0, r2, r4}
    3114:	04000015 	streq	r0, [r0], #-21	; 0xffffffeb
    3118:	5301f300 	movwpl	pc, #4864	; 0x1300	; <UNPREDICTABLE>
    311c:	0000009f 	muleq	r0, pc, r0	; <UNPREDICTABLE>
    3120:	00000000 	andeq	r0, r0, r0
    3124:	0014fc00 	andseq	pc, r4, r0, lsl #24
    3128:	00152c00 	andseq	r2, r5, r0, lsl #24
    312c:	30000200 	andcc	r0, r0, r0, lsl #4
    3130:	00152c9f 	mulseq	r5, pc, ip	; <UNPREDICTABLE>
    3134:	00152e00 	andseq	r2, r5, r0, lsl #28
    3138:	54000100 	strpl	r0, [r0], #-256	; 0xffffff00
    313c:	0000152e 	andeq	r1, r0, lr, lsr #10
    3140:	00001538 	andeq	r1, r0, r8, lsr r5
    3144:	00500001 	subseq	r0, r0, r1
    3148:	00000000 	andeq	r0, r0, r0
    314c:	10000000 	andne	r0, r0, r0
    3150:	12000015 	andne	r0, r0, #21
    3154:	01000015 	tsteq	r0, r5, lsl r0
    3158:	15125100 	ldrne	r5, [r2, #-256]	; 0xffffff00
    315c:	15160000 	ldrne	r0, [r6, #-0]
    3160:	00020000 	andeq	r0, r2, r0
    3164:	00000071 	andeq	r0, r0, r1, ror r0
    3168:	00000000 	andeq	r0, r0, r0
    316c:	15100000 	ldrne	r0, [r0, #-0]
    3170:	15160000 	ldrne	r0, [r6, #-0]
    3174:	00040000 	andeq	r0, r4, r0
    3178:	9f5201f3 	svcls	0x005201f3
	...
    3184:	00001510 	andeq	r1, r0, r0, lsl r5
    3188:	00001516 	andeq	r1, r0, r6, lsl r5
    318c:	01f30004 	mvnseq	r0, r4
    3190:	00009f53 	andeq	r9, r0, r3, asr pc
    3194:	00000000 	andeq	r0, r0, r0
    3198:	15100000 	ldrne	r0, [r0, #-0]
    319c:	15160000 	ldrne	r0, [r6, #-0]
    31a0:	00010000 	andeq	r0, r1, r0
    31a4:	00000050 	andeq	r0, r0, r0, asr r0
    31a8:	00000000 	andeq	r0, r0, r0
    31ac:	00153800 	andseq	r3, r5, r0, lsl #16
    31b0:	00154600 	andseq	r4, r5, r0, lsl #12
    31b4:	30000200 	andcc	r0, r0, r0, lsl #4
    31b8:	00154c9f 	mulseq	r5, pc, ip	; <UNPREDICTABLE>
    31bc:	00156400 	andseq	r6, r5, r0, lsl #8
    31c0:	30000200 	andcc	r0, r0, r0, lsl #4
    31c4:	0015649f 	mulseq	r5, pc, r4	; <UNPREDICTABLE>
    31c8:	00156c00 	andseq	r6, r5, r0, lsl #24
    31cc:	50000100 	andpl	r0, r0, r0, lsl #2
	...
    31e0:	00500001 	subseq	r0, r0, r1
    31e4:	00000000 	andeq	r0, r0, r0
    31e8:	01000000 	mrseq	r0, (UNDEF: 0)
    31ec:	00005700 	andeq	r5, r0, r0, lsl #14
    31f0:	00000000 	andeq	r0, r0, r0
    31f4:	00010000 	andeq	r0, r1, r0
    31f8:	00000050 	andeq	r0, r0, r0, asr r0
    31fc:	00000000 	andeq	r0, r0, r0
    3200:	57000100 	strpl	r0, [r0, -r0, lsl #2]
	...
    320c:	01f30004 	mvnseq	r0, r4
    3210:	00009f50 	andeq	r9, r0, r0, asr pc
	...
    3220:	00010000 	andeq	r0, r1, r0
    3224:	00000051 	andeq	r0, r0, r1, asr r0
    3228:	00000000 	andeq	r0, r0, r0
    322c:	55000100 	strpl	r0, [r0, #-256]	; 0xffffff00
	...
    3238:	00510001 	subseq	r0, r1, r1
    323c:	00000000 	andeq	r0, r0, r0
    3240:	01000000 	mrseq	r0, (UNDEF: 0)
    3244:	00005500 	andeq	r5, r0, r0, lsl #10
    3248:	00000000 	andeq	r0, r0, r0
    324c:	00040000 	andeq	r0, r4, r0
    3250:	9f5101f3 	svcls	0x005101f3
	...
    3264:	00520001 	subseq	r0, r2, r1
    3268:	00000000 	andeq	r0, r0, r0
    326c:	01000000 	mrseq	r0, (UNDEF: 0)
    3270:	00005600 	andeq	r5, r0, r0, lsl #12
    3274:	00000000 	andeq	r0, r0, r0
    3278:	00010000 	andeq	r0, r1, r0
    327c:	00000052 	andeq	r0, r0, r2, asr r0
    3280:	00000000 	andeq	r0, r0, r0
    3284:	56000100 	strpl	r0, [r0], -r0, lsl #2
	...
    3290:	01f30004 	mvnseq	r0, r4
    3294:	00009f52 	andeq	r9, r0, r2, asr pc
	...
    32a4:	00010000 	andeq	r0, r1, r0
    32a8:	00000053 	andeq	r0, r0, r3, asr r0
    32ac:	00000000 	andeq	r0, r0, r0
    32b0:	91000200 	mrsls	r0, R8_usr
    32b4:	00000064 	andeq	r0, r0, r4, rrx
    32b8:	00000000 	andeq	r0, r0, r0
    32bc:	53000100 	movwpl	r0, #256	; 0x100
	...
    32c8:	64910002 	ldrvs	r0, [r1], #2
	...
    32dc:	00500001 	subseq	r0, r0, r1
    32e0:	00000000 	andeq	r0, r0, r0
    32e4:	01000000 	mrseq	r0, (UNDEF: 0)
    32e8:	00005400 	andeq	r5, r0, r0, lsl #8
    32ec:	00000000 	andeq	r0, r0, r0
    32f0:	00020000 	andeq	r0, r2, r0
    32f4:	00009f30 	andeq	r9, r0, r0, lsr pc
    32f8:	00000000 	andeq	r0, r0, r0
    32fc:	00010000 	andeq	r0, r1, r0
    3300:	00000054 	andeq	r0, r0, r4, asr r0
    3304:	00000000 	andeq	r0, r0, r0
    3308:	50000100 	andpl	r0, r0, r0, lsl #2
	...
    3314:	0000157c 	andeq	r1, r0, ip, ror r5
    3318:	0000158c 	andeq	r1, r0, ip, lsl #11
    331c:	8c500001 	mrrchi	0, 0, r0, r0, cr1	; <UNPREDICTABLE>
    3320:	bc000015 	stclt	0, cr0, [r0], {21}
    3324:	01000015 	tsteq	r0, r5, lsl r0
    3328:	15bc5600 	ldrne	r5, [ip, #1536]!	; 0x600
    332c:	15c40000 	strbne	r0, [r4]
    3330:	00040000 	andeq	r0, r4, r0
    3334:	9f5001f3 	svcls	0x005001f3
	...
    3340:	0000157c 	andeq	r1, r0, ip, ror r5
    3344:	0000159b 	muleq	r0, fp, r5
    3348:	9b510001 	blls	1443354 <__exidx_end+0x14415ac>
    334c:	b0000015 	andlt	r0, r0, r5, lsl r0
    3350:	04000015 	streq	r0, [r0], #-21	; 0xffffffeb
    3354:	5101f300 	mrspl	pc, SP_irq	; <UNPREDICTABLE>
    3358:	0015b09f 	mulseq	r5, pc, r0	; <UNPREDICTABLE>
    335c:	0015b400 	andseq	fp, r5, r0, lsl #8
    3360:	51000100 	mrspl	r0, (UNDEF: 16)
    3364:	000015b4 			; <UNDEFINED> instruction: 0x000015b4
    3368:	000015b9 			; <UNDEFINED> instruction: 0x000015b9
    336c:	007d0002 	rsbseq	r0, sp, r2
    3370:	000015b9 			; <UNDEFINED> instruction: 0x000015b9
    3374:	000015c4 	andeq	r1, r0, r4, asr #11
    3378:	01f30004 	mvnseq	r0, r4
    337c:	00009f51 	andeq	r9, r0, r1, asr pc
    3380:	00000000 	andeq	r0, r0, r0
    3384:	157c0000 	ldrbne	r0, [ip, #-0]!
    3388:	158a0000 	strne	r0, [sl]
    338c:	00010000 	andeq	r0, r1, r0
    3390:	00158a52 	andseq	r8, r5, r2, asr sl
    3394:	0015bc00 	andseq	fp, r5, r0, lsl #24
    3398:	57000100 	strpl	r0, [r0, -r0, lsl #2]
    339c:	000015bc 			; <UNDEFINED> instruction: 0x000015bc
    33a0:	000015c4 	andeq	r1, r0, r4, asr #11
    33a4:	01f30004 	mvnseq	r0, r4
    33a8:	00009f52 	andeq	r9, r0, r2, asr pc
    33ac:	00000000 	andeq	r0, r0, r0
    33b0:	157c0000 	ldrbne	r0, [ip, #-0]!
    33b4:	159b0000 	ldrne	r0, [fp]
    33b8:	00010000 	andeq	r0, r1, r0
    33bc:	00159b53 	andseq	r9, r5, r3, asr fp
    33c0:	0015b000 	andseq	fp, r5, r0
    33c4:	f3000400 	vshl.u8	d0, d0, d0
    33c8:	b09f5301 	addslt	r5, pc, r1, lsl #6
    33cc:	b9000015 	stmdblt	r0, {r0, r2, r4}
    33d0:	01000015 	tsteq	r0, r5, lsl r0
    33d4:	15b95200 	ldrne	r5, [r9, #512]!	; 0x200
    33d8:	15c40000 	strbne	r0, [r4]
    33dc:	00040000 	andeq	r0, r4, r0
    33e0:	9f5301f3 	svcls	0x005301f3
	...
    33ec:	0000157c 	andeq	r1, r0, ip, ror r5
    33f0:	000015ae 	andeq	r1, r0, lr, lsr #11
    33f4:	9f300002 	svcls	0x00300002
    33f8:	000015ae 	andeq	r1, r0, lr, lsr #11
    33fc:	000015b0 			; <UNDEFINED> instruction: 0x000015b0
    3400:	b0500001 	subslt	r0, r0, r1
    3404:	ba000015 	blt	3460 <__exidx_end+0x16b8>
    3408:	02000015 	andeq	r0, r0, #21
    340c:	ba9f3000 	blt	fe7cf414 <__stack+0xde7c9414>
    3410:	c4000015 	strgt	r0, [r0], #-21	; 0xffffffeb
    3414:	01000015 	tsteq	r0, r5, lsl r0
    3418:	00005000 	andeq	r5, r0, r0
    341c:	00000000 	andeq	r0, r0, r0
    3420:	15d60000 	ldrbne	r0, [r6]
    3424:	16180000 	ldrne	r0, [r8], -r0
    3428:	00010000 	andeq	r0, r1, r0
    342c:	00000056 	andeq	r0, r0, r6, asr r0
    3430:	00000000 	andeq	r0, r0, r0
    3434:	0015ee00 	andseq	lr, r5, r0, lsl #28
    3438:	0015fd00 	andseq	pc, r5, r0, lsl #26
    343c:	53000100 	movwpl	r0, #256	; 0x100
    3440:	00001600 	andeq	r1, r0, r0, lsl #12
    3444:	00001608 	andeq	r1, r0, r8, lsl #12
    3448:	00530001 	subseq	r0, r3, r1
    344c:	00000000 	andeq	r0, r0, r0
    3450:	d6000000 	strle	r0, [r0], -r0
    3454:	18000015 	stmdane	r0, {r0, r2, r4}
    3458:	01000016 	tsteq	r0, r6, lsl r0
    345c:	00005400 	andeq	r5, r0, r0, lsl #8
    3460:	00000000 	andeq	r0, r0, r0
    3464:	160e0000 	strne	r0, [lr], -r0
    3468:	16150000 	ldrne	r0, [r5], -r0
    346c:	00010000 	andeq	r0, r1, r0
    3470:	00000050 	andeq	r0, r0, r0, asr r0
    3474:	00000000 	andeq	r0, r0, r0
    3478:	00162c00 	andseq	r2, r6, r0, lsl #24
    347c:	00163000 	andseq	r3, r6, r0
    3480:	50000100 	andpl	r0, r0, r0, lsl #2
    3484:	00001630 	andeq	r1, r0, r0, lsr r6
    3488:	000017b4 			; <UNDEFINED> instruction: 0x000017b4
    348c:	01f30004 	mvnseq	r0, r4
    3490:	00009f50 	andeq	r9, r0, r0, asr pc
    3494:	00000000 	andeq	r0, r0, r0
    3498:	163a0000 	ldrtne	r0, [sl], -r0
    349c:	16450000 	strbne	r0, [r5], -r0
    34a0:	00080000 	andeq	r0, r8, r0
    34a4:	29300072 	ldmdbcs	r0!, {r1, r4, r5, r6}
    34a8:	9f1aff08 	svcls	0x001aff08
    34ac:	00001645 	andeq	r1, r0, r5, asr #12
    34b0:	000016d8 	ldrdeq	r1, [r0], -r8
    34b4:	54910009 	ldrpl	r0, [r1], #9
    34b8:	08293006 	stmdaeq	r9!, {r1, r2, ip, sp}
    34bc:	009f1aff 			; <UNDEFINED> instruction: 0x009f1aff
    34c0:	00000000 	andeq	r0, r0, r0
    34c4:	30000000 	andcc	r0, r0, r0
    34c8:	42000016 	andmi	r0, r0, #22
    34cc:	06000016 			; <UNDEFINED> instruction: 0x06000016
    34d0:	491cf200 	ldmdbmi	ip, {r9, ip, sp, lr, pc}
	...
    34dc:	42000000 	andmi	r0, r0, #0
    34e0:	45000016 	strmi	r0, [r0, #-22]	; 0xffffffea
    34e4:	08000016 	stmdaeq	r0, {r1, r2, r4}
    34e8:	30007200 	andcc	r7, r0, r0, lsl #4
    34ec:	1aff0829 	bne	fffc5598 <__stack+0xdffbf598>
    34f0:	0016459f 	mulseq	r6, pc, r5	; <UNPREDICTABLE>
    34f4:	0016d800 	andseq	sp, r6, r0, lsl #16
    34f8:	91000900 	tstls	r0, r0, lsl #18
    34fc:	29300654 	ldmdbcs	r0!, {r2, r4, r6, r9, sl}
    3500:	9f1aff08 	svcls	0x001aff08
	...
    350c:	0000165a 	andeq	r1, r0, sl, asr r6
    3510:	0000165c 	andeq	r1, r0, ip, asr r6
    3514:	9f310002 	svcls	0x00310002
    3518:	00001662 	andeq	r1, r0, r2, ror #12
    351c:	000016b4 			; <UNDEFINED> instruction: 0x000016b4
    3520:	9f300002 	svcls	0x00300002
    3524:	000016ba 			; <UNDEFINED> instruction: 0x000016ba
    3528:	000016d2 	ldrdeq	r1, [r0], -r2
    352c:	9f300002 	svcls	0x00300002
	...
    3538:	00001646 	andeq	r1, r0, r6, asr #12
    353c:	0000165e 	andeq	r1, r0, lr, asr r6
    3540:	8bf20006 	blhi	ffc83560 <__stack+0xdfc7d560>
    3544:	00000049 	andeq	r0, r0, r9, asr #32
	...
    3550:	0000164e 	andeq	r1, r0, lr, asr #12
    3554:	00001659 	andeq	r1, r0, r9, asr r6
    3558:	59500001 	ldmdbpl	r0, {r0}^
    355c:	5e000016 	mcrpl	0, 0, r0, cr0, cr6, {0}
    3560:	01000016 	tsteq	r0, r6, lsl r0
    3564:	00005500 	andeq	r5, r0, r0, lsl #10
    3568:	00000000 	andeq	r0, r0, r0
    356c:	16700000 	ldrbtne	r0, [r0], -r0
    3570:	16b40000 	ldrtne	r0, [r4], r0
    3574:	00010000 	andeq	r0, r1, r0
    3578:	00000055 	andeq	r0, r0, r5, asr r0
    357c:	00000000 	andeq	r0, r0, r0
    3580:	00167000 	andseq	r7, r6, r0
    3584:	0016b400 	andseq	fp, r6, r0, lsl #8
    3588:	54000100 	strpl	r0, [r0], #-256	; 0xffffff00
	...
    3594:	000016a4 	andeq	r1, r0, r4, lsr #13
    3598:	000016ab 	andeq	r1, r0, fp, lsr #13
    359c:	00500001 	subseq	r0, r0, r1
    35a0:	00000000 	andeq	r0, r0, r0
    35a4:	78000000 	stmdavc	r0, {}	; <UNPREDICTABLE>
    35a8:	b4000016 	strlt	r0, [r0], #-22	; 0xffffffea
    35ac:	01000016 	tsteq	r0, r6, lsl r0
    35b0:	00005600 	andeq	r5, r0, r0, lsl #12
    35b4:	00000000 	andeq	r0, r0, r0
    35b8:	17800000 	strne	r0, [r0, r0]
    35bc:	17870000 	strne	r0, [r7, r0]
    35c0:	00010000 	andeq	r0, r1, r0
    35c4:	00000050 	andeq	r0, r0, r0, asr r0
    35c8:	00000000 	andeq	r0, r0, r0
    35cc:	0016de00 	andseq	sp, r6, r0, lsl #28
    35d0:	0016e800 	andseq	lr, r6, r0, lsl #16
    35d4:	91000300 	mrsls	r0, LR_irq
    35d8:	00009f5c 	andeq	r9, r0, ip, asr pc
    35dc:	00000000 	andeq	r0, r0, r0
    35e0:	17120000 	ldrne	r0, [r2, -r0]
    35e4:	172a0000 	strne	r0, [sl, -r0]!
    35e8:	00060000 	andeq	r0, r6, r0
    35ec:	004b09f2 	strdeq	r0, [fp], #-146	; 0xffffff6e
	...
    35f8:	171a0000 	ldrne	r0, [sl, -r0]
    35fc:	17250000 	strne	r0, [r5, -r0]!
    3600:	00010000 	andeq	r0, r1, r0
    3604:	00172550 	andseq	r2, r7, r0, asr r5
    3608:	00172a00 	andseq	r2, r7, r0, lsl #20
    360c:	55000100 	strpl	r0, [r0, #-256]	; 0xffffff00
	...
    3620:	00500001 	subseq	r0, r0, r1
    3624:	00000000 	andeq	r0, r0, r0
    3628:	04000000 	streq	r0, [r0], #-0
    362c:	5001f300 	andpl	pc, r1, r0, lsl #6
    3630:	0000009f 	muleq	r0, pc, r0	; <UNPREDICTABLE>
	...
    3640:	50000100 	andpl	r0, r0, r0, lsl #2
	...
    364c:	01f30004 	mvnseq	r0, r4
    3650:	00009f50 	andeq	r9, r0, r0, asr pc
	...
    3660:	00010000 	andeq	r0, r1, r0
    3664:	00000050 	andeq	r0, r0, r0, asr r0
    3668:	00000000 	andeq	r0, r0, r0
    366c:	54000100 	strpl	r0, [r0], #-256	; 0xffffff00
	...
    3678:	01f30004 	mvnseq	r0, r4
    367c:	00009f50 	andeq	r9, r0, r0, asr pc
	...
    368c:	00010000 	andeq	r0, r1, r0
    3690:	00000054 	andeq	r0, r0, r4, asr r0
    3694:	00000000 	andeq	r0, r0, r0
    3698:	50000100 	andpl	r0, r0, r0, lsl #2
	...
    36ac:	00500001 	subseq	r0, r0, r1
    36b0:	00000000 	andeq	r0, r0, r0
    36b4:	01000000 	mrseq	r0, (UNDEF: 0)
    36b8:	00005400 	andeq	r5, r0, r0, lsl #8
    36bc:	00000000 	andeq	r0, r0, r0
    36c0:	00040000 	andeq	r0, r4, r0
    36c4:	9f5001f3 	svcls	0x005001f3
	...
    36d8:	00500001 	subseq	r0, r0, r1
    36dc:	00000000 	andeq	r0, r0, r0
    36e0:	04000000 	streq	r0, [r0], #-0
    36e4:	5001f300 	andpl	pc, r1, r0, lsl #6
    36e8:	0000009f 	muleq	r0, pc, r0	; <UNPREDICTABLE>
	...
    36f8:	50000100 	andpl	r0, r0, r0, lsl #2
	...
    3704:	01f30004 	mvnseq	r0, r4
    3708:	00009f50 	andeq	r9, r0, r0, asr pc
	...
    3718:	00010000 	andeq	r0, r1, r0
    371c:	00000050 	andeq	r0, r0, r0, asr r0
    3720:	00000000 	andeq	r0, r0, r0
    3724:	91000200 	mrsls	r0, R8_usr
    3728:	0000006c 	andeq	r0, r0, ip, rrx
    372c:	00000000 	andeq	r0, r0, r0
    3730:	f3000400 	vshl.u8	d0, d0, d0
    3734:	009f5001 	addseq	r5, pc, r1
	...
    3744:	01000000 	mrseq	r0, (UNDEF: 0)
    3748:	00005100 	andeq	r5, r0, r0, lsl #2
    374c:	00000000 	andeq	r0, r0, r0
    3750:	00020000 	andeq	r0, r2, r0
    3754:	00007091 	muleq	r0, r1, r0
    3758:	00000000 	andeq	r0, r0, r0
    375c:	00040000 	andeq	r0, r4, r0
    3760:	9f5101f3 	svcls	0x005101f3
	...
    3774:	00520001 	subseq	r0, r2, r1
    3778:	00000000 	andeq	r0, r0, r0
    377c:	01000000 	mrseq	r0, (UNDEF: 0)
    3780:	00005400 	andeq	r5, r0, r0, lsl #8
    3784:	00000000 	andeq	r0, r0, r0
    3788:	00040000 	andeq	r0, r4, r0
    378c:	9f5201f3 	svcls	0x005201f3
	...
    37a0:	00530001 	subseq	r0, r3, r1
    37a4:	00000000 	andeq	r0, r0, r0
    37a8:	01000000 	mrseq	r0, (UNDEF: 0)
    37ac:	00005200 	andeq	r5, r0, r0, lsl #4
    37b0:	00000000 	andeq	r0, r0, r0
    37b4:	00040000 	andeq	r0, r4, r0
    37b8:	9f5301f3 	svcls	0x005301f3
	...
    37cc:	00500001 	subseq	r0, r0, r1
    37d0:	00000000 	andeq	r0, r0, r0
    37d4:	01000000 	mrseq	r0, (UNDEF: 0)
    37d8:	00005500 	andeq	r5, r0, r0, lsl #10
    37dc:	00000000 	andeq	r0, r0, r0
    37e0:	00040000 	andeq	r0, r4, r0
    37e4:	9f5001f3 	svcls	0x005001f3
	...
    37f8:	00510001 	subseq	r0, r1, r1
    37fc:	00000000 	andeq	r0, r0, r0
    3800:	04000000 	streq	r0, [r0], #-0
    3804:	5101f300 	mrspl	pc, SP_irq	; <UNPREDICTABLE>
    3808:	0000009f 	muleq	r0, pc, r0	; <UNPREDICTABLE>
    380c:	00000000 	andeq	r0, r0, r0
    3810:	51000100 	mrspl	r0, (UNDEF: 16)
	...
    381c:	68910002 	ldmvs	r1, {r1}
	...
    3828:	01f30004 	mvnseq	r0, r4
    382c:	00009f51 	andeq	r9, r0, r1, asr pc
	...
    383c:	00010000 	andeq	r0, r1, r0
    3840:	00000052 	andeq	r0, r0, r2, asr r0
    3844:	00000000 	andeq	r0, r0, r0
    3848:	54000100 	strpl	r0, [r0], #-256	; 0xffffff00
	...
    3854:	01f30004 	mvnseq	r0, r4
    3858:	00009f52 	andeq	r9, r0, r2, asr pc
	...
    3868:	00010000 	andeq	r0, r1, r0
    386c:	00000053 	andeq	r0, r0, r3, asr r0
    3870:	00000000 	andeq	r0, r0, r0
    3874:	52000100 	andpl	r0, r0, #0, 2
	...
    3880:	01f30004 	mvnseq	r0, r4
    3884:	00009f53 	andeq	r9, r0, r3, asr pc
    3888:	00000000 	andeq	r0, r0, r0
    388c:	00010000 	andeq	r0, r1, r0
    3890:	00000052 	andeq	r0, r0, r2, asr r0
    3894:	00000000 	andeq	r0, r0, r0
    3898:	f3000400 	vshl.u8	d0, d0, d0
    389c:	009f5301 	addseq	r5, pc, r1, lsl #6
    38a0:	00000000 	andeq	r0, r0, r0
    38a4:	b4000000 	strlt	r0, [r0], #-0
    38a8:	b4000017 	strlt	r0, [r0], #-23	; 0xffffffe9
    38ac:	01000017 	tsteq	r0, r7, lsl r0
    38b0:	17b45000 	ldrne	r5, [r4, r0]!
    38b4:	17ba0000 	ldrne	r0, [sl, r0]!
    38b8:	00030000 	andeq	r0, r3, r0
    38bc:	ba9f7c70 	blt	fe7e2a84 <__stack+0xde7dca84>
    38c0:	be000017 	mcrlt	0, 0, r0, cr0, cr7, {0}
    38c4:	01000017 	tsteq	r0, r7, lsl r0
    38c8:	17be5300 	ldrne	r5, [lr, r0, lsl #6]!
    38cc:	17c20000 	strbne	r0, [r2, r0]
    38d0:	00030000 	andeq	r0, r3, r0
    38d4:	c29f7870 	addsgt	r7, pc, #112, 16	; 0x700000
    38d8:	c8000017 	stmdagt	r0, {r0, r1, r2, r4}
    38dc:	03000017 	movweq	r0, #23
    38e0:	9f747000 	svcls	0x00747000
    38e4:	000017c8 	andeq	r1, r0, r8, asr #15
    38e8:	000017cc 	andeq	r1, r0, ip, asr #15
    38ec:	60700003 	rsbsvs	r0, r0, r3
    38f0:	0017cc9f 	mulseq	r7, pc, ip	; <UNPREDICTABLE>
    38f4:	0017ce00 	andseq	ip, r7, r0, lsl #28
    38f8:	70000300 	andvc	r0, r0, r0, lsl #6
    38fc:	00009f20 	andeq	r9, r0, r0, lsr #30
    3900:	00000000 	andeq	r0, r0, r0
    3904:	17b40000 	ldrne	r0, [r4, r0]!
    3908:	17c40000 	strbne	r0, [r4, r0]
    390c:	00010000 	andeq	r0, r1, r0
    3910:	0017c451 	andseq	ip, r7, r1, asr r4
    3914:	0017c600 	andseq	ip, r7, r0, lsl #12
    3918:	73000200 	movwvc	r0, #512	; 0x200
    391c:	0017c600 	andseq	ip, r7, r0, lsl #12
    3920:	0017ca00 	andseq	ip, r7, r0, lsl #20
    3924:	73000200 	movwvc	r0, #512	; 0x200
    3928:	0017ca04 	andseq	ip, r7, r4, lsl #20
    392c:	0017d400 	andseq	sp, r7, r0, lsl #8
    3930:	73000200 	movwvc	r0, #512	; 0x200
    3934:	00000018 	andeq	r0, r0, r8, lsl r0
    3938:	00000000 	andeq	r0, r0, r0
	...

Disassembly of section .debug_aranges:

00000000 <.debug_aranges>:
   0:	00000024 	andeq	r0, r0, r4, lsr #32
   4:	00000002 	andeq	r0, r0, r2
   8:	00040000 	andeq	r0, r4, r0
   c:	00000000 	andeq	r0, r0, r0
  10:	000004e8 	andeq	r0, r0, r8, ror #9
  14:	000000b0 	strheq	r0, [r0], -r0	; <UNPREDICTABLE>
  18:	00000000 	andeq	r0, r0, r0
  1c:	0000010c 	andeq	r0, r0, ip, lsl #2
	...
  28:	00000034 	andeq	r0, r0, r4, lsr r0
  2c:	04700002 	ldrbteq	r0, [r0], #-2
  30:	00040000 	andeq	r0, r4, r0
  34:	00000000 	andeq	r0, r0, r0
  38:	00000598 	muleq	r0, r8, r5
  3c:	00000048 	andeq	r0, r0, r8, asr #32
  40:	000005e0 	andeq	r0, r0, r0, ror #11
  44:	00000028 	andeq	r0, r0, r8, lsr #32
  48:	00000608 	andeq	r0, r0, r8, lsl #12
  4c:	00000058 	andeq	r0, r0, r8, asr r0
  50:	00000660 	andeq	r0, r0, r0, ror #12
  54:	00000080 	andeq	r0, r0, r0, lsl #1
	...
  60:	00000024 	andeq	r0, r0, r4, lsr #32
  64:	0a050002 	beq	140074 <__exidx_end+0x13e2cc>
  68:	00040000 	andeq	r0, r4, r0
  6c:	00000000 	andeq	r0, r0, r0
  70:	000006e0 	andeq	r0, r0, r0, ror #13
  74:	00000018 	andeq	r0, r0, r8, lsl r0
  78:	000006f8 	strdeq	r0, [r0], -r8
  7c:	00000016 	andeq	r0, r0, r6, lsl r0
	...
  88:	000000cc 	andeq	r0, r0, ip, asr #1
  8c:	0b620002 	bleq	188009c <__exidx_end+0x187e2f4>
  90:	00040000 	andeq	r0, r4, r0
  94:	00000000 	andeq	r0, r0, r0
  98:	0000070e 	andeq	r0, r0, lr, lsl #14
  9c:	00000072 	andeq	r0, r0, r2, ror r0
  a0:	00000780 	andeq	r0, r0, r0, lsl #15
  a4:	00000024 	andeq	r0, r0, r4, lsr #32
  a8:	000007a4 	andeq	r0, r0, r4, lsr #15
  ac:	0000006a 	andeq	r0, r0, sl, rrx
  b0:	0000080e 	andeq	r0, r0, lr, lsl #16
  b4:	00000068 	andeq	r0, r0, r8, rrx
  b8:	00000876 	andeq	r0, r0, r6, ror r8
  bc:	0000004c 	andeq	r0, r0, ip, asr #32
  c0:	00000000 	andeq	r0, r0, r0
  c4:	0000001a 	andeq	r0, r0, sl, lsl r0
  c8:	00000000 	andeq	r0, r0, r0
  cc:	0000002e 	andeq	r0, r0, lr, lsr #32
  d0:	000008c2 	andeq	r0, r0, r2, asr #17
  d4:	00000124 	andeq	r0, r0, r4, lsr #2
  d8:	00000000 	andeq	r0, r0, r0
  dc:	00000048 	andeq	r0, r0, r8, asr #32
  e0:	00000000 	andeq	r0, r0, r0
  e4:	00000032 	andeq	r0, r0, r2, lsr r0
  e8:	000009e6 	andeq	r0, r0, r6, ror #19
  ec:	00000088 	andeq	r0, r0, r8, lsl #1
  f0:	00000000 	andeq	r0, r0, r0
  f4:	00000064 	andeq	r0, r0, r4, rrx
  f8:	00000a6e 	andeq	r0, r0, lr, ror #20
  fc:	00000146 	andeq	r0, r0, r6, asr #2
 100:	00000000 	andeq	r0, r0, r0
 104:	0000003c 	andeq	r0, r0, ip, lsr r0
 108:	00000000 	andeq	r0, r0, r0
 10c:	00000074 	andeq	r0, r0, r4, ror r0
 110:	00000000 	andeq	r0, r0, r0
 114:	00000052 	andeq	r0, r0, r2, asr r0
 118:	00000000 	andeq	r0, r0, r0
 11c:	0000001a 	andeq	r0, r0, sl, lsl r0
 120:	00000000 	andeq	r0, r0, r0
 124:	0000001e 	andeq	r0, r0, lr, lsl r0
 128:	00000000 	andeq	r0, r0, r0
 12c:	00000010 	andeq	r0, r0, r0, lsl r0
 130:	00000000 	andeq	r0, r0, r0
 134:	00000012 	andeq	r0, r0, r2, lsl r0
 138:	00000000 	andeq	r0, r0, r0
 13c:	00000014 	andeq	r0, r0, r4, lsl r0
 140:	00000000 	andeq	r0, r0, r0
 144:	00000018 	andeq	r0, r0, r8, lsl r0
 148:	00000bb4 			; <UNDEFINED> instruction: 0x00000bb4
 14c:	0000003a 	andeq	r0, r0, sl, lsr r0
	...
 158:	0000003c 	andeq	r0, r0, ip, lsr r0
 15c:	1edd0002 	cdpne	0, 13, cr0, cr13, cr2, {0}
 160:	00040000 	andeq	r0, r4, r0
 164:	00000000 	andeq	r0, r0, r0
 168:	00000bee 	andeq	r0, r0, lr, ror #23
 16c:	00000016 	andeq	r0, r0, r6, lsl r0
 170:	00000c04 	andeq	r0, r0, r4, lsl #24
 174:	00000006 	andeq	r0, r0, r6
 178:	00000c0a 	andeq	r0, r0, sl, lsl #24
 17c:	00000018 	andeq	r0, r0, r8, lsl r0
 180:	00000c22 	andeq	r0, r0, r2, lsr #24
 184:	00000030 	andeq	r0, r0, r0, lsr r0
 188:	00000c52 	andeq	r0, r0, r2, asr ip
 18c:	00000024 	andeq	r0, r0, r4, lsr #32
	...
 198:	0000016c 	andeq	r0, r0, ip, ror #2
 19c:	21770002 	cmncs	r7, r2
 1a0:	00040000 	andeq	r0, r4, r0
 1a4:	00000000 	andeq	r0, r0, r0
 1a8:	00000c78 	andeq	r0, r0, r8, ror ip
 1ac:	00000028 	andeq	r0, r0, r8, lsr #32
 1b0:	00000000 	andeq	r0, r0, r0
 1b4:	00000030 	andeq	r0, r0, r0, lsr r0
 1b8:	00000ca0 	andeq	r0, r0, r0, lsr #25
 1bc:	0000004c 	andeq	r0, r0, ip, asr #32
 1c0:	00000cec 	andeq	r0, r0, ip, ror #25
 1c4:	000001ac 	andeq	r0, r0, ip, lsr #3
 1c8:	00000000 	andeq	r0, r0, r0
 1cc:	0000008c 	andeq	r0, r0, ip, lsl #1
 1d0:	00000000 	andeq	r0, r0, r0
 1d4:	00000020 	andeq	r0, r0, r0, lsr #32
 1d8:	00000000 	andeq	r0, r0, r0
 1dc:	00000020 	andeq	r0, r0, r0, lsr #32
 1e0:	00000000 	andeq	r0, r0, r0
 1e4:	000000a4 	andeq	r0, r0, r4, lsr #1
 1e8:	00000000 	andeq	r0, r0, r0
 1ec:	00000064 	andeq	r0, r0, r4, rrx
 1f0:	00000000 	andeq	r0, r0, r0
 1f4:	0000007c 	andeq	r0, r0, ip, ror r0
 1f8:	00000e98 	muleq	r0, r8, lr
 1fc:	0000005c 	andeq	r0, r0, ip, asr r0
 200:	00000000 	andeq	r0, r0, r0
 204:	00000018 	andeq	r0, r0, r8, lsl r0
 208:	00000ef4 	strdeq	r0, [r0], -r4
 20c:	00000010 	andeq	r0, r0, r0, lsl r0
 210:	00000f04 	andeq	r0, r0, r4, lsl #30
 214:	00000018 	andeq	r0, r0, r8, lsl r0
 218:	00000000 	andeq	r0, r0, r0
 21c:	00000018 	andeq	r0, r0, r8, lsl r0
 220:	00000000 	andeq	r0, r0, r0
 224:	0000000c 	andeq	r0, r0, ip
 228:	00000f1c 	andeq	r0, r0, ip, lsl pc
 22c:	00000104 	andeq	r0, r0, r4, lsl #2
 230:	00001020 	andeq	r1, r0, r0, lsr #32
 234:	000000d0 	ldrdeq	r0, [r0], -r0	; <UNPREDICTABLE>
 238:	00000000 	andeq	r0, r0, r0
 23c:	0000007c 	andeq	r0, r0, ip, ror r0
 240:	000010f0 	strdeq	r1, [r0], -r0
 244:	0000004c 	andeq	r0, r0, ip, asr #32
 248:	0000113c 	andeq	r1, r0, ip, lsr r1
 24c:	00000068 	andeq	r0, r0, r8, rrx
 250:	000011a4 	andeq	r1, r0, r4, lsr #3
 254:	00000078 	andeq	r0, r0, r8, ror r0
 258:	00000000 	andeq	r0, r0, r0
 25c:	00000090 	muleq	r0, r0, r0
 260:	0000121c 	andeq	r1, r0, ip, lsl r2
 264:	00000048 	andeq	r0, r0, r8, asr #32
 268:	00000000 	andeq	r0, r0, r0
 26c:	00000064 	andeq	r0, r0, r4, rrx
 270:	00001264 	andeq	r1, r0, r4, ror #4
 274:	00000034 	andeq	r0, r0, r4, lsr r0
 278:	00001298 	muleq	r0, r8, r2
 27c:	00000078 	andeq	r0, r0, r8, ror r0
 280:	00000000 	andeq	r0, r0, r0
 284:	00000074 	andeq	r0, r0, r4, ror r0
 288:	00001310 	andeq	r1, r0, r0, lsl r3
 28c:	00000024 	andeq	r0, r0, r4, lsr #32
 290:	00001334 	andeq	r1, r0, r4, lsr r3
 294:	00000064 	andeq	r0, r0, r4, rrx
 298:	00001398 	muleq	r0, r8, r3
 29c:	0000000c 	andeq	r0, r0, ip
 2a0:	00000000 	andeq	r0, r0, r0
 2a4:	00000024 	andeq	r0, r0, r4, lsr #32
 2a8:	00000000 	andeq	r0, r0, r0
 2ac:	0000000c 	andeq	r0, r0, ip
 2b0:	000013a4 	andeq	r1, r0, r4, lsr #7
 2b4:	00000020 	andeq	r0, r0, r0, lsr #32
 2b8:	000013c4 	andeq	r1, r0, r4, asr #7
 2bc:	0000006c 	andeq	r0, r0, ip, rrx
 2c0:	00001430 	andeq	r1, r0, r0, lsr r4
 2c4:	0000005c 	andeq	r0, r0, ip, asr r0
 2c8:	00000000 	andeq	r0, r0, r0
 2cc:	00000018 	andeq	r0, r0, r8, lsl r0
 2d0:	0000148c 	andeq	r1, r0, ip, lsl #9
 2d4:	00000018 	andeq	r0, r0, r8, lsl r0
 2d8:	00000000 	andeq	r0, r0, r0
 2dc:	00000088 	andeq	r0, r0, r8, lsl #1
 2e0:	00000000 	andeq	r0, r0, r0
 2e4:	0000009c 	muleq	r0, ip, r0
 2e8:	00000000 	andeq	r0, r0, r0
 2ec:	000000a0 	andeq	r0, r0, r0, lsr #1
 2f0:	00000000 	andeq	r0, r0, r0
 2f4:	000000c8 	andeq	r0, r0, r8, asr #1
 2f8:	00000000 	andeq	r0, r0, r0
 2fc:	00000098 	muleq	r0, r8, r0
	...
 308:	00000074 	andeq	r0, r0, r4, ror r0
 30c:	40260002 	eormi	r0, r6, r2
 310:	00040000 	andeq	r0, r4, r0
 314:	00000000 	andeq	r0, r0, r0
 318:	000014a4 	andeq	r1, r0, r4, lsr #9
 31c:	00000058 	andeq	r0, r0, r8, asr r0
 320:	000014fc 	strdeq	r1, [r0], -ip
 324:	0000003c 	andeq	r0, r0, ip, lsr r0
 328:	00001538 	andeq	r1, r0, r8, lsr r5
 32c:	00000044 	andeq	r0, r0, r4, asr #32
 330:	00000000 	andeq	r0, r0, r0
 334:	0000003c 	andeq	r0, r0, ip, lsr r0
 338:	0000157c 	andeq	r1, r0, ip, ror r5
 33c:	00000048 	andeq	r0, r0, r8, asr #32
 340:	000015c4 	andeq	r1, r0, r4, asr #11
 344:	00000068 	andeq	r0, r0, r8, rrx
 348:	0000162c 	andeq	r1, r0, ip, lsr #12
 34c:	00000188 	andeq	r0, r0, r8, lsl #3
 350:	00000000 	andeq	r0, r0, r0
 354:	00000004 	andeq	r0, r0, r4
 358:	00000000 	andeq	r0, r0, r0
 35c:	00000016 	andeq	r0, r0, r6, lsl r0
 360:	00000000 	andeq	r0, r0, r0
 364:	00000004 	andeq	r0, r0, r4
 368:	00000000 	andeq	r0, r0, r0
 36c:	00000028 	andeq	r0, r0, r8, lsr #32
 370:	00000000 	andeq	r0, r0, r0
 374:	00000034 	andeq	r0, r0, r4, lsr r0
	...
 380:	0000009c 	muleq	r0, ip, r0
 384:	4f9d0002 	svcmi	0x009d0002
 388:	00040000 	andeq	r0, r4, r0
 38c:	00000000 	andeq	r0, r0, r0
 390:	000017b4 			; <UNDEFINED> instruction: 0x000017b4
 394:	00000020 	andeq	r0, r0, r0, lsr #32
 398:	000017d4 	ldrdeq	r1, [r0], -r4
 39c:	00000040 	andeq	r0, r0, r0, asr #32
 3a0:	00000000 	andeq	r0, r0, r0
 3a4:	0000000c 	andeq	r0, r0, ip
 3a8:	00000000 	andeq	r0, r0, r0
 3ac:	0000000c 	andeq	r0, r0, ip
 3b0:	00000000 	andeq	r0, r0, r0
 3b4:	00000018 	andeq	r0, r0, r8, lsl r0
 3b8:	00001814 	andeq	r1, r0, r4, lsl r8
 3bc:	00000018 	andeq	r0, r0, r8, lsl r0
 3c0:	00000000 	andeq	r0, r0, r0
 3c4:	0000000c 	andeq	r0, r0, ip
 3c8:	0000182c 	andeq	r1, r0, ip, lsr #16
 3cc:	00000012 	andeq	r0, r0, r2, lsl r0
 3d0:	00001844 	andeq	r1, r0, r4, asr #16
 3d4:	00000040 	andeq	r0, r0, r0, asr #32
 3d8:	00001884 	andeq	r1, r0, r4, lsl #17
 3dc:	00000028 	andeq	r0, r0, r8, lsr #32
 3e0:	000018ac 	andeq	r1, r0, ip, lsr #17
 3e4:	00000044 	andeq	r0, r0, r4, asr #32
 3e8:	000018f0 	strdeq	r1, [r0], -r0
 3ec:	0000000a 	andeq	r0, r0, sl
 3f0:	000018fc 	strdeq	r1, [r0], -ip
 3f4:	0000001c 	andeq	r0, r0, ip, lsl r0
 3f8:	00001918 	andeq	r1, r0, r8, lsl r9
 3fc:	0000001c 	andeq	r0, r0, ip, lsl r0
 400:	00001934 	andeq	r1, r0, r4, lsr r9
 404:	00000006 	andeq	r0, r0, r6
 408:	0000193c 	andeq	r1, r0, ip, lsr r9
 40c:	00000018 	andeq	r0, r0, r8, lsl r0
 410:	00001954 	andeq	r1, r0, r4, asr r9
 414:	0000001a 	andeq	r0, r0, sl, lsl r0
	...
 420:	00000024 	andeq	r0, r0, r4, lsr #32
 424:	53460002 	movtpl	r0, #24578	; 0x6002
 428:	00040000 	andeq	r0, r4, r0
 42c:	00000000 	andeq	r0, r0, r0
 430:	000000c0 	andeq	r0, r0, r0, asr #1
 434:	00000034 	andeq	r0, r0, r4, lsr r0
 438:	00001970 	andeq	r1, r0, r0, ror r9
 43c:	0000004c 	andeq	r0, r0, ip, asr #32
	...

Disassembly of section .debug_ranges:

00000000 <.debug_ranges>:
   0:	000004e8 	andeq	r0, r0, r8, ror #9
   4:	00000598 	muleq	r0, r8, r5
   8:	00000001 	andeq	r0, r0, r1
   c:	00000001 	andeq	r0, r0, r1
	...
  18:	00000598 	muleq	r0, r8, r5
  1c:	000005e0 	andeq	r0, r0, r0, ror #11
  20:	000005e0 	andeq	r0, r0, r0, ror #11
  24:	00000608 	andeq	r0, r0, r8, lsl #12
  28:	00000608 	andeq	r0, r0, r8, lsl #12
  2c:	00000660 	andeq	r0, r0, r0, ror #12
  30:	00000660 	andeq	r0, r0, r0, ror #12
  34:	000006e0 	andeq	r0, r0, r0, ror #13
	...
  40:	000006e0 	andeq	r0, r0, r0, ror #13
  44:	000006f8 	strdeq	r0, [r0], -r8
  48:	000006f8 	strdeq	r0, [r0], -r8
  4c:	0000070e 	andeq	r0, r0, lr, lsl #14
	...
  58:	0000070e 	andeq	r0, r0, lr, lsl #14
  5c:	00000780 	andeq	r0, r0, r0, lsl #15
  60:	00000780 	andeq	r0, r0, r0, lsl #15
  64:	000007a4 	andeq	r0, r0, r4, lsr #15
  68:	000007a4 	andeq	r0, r0, r4, lsr #15
  6c:	0000080e 	andeq	r0, r0, lr, lsl #16
  70:	0000080e 	andeq	r0, r0, lr, lsl #16
  74:	00000876 	andeq	r0, r0, r6, ror r8
  78:	00000876 	andeq	r0, r0, r6, ror r8
  7c:	000008c2 	andeq	r0, r0, r2, asr #17
  80:	00000001 	andeq	r0, r0, r1
  84:	00000001 	andeq	r0, r0, r1
  88:	00000001 	andeq	r0, r0, r1
  8c:	00000001 	andeq	r0, r0, r1
  90:	000008c2 	andeq	r0, r0, r2, asr #17
  94:	000009e6 	andeq	r0, r0, r6, ror #19
  98:	00000001 	andeq	r0, r0, r1
  9c:	00000001 	andeq	r0, r0, r1
  a0:	00000001 	andeq	r0, r0, r1
  a4:	00000001 	andeq	r0, r0, r1
  a8:	000009e6 	andeq	r0, r0, r6, ror #19
  ac:	00000a6e 	andeq	r0, r0, lr, ror #20
  b0:	00000001 	andeq	r0, r0, r1
  b4:	00000001 	andeq	r0, r0, r1
  b8:	00000a6e 	andeq	r0, r0, lr, ror #20
  bc:	00000bb4 			; <UNDEFINED> instruction: 0x00000bb4
  c0:	00000001 	andeq	r0, r0, r1
  c4:	00000001 	andeq	r0, r0, r1
  c8:	00000001 	andeq	r0, r0, r1
  cc:	00000001 	andeq	r0, r0, r1
  d0:	00000001 	andeq	r0, r0, r1
  d4:	00000001 	andeq	r0, r0, r1
  d8:	00000001 	andeq	r0, r0, r1
  dc:	00000001 	andeq	r0, r0, r1
  e0:	00000001 	andeq	r0, r0, r1
  e4:	00000001 	andeq	r0, r0, r1
  e8:	00000001 	andeq	r0, r0, r1
  ec:	00000001 	andeq	r0, r0, r1
  f0:	00000001 	andeq	r0, r0, r1
  f4:	00000001 	andeq	r0, r0, r1
  f8:	00000001 	andeq	r0, r0, r1
  fc:	00000001 	andeq	r0, r0, r1
 100:	00000001 	andeq	r0, r0, r1
 104:	00000001 	andeq	r0, r0, r1
 108:	00000bb4 			; <UNDEFINED> instruction: 0x00000bb4
 10c:	00000bee 	andeq	r0, r0, lr, ror #23
	...
 118:	00000bee 	andeq	r0, r0, lr, ror #23
 11c:	00000c04 	andeq	r0, r0, r4, lsl #24
 120:	00000c04 	andeq	r0, r0, r4, lsl #24
 124:	00000c0a 	andeq	r0, r0, sl, lsl #24
 128:	00000c0a 	andeq	r0, r0, sl, lsl #24
 12c:	00000c22 	andeq	r0, r0, r2, lsr #24
 130:	00000c22 	andeq	r0, r0, r2, lsr #24
 134:	00000c52 	andeq	r0, r0, r2, asr ip
 138:	00000c52 	andeq	r0, r0, r2, asr ip
 13c:	00000c76 	andeq	r0, r0, r6, ror ip
	...
 148:	00000d0c 	andeq	r0, r0, ip, lsl #26
 14c:	00000d36 	andeq	r0, r0, r6, lsr sp
 150:	00000d44 	andeq	r0, r0, r4, asr #26
 154:	00000d4c 	andeq	r0, r0, ip, asr #26
	...
 160:	00000d0c 	andeq	r0, r0, ip, lsl #26
 164:	00000d28 	andeq	r0, r0, r8, lsr #26
 168:	00000d2a 	andeq	r0, r0, sl, lsr #26
 16c:	00000d2c 	andeq	r0, r0, ip, lsr #26
 170:	00000d44 	andeq	r0, r0, r4, asr #26
 174:	00000d4c 	andeq	r0, r0, ip, asr #26
	...
 180:	00000d40 	andeq	r0, r0, r0, asr #26
 184:	00000d44 	andeq	r0, r0, r4, asr #26
 188:	00000d4c 	andeq	r0, r0, ip, asr #26
 18c:	00000d98 	muleq	r0, r8, sp
 190:	00000d9a 	muleq	r0, sl, sp
 194:	00000d9c 	muleq	r0, ip, sp
	...
 1a0:	00000f2e 	andeq	r0, r0, lr, lsr #30
 1a4:	00000f5c 	andeq	r0, r0, ip, asr pc
 1a8:	00000f5e 	andeq	r0, r0, lr, asr pc
 1ac:	00000f82 	andeq	r0, r0, r2, lsl #31
 1b0:	00000fae 	andeq	r0, r0, lr, lsr #31
 1b4:	00000ff0 	strdeq	r0, [r0], -r0	; <UNPREDICTABLE>
	...
 1c0:	00000001 	andeq	r0, r0, r1
 1c4:	00000001 	andeq	r0, r0, r1
 1c8:	00000001 	andeq	r0, r0, r1
 1cc:	00000001 	andeq	r0, r0, r1
 1d0:	00000001 	andeq	r0, r0, r1
 1d4:	00000001 	andeq	r0, r0, r1
	...
 1e0:	00000c78 	andeq	r0, r0, r8, ror ip
 1e4:	00000ca0 	andeq	r0, r0, r0, lsr #25
 1e8:	00000001 	andeq	r0, r0, r1
 1ec:	00000001 	andeq	r0, r0, r1
 1f0:	00000ca0 	andeq	r0, r0, r0, lsr #25
 1f4:	00000cec 	andeq	r0, r0, ip, ror #25
 1f8:	00000cec 	andeq	r0, r0, ip, ror #25
 1fc:	00000e98 	muleq	r0, r8, lr
 200:	00000001 	andeq	r0, r0, r1
 204:	00000001 	andeq	r0, r0, r1
 208:	00000001 	andeq	r0, r0, r1
 20c:	00000001 	andeq	r0, r0, r1
 210:	00000001 	andeq	r0, r0, r1
 214:	00000001 	andeq	r0, r0, r1
 218:	00000001 	andeq	r0, r0, r1
 21c:	00000001 	andeq	r0, r0, r1
 220:	00000001 	andeq	r0, r0, r1
 224:	00000001 	andeq	r0, r0, r1
 228:	00000001 	andeq	r0, r0, r1
 22c:	00000001 	andeq	r0, r0, r1
 230:	00000e98 	muleq	r0, r8, lr
 234:	00000ef4 	strdeq	r0, [r0], -r4
 238:	00000001 	andeq	r0, r0, r1
 23c:	00000001 	andeq	r0, r0, r1
 240:	00000ef4 	strdeq	r0, [r0], -r4
 244:	00000f04 	andeq	r0, r0, r4, lsl #30
 248:	00000f04 	andeq	r0, r0, r4, lsl #30
 24c:	00000f1c 	andeq	r0, r0, ip, lsl pc
 250:	00000001 	andeq	r0, r0, r1
 254:	00000001 	andeq	r0, r0, r1
 258:	00000001 	andeq	r0, r0, r1
 25c:	00000001 	andeq	r0, r0, r1
 260:	00000f1c 	andeq	r0, r0, ip, lsl pc
 264:	00001020 	andeq	r1, r0, r0, lsr #32
 268:	00001020 	andeq	r1, r0, r0, lsr #32
 26c:	000010f0 	strdeq	r1, [r0], -r0
 270:	00000001 	andeq	r0, r0, r1
 274:	00000001 	andeq	r0, r0, r1
 278:	000010f0 	strdeq	r1, [r0], -r0
 27c:	0000113c 	andeq	r1, r0, ip, lsr r1
 280:	0000113c 	andeq	r1, r0, ip, lsr r1
 284:	000011a4 	andeq	r1, r0, r4, lsr #3
 288:	000011a4 	andeq	r1, r0, r4, lsr #3
 28c:	0000121c 	andeq	r1, r0, ip, lsl r2
 290:	00000001 	andeq	r0, r0, r1
 294:	00000001 	andeq	r0, r0, r1
 298:	0000121c 	andeq	r1, r0, ip, lsl r2
 29c:	00001264 	andeq	r1, r0, r4, ror #4
 2a0:	00000001 	andeq	r0, r0, r1
 2a4:	00000001 	andeq	r0, r0, r1
 2a8:	00001264 	andeq	r1, r0, r4, ror #4
 2ac:	00001298 	muleq	r0, r8, r2
 2b0:	00001298 	muleq	r0, r8, r2
 2b4:	00001310 	andeq	r1, r0, r0, lsl r3
 2b8:	00000001 	andeq	r0, r0, r1
 2bc:	00000001 	andeq	r0, r0, r1
 2c0:	00001310 	andeq	r1, r0, r0, lsl r3
 2c4:	00001334 	andeq	r1, r0, r4, lsr r3
 2c8:	00001334 	andeq	r1, r0, r4, lsr r3
 2cc:	00001398 	muleq	r0, r8, r3
 2d0:	00001398 	muleq	r0, r8, r3
 2d4:	000013a4 	andeq	r1, r0, r4, lsr #7
 2d8:	00000001 	andeq	r0, r0, r1
 2dc:	00000001 	andeq	r0, r0, r1
 2e0:	00000001 	andeq	r0, r0, r1
 2e4:	00000001 	andeq	r0, r0, r1
 2e8:	000013a4 	andeq	r1, r0, r4, lsr #7
 2ec:	000013c4 	andeq	r1, r0, r4, asr #7
 2f0:	000013c4 	andeq	r1, r0, r4, asr #7
 2f4:	00001430 	andeq	r1, r0, r0, lsr r4
 2f8:	00001430 	andeq	r1, r0, r0, lsr r4
 2fc:	0000148c 	andeq	r1, r0, ip, lsl #9
 300:	00000001 	andeq	r0, r0, r1
 304:	00000001 	andeq	r0, r0, r1
 308:	0000148c 	andeq	r1, r0, ip, lsl #9
 30c:	000014a4 	andeq	r1, r0, r4, lsr #9
 310:	00000001 	andeq	r0, r0, r1
 314:	00000001 	andeq	r0, r0, r1
 318:	00000001 	andeq	r0, r0, r1
 31c:	00000001 	andeq	r0, r0, r1
 320:	00000001 	andeq	r0, r0, r1
 324:	00000001 	andeq	r0, r0, r1
 328:	00000001 	andeq	r0, r0, r1
 32c:	00000001 	andeq	r0, r0, r1
 330:	00000001 	andeq	r0, r0, r1
 334:	00000001 	andeq	r0, r0, r1
	...
 340:	000014a4 	andeq	r1, r0, r4, lsr #9
 344:	000014fc 	strdeq	r1, [r0], -ip
 348:	000014fc 	strdeq	r1, [r0], -ip
 34c:	00001538 	andeq	r1, r0, r8, lsr r5
 350:	00001538 	andeq	r1, r0, r8, lsr r5
 354:	0000157c 	andeq	r1, r0, ip, ror r5
 358:	00000001 	andeq	r0, r0, r1
 35c:	00000001 	andeq	r0, r0, r1
 360:	0000157c 	andeq	r1, r0, ip, ror r5
 364:	000015c4 	andeq	r1, r0, r4, asr #11
 368:	000015c4 	andeq	r1, r0, r4, asr #11
 36c:	0000162c 	andeq	r1, r0, ip, lsr #12
 370:	0000162c 	andeq	r1, r0, ip, lsr #12
 374:	000017b4 			; <UNDEFINED> instruction: 0x000017b4
 378:	00000001 	andeq	r0, r0, r1
 37c:	00000001 	andeq	r0, r0, r1
 380:	00000001 	andeq	r0, r0, r1
 384:	00000001 	andeq	r0, r0, r1
 388:	00000001 	andeq	r0, r0, r1
 38c:	00000001 	andeq	r0, r0, r1
 390:	00000001 	andeq	r0, r0, r1
 394:	00000001 	andeq	r0, r0, r1
 398:	00000001 	andeq	r0, r0, r1
 39c:	00000001 	andeq	r0, r0, r1
	...
 3a8:	00000001 	andeq	r0, r0, r1
 3ac:	00000001 	andeq	r0, r0, r1
 3b0:	00000001 	andeq	r0, r0, r1
 3b4:	00000001 	andeq	r0, r0, r1
	...
 3c0:	0000185c 	andeq	r1, r0, ip, asr r8
 3c4:	00001860 	andeq	r1, r0, r0, ror #16
 3c8:	00001862 	andeq	r1, r0, r2, ror #16
 3cc:	00001864 	andeq	r1, r0, r4, ror #16
	...
 3d8:	000017b4 			; <UNDEFINED> instruction: 0x000017b4
 3dc:	000017d4 	ldrdeq	r1, [r0], -r4
 3e0:	000017d4 	ldrdeq	r1, [r0], -r4
 3e4:	00001814 	andeq	r1, r0, r4, lsl r8
 3e8:	00000001 	andeq	r0, r0, r1
 3ec:	00000001 	andeq	r0, r0, r1
 3f0:	00000001 	andeq	r0, r0, r1
 3f4:	00000001 	andeq	r0, r0, r1
 3f8:	00000001 	andeq	r0, r0, r1
 3fc:	00000001 	andeq	r0, r0, r1
 400:	00001814 	andeq	r1, r0, r4, lsl r8
 404:	0000182c 	andeq	r1, r0, ip, lsr #16
 408:	00000001 	andeq	r0, r0, r1
 40c:	00000001 	andeq	r0, r0, r1
 410:	0000182c 	andeq	r1, r0, ip, lsr #16
 414:	0000183e 	andeq	r1, r0, lr, lsr r8
 418:	00001844 	andeq	r1, r0, r4, asr #16
 41c:	00001884 	andeq	r1, r0, r4, lsl #17
 420:	00001884 	andeq	r1, r0, r4, lsl #17
 424:	000018ac 	andeq	r1, r0, ip, lsr #17
 428:	000018ac 	andeq	r1, r0, ip, lsr #17
 42c:	000018f0 	strdeq	r1, [r0], -r0
 430:	000018f0 	strdeq	r1, [r0], -r0
 434:	000018fa 	strdeq	r1, [r0], -sl
 438:	000018fc 	strdeq	r1, [r0], -ip
 43c:	00001918 	andeq	r1, r0, r8, lsl r9
 440:	00001918 	andeq	r1, r0, r8, lsl r9
 444:	00001934 	andeq	r1, r0, r4, lsr r9
 448:	00001934 	andeq	r1, r0, r4, lsr r9
 44c:	0000193a 	andeq	r1, r0, sl, lsr r9
 450:	0000193c 	andeq	r1, r0, ip, lsr r9
 454:	00001954 	andeq	r1, r0, r4, asr r9
 458:	00001954 	andeq	r1, r0, r4, asr r9
 45c:	0000196e 	andeq	r1, r0, lr, ror #18
	...
 468:	ffffffff 			; <UNDEFINED> instruction: 0xffffffff
 46c:	00000000 	andeq	r0, r0, r0
 470:	000000c0 	andeq	r0, r0, r0, asr #1
 474:	000000f4 	strdeq	r0, [r0], -r4
 478:	00001970 	andeq	r1, r0, r0, ror r9
 47c:	000019bc 			; <UNDEFINED> instruction: 0x000019bc
	...

Disassembly of section .debug_line:

00000000 <.debug_line>:
       0:	00000169 	andeq	r0, r0, r9, ror #2
       4:	00cb0002 	sbceq	r0, fp, r2
       8:	01020000 	mrseq	r0, (UNDEF: 2)
       c:	000d0efb 	strdeq	r0, [sp], -fp
      10:	01010101 	tsteq	r1, r1, lsl #2
      14:	01000000 	mrseq	r0, (UNDEF: 0)
      18:	2e010000 	cdpcs	0, 0, cr0, cr1, cr0, {0}
      1c:	2e2e2f2e 	cdpcs	15, 2, cr2, cr14, cr14, {1}
      20:	736d632f 	cmnvc	sp, #-1140850688	; 0xbc000000
      24:	4d2f7369 	stcmi	3, cr7, [pc, #-420]!	; fffffe88 <__stack+0xdfff9e88>
      28:	36344c4b 	ldrtcc	r4, [r4], -fp, asr #24
      2c:	2f00345a 	svccs	0x0000345a
      30:	656d6f68 	strbvs	r6, [sp, #-3944]!	; 0xfffff098
      34:	75616c2f 	strbvc	r6, [r1, #-3119]!	; 0xfffff3d1
      38:	2f656972 	svccs	0x00656972
      3c:	2d636367 	stclcs	3, cr6, [r3, #-412]!	; 0xfffffe64
      40:	2f6d7261 	svccs	0x006d7261
      44:	2d6d7261 	sfmcs	f7, 2, [sp, #-388]!	; 0xfffffe7c
      48:	656e6f6e 	strbvs	r6, [lr, #-3950]!	; 0xfffff092
      4c:	6261652d 	rsbvs	r6, r1, #188743680	; 0xb400000
      50:	6e692f69 	cdpvs	15, 6, cr2, cr9, cr9, {3}
      54:	64756c63 	ldrbtvs	r6, [r5], #-3171	; 0xfffff39d
      58:	616d2f65 	cmnvs	sp, r5, ror #30
      5c:	6e696863 	cdpvs	8, 6, cr6, cr9, cr3, {3}
      60:	682f0065 	stmdavs	pc!, {r0, r2, r5, r6}	; <UNPREDICTABLE>
      64:	2f656d6f 	svccs	0x00656d6f
      68:	7275616c 	rsbsvc	r6, r5, #108, 2
      6c:	672f6569 	strvs	r6, [pc, -r9, ror #10]!
      70:	612d6363 			; <UNDEFINED> instruction: 0x612d6363
      74:	612f6d72 			; <UNDEFINED> instruction: 0x612f6d72
      78:	6e2d6d72 	mcrvs	13, 1, r6, cr13, cr2, {3}
      7c:	2d656e6f 	stclcs	14, cr6, [r5, #-444]!	; 0xfffffe44
      80:	69626165 	stmdbvs	r2!, {r0, r2, r5, r6, r8, sp, lr}^
      84:	636e692f 	cmnvs	lr, #770048	; 0xbc000
      88:	6564756c 	strbvs	r7, [r4, #-1388]!	; 0xfffffa94
      8c:	7379732f 	cmnvc	r9, #-1140850688	; 0xbc000000
      90:	79730000 	ldmdbvc	r3!, {}^	; <UNPREDICTABLE>
      94:	6d657473 	cfstrdvs	mvd7, [r5, #-460]!	; 0xfffffe34
      98:	4c4b4d5f 	mcrrmi	13, 5, r4, fp, cr15
      9c:	345a3634 	ldrbcc	r3, [sl], #-1588	; 0xfffff9cc
      a0:	0100632e 	tsteq	r0, lr, lsr #6
      a4:	645f0000 	ldrbvs	r0, [pc], #-0	; ac <Heap_Size+0x2c>
      a8:	75616665 	strbvc	r6, [r1, #-1637]!	; 0xfffff99b
      ac:	745f746c 	ldrbvc	r7, [pc], #-1132	; b4 <Heap_Size+0x34>
      b0:	73657079 	cmnvc	r5, #121	; 0x79
      b4:	0200682e 	andeq	r6, r0, #3014656	; 0x2e0000
      b8:	735f0000 	cmpvc	pc, #0
      bc:	6e696474 	mcrvs	4, 3, r6, cr9, cr4, {3}
      c0:	00682e74 	rsbeq	r2, r8, r4, ror lr
      c4:	4d000003 	stcmi	0, cr0, [r0, #-12]
      c8:	36344c4b 	ldrtcc	r4, [r4], -fp, asr #24
      cc:	682e345a 	stmdavs	lr!, {r1, r3, r4, r6, sl, ip, sp}
      d0:	00000100 	andeq	r0, r0, r0, lsl #2
      d4:	02050000 	andeq	r0, r5, #0
      d8:	000004e8 	andeq	r0, r0, r8, ror #9
      dc:	0100e003 	tsteq	r0, r3
      e0:	1c032a16 	stcne	10, cr2, [r3], {22}
      e4:	20680320 	rsbcs	r0, r8, r0, lsr #6
      e8:	03201803 			; <UNDEFINED> instruction: 0x03201803
      ec:	18032068 	stmdane	r3, {r3, r5, r6, sp}
      f0:	5a3e4c2e 	bpl	f931b0 <__exidx_end+0xf91408>
      f4:	303e763f 	eorscc	r7, lr, pc, lsr r6
      f8:	0021304c 	eoreq	r3, r1, ip, asr #32
      fc:	06010402 	streq	r0, [r1], -r2, lsl #8
     100:	003e0620 	eorseq	r0, lr, r0, lsr #12
     104:	06010402 	streq	r0, [r1], -r2, lsl #8
     108:	3d4e0620 	stclcc	6, cr0, [lr, #-128]	; 0xffffff80
     10c:	01040200 	mrseq	r0, R12_usr
     110:	4c062006 	stcmi	0, cr2, [r6], {6}
     114:	01040200 	mrseq	r0, R12_usr
     118:	40062006 	andmi	r2, r6, r6
     11c:	0402003d 	streq	r0, [r2], #-61	; 0xffffffc3
     120:	06200601 	strteq	r0, [r0], -r1, lsl #12
     124:	084a2203 	stmdaeq	sl, {r0, r1, r9, sp}^
     128:	00010100 	andeq	r0, r1, r0, lsl #2
     12c:	00000205 	andeq	r0, r0, r5, lsl #4
     130:	c6030000 	strgt	r0, [r3], -r0
     134:	1c160101 	ldfnes	f0, [r6], {1}
     138:	403e5a24 	eorsmi	r5, lr, r4, lsr #20
     13c:	4b67211f 	blmi	19c85c0 <__exidx_end+0x19c6818>
     140:	3abc3131 	bcc	fef0c60c <__stack+0xdef0660c>
     144:	03580e03 	cmpeq	r8, #3, 28	; 0x30
     148:	17033c72 	smlsdxne	r3, r2, ip, r3
     14c:	2e6e034a 	cdpcs	3, 6, cr0, cr14, cr10, {2}
     150:	223d223d 	eorscs	r2, sp, #-805306365	; 0xd0000003
     154:	21233f42 			; <UNDEFINED> instruction: 0x21233f42
     158:	59211f27 	stmdbpl	r1!, {r0, r1, r2, r5, r8, r9, sl, fp, ip}
     15c:	3f4c4c21 	svccc	0x004c4c21
     160:	7a034c68 	bvc	d3308 <__exidx_end+0xd1560>
     164:	2e0b032e 	cdpcs	3, 0, cr0, cr11, cr14, {1}
     168:	01000891 			; <UNDEFINED> instruction: 0x01000891
     16c:	0001a201 	andeq	sl, r1, r1, lsl #4
     170:	1e000200 	cdpne	2, 0, cr0, cr0, cr0, {0}
     174:	02000001 	andeq	r0, r0, #1
     178:	0d0efb01 	vstreq	d15, [lr, #-4]
     17c:	01010100 	mrseq	r0, (UNDEF: 17)
     180:	00000001 	andeq	r0, r0, r1
     184:	01000001 	tsteq	r0, r1
     188:	6d6f682f 	stclvs	8, cr6, [pc, #-188]!	; d4 <.flash_to_ram_loop+0x8>
     18c:	616c2f65 	cmnvs	ip, r5, ror #30
     190:	65697275 	strbvs	r7, [r9, #-629]!	; 0xfffffd8b
     194:	6363672f 	cmnvs	r3, #12320768	; 0xbc0000
     198:	6d72612d 	ldfvse	f6, [r2, #-180]!	; 0xffffff4c
     19c:	6d72612f 	ldfvse	f6, [r2, #-188]!	; 0xffffff44
     1a0:	6e6f6e2d 	cdpvs	14, 6, cr6, cr15, cr13, {1}
     1a4:	61652d65 	cmnvs	r5, r5, ror #26
     1a8:	692f6962 	stmdbvs	pc!, {r1, r5, r6, r8, fp, sp, lr}	; <UNPREDICTABLE>
     1ac:	756c636e 	strbvc	r6, [ip, #-878]!	; 0xfffffc92
     1b0:	6d2f6564 	cfstr32vs	mvfx6, [pc, #-400]!	; 28 <__isr_vector+0x28>
     1b4:	69686361 	stmdbvs	r8!, {r0, r5, r6, r8, r9, sp, lr}^
     1b8:	2f00656e 	svccs	0x0000656e
     1bc:	656d6f68 	strbvs	r6, [sp, #-3944]!	; 0xfffff098
     1c0:	75616c2f 	strbvc	r6, [r1, #-3119]!	; 0xfffff3d1
     1c4:	2f656972 	svccs	0x00656972
     1c8:	2d636367 	stclcs	3, cr6, [r3, #-412]!	; 0xfffffe64
     1cc:	2f6d7261 	svccs	0x006d7261
     1d0:	2d6d7261 	sfmcs	f7, 2, [sp, #-388]!	; 0xfffffe7c
     1d4:	656e6f6e 	strbvs	r6, [lr, #-3950]!	; 0xfffff092
     1d8:	6261652d 	rsbvs	r6, r1, #188743680	; 0xb400000
     1dc:	6e692f69 	cdpvs	15, 6, cr2, cr9, cr9, {3}
     1e0:	64756c63 	ldrbtvs	r6, [r5], #-3171	; 0xfffff39d
     1e4:	79732f65 	ldmdbvc	r3!, {r0, r2, r5, r6, r8, r9, sl, fp, sp}^
     1e8:	2e2e0073 	mcrcs	0, 1, r0, cr14, cr3, {3}
     1ec:	2f2e2e2f 	svccs	0x002e2e2f
     1f0:	69736d63 	ldmdbvs	r3!, {r0, r1, r5, r6, r8, sl, fp, sp, lr}^
     1f4:	4b4d2f73 	blmi	134bfc8 <__exidx_end+0x134a220>
     1f8:	5a36344c 	bpl	d8d330 <__exidx_end+0xd8b588>
     1fc:	2e2e0034 	mcrcs	0, 1, r0, cr14, cr4, {1}
     200:	2f2e2e2f 	svccs	0x002e2e2f
     204:	7362696c 	cmnvc	r2, #108, 18	; 0x1b0000
     208:	6572462f 	ldrbvs	r4, [r2, #-1583]!	; 0xfffff9d1
     20c:	4f545265 	svcmi	0x00545265
     210:	6f702f53 	svcvs	0x00702f53
     214:	672f7472 			; <UNDEFINED> instruction: 0x672f7472
     218:	2e006363 	cdpcs	3, 0, cr6, cr0, cr3, {3}
     21c:	2e2e2f2e 	cdpcs	15, 2, cr2, cr14, cr14, {1}
     220:	62696c2f 	rsbvs	r6, r9, #12032	; 0x2f00
     224:	72462f73 	subvc	r2, r6, #460	; 0x1cc
     228:	54526565 	ldrbpl	r6, [r2], #-1381	; 0xfffffa9b
     22c:	692f534f 	stmdbvs	pc!, {r0, r1, r2, r3, r6, r8, r9, ip, lr}	; <UNPREDICTABLE>
     230:	756c636e 	strbvc	r6, [ip, #-878]!	; 0xfffffc92
     234:	00006564 	andeq	r6, r0, r4, ror #10
     238:	6e69616d 	powvsez	f6, f1, #5.0
     23c:	0000632e 	andeq	r6, r0, lr, lsr #6
     240:	645f0000 	ldrbvs	r0, [pc], #-0	; 248 <.flash_to_ram_loop_end+0x172>
     244:	75616665 	strbvc	r6, [r1, #-1637]!	; 0xfffff99b
     248:	745f746c 	ldrbvc	r7, [pc], #-1132	; 250 <.flash_to_ram_loop_end+0x17a>
     24c:	73657079 	cmnvc	r5, #121	; 0x79
     250:	0100682e 	tsteq	r0, lr, lsr #16
     254:	735f0000 	cmpvc	pc, #0
     258:	6e696474 	mcrvs	4, 3, r6, cr9, cr4, {3}
     25c:	00682e74 	rsbeq	r2, r8, r4, ror lr
     260:	4d000002 	stcmi	0, cr0, [r0, #-8]
     264:	36344c4b 	ldrtcc	r4, [r4], -fp, asr #24
     268:	682e345a 	stmdavs	lr!, {r1, r3, r4, r6, sl, ip, sp}
     26c:	00000300 	andeq	r0, r0, r0, lsl #6
     270:	74726f70 	ldrbtvc	r6, [r2], #-3952	; 0xfffff090
     274:	7263616d 	rsbvc	r6, r3, #1073741851	; 0x4000001b
     278:	00682e6f 	rsbeq	r2, r8, pc, ror #28
     27c:	71000004 	tstvc	r0, r4
     280:	65756575 	ldrbvs	r6, [r5, #-1397]!	; 0xfffffa8b
     284:	0500682e 	streq	r6, [r0, #-2094]	; 0xfffff7d2
     288:	61740000 	cmnvs	r4, r0
     28c:	682e6b73 	stmdavs	lr!, {r0, r1, r4, r5, r6, r8, r9, fp, sp, lr}
     290:	00000500 	andeq	r0, r0, r0, lsl #10
     294:	02050000 	andeq	r0, r5, #0
     298:	00000598 	muleq	r0, r8, r5
     29c:	26011a03 	strcs	r1, [r1], -r3, lsl #20
     2a0:	3075832c 	rsbscc	r8, r5, ip, lsr #6
     2a4:	000a0267 	andeq	r0, sl, r7, ror #4
     2a8:	05000101 	streq	r0, [r0, #-257]	; 0xfffffeff
     2ac:	0005e002 	andeq	lr, r5, r2
     2b0:	010d0300 	mrseq	r0, SP_mon
     2b4:	00231d15 	eoreq	r1, r3, r5, lsl sp
     2b8:	23010402 	movwcs	r0, #5122	; 0x1402
     2bc:	01040200 	mrseq	r0, R12_usr
     2c0:	04020021 	streq	r0, [r2], #-33	; 0xffffffdf
     2c4:	02001f01 	andeq	r1, r0, #1, 30
     2c8:	002f0104 	eoreq	r0, pc, r4, lsl #2
     2cc:	2f010402 	svccs	0x00010402
     2d0:	01000b02 	tsteq	r0, r2, lsl #22
     2d4:	02050001 	andeq	r0, r5, #1
     2d8:	00000608 	andeq	r0, r0, r8, lsl #12
     2dc:	13013c03 	movwne	r3, #7171	; 0x1c03
     2e0:	1e4c211f 	mcrne	1, 2, r2, cr12, cr15, {0}
     2e4:	2f211f21 	svccs	0x00211f21
     2e8:	5a4c211f 	bpl	130876c <__exidx_end+0x13069c4>
     2ec:	211f211f 	tstcs	pc, pc, lsl r1	; <UNPREDICTABLE>
     2f0:	022f1121 	eoreq	r1, pc, #1073741832	; 0x40000008
     2f4:	0101000e 	tsteq	r1, lr
     2f8:	60020500 	andvs	r0, r2, r0, lsl #10
     2fc:	03000006 	movweq	r0, #6
     300:	2f210129 	svccs	0x00210129
     304:	1f211d4d 	svcne	0x00211d4d
     308:	2f684c21 	svccs	0x00684c21
     30c:	1202aebc 	andne	sl, r2, #188, 28	; 0xbc0
     310:	11010100 	mrsne	r0, (UNDEF: 17)
     314:	02000001 	andeq	r0, r0, #1
     318:	0000d900 	andeq	sp, r0, r0, lsl #18
     31c:	fb010200 	blx	40b26 <__exidx_end+0x3ed7e>
     320:	01000d0e 	tsteq	r0, lr, lsl #26
     324:	00010101 	andeq	r0, r1, r1, lsl #2
     328:	00010000 	andeq	r0, r1, r0
     32c:	2e2e0100 	sufcse	f0, f6, f0
     330:	2f2e2e2f 	svccs	0x002e2e2f
     334:	7362696c 	cmnvc	r2, #108, 18	; 0x1b0000
     338:	6572462f 	ldrbvs	r4, [r2, #-1583]!	; 0xfffff9d1
     33c:	4f545265 	svcmi	0x00545265
     340:	72732f53 	rsbsvc	r2, r3, #332	; 0x14c
     344:	2e2e0063 	cdpcs	0, 2, cr0, cr14, cr3, {3}
     348:	2f2e2e2f 	svccs	0x002e2e2f
     34c:	7362696c 	cmnvc	r2, #108, 18	; 0x1b0000
     350:	6572462f 	ldrbvs	r4, [r2, #-1583]!	; 0xfffff9d1
     354:	4f545265 	svcmi	0x00545265
     358:	6e692f53 	mcrvs	15, 3, r2, cr9, cr3, {2}
     35c:	64756c63 	ldrbtvs	r6, [r5], #-3171	; 0xfffff39d
     360:	682f0065 	stmdavs	pc!, {r0, r2, r5, r6}	; <UNPREDICTABLE>
     364:	2f656d6f 	svccs	0x00656d6f
     368:	7275616c 	rsbsvc	r6, r5, #108, 2
     36c:	672f6569 	strvs	r6, [pc, -r9, ror #10]!
     370:	612d6363 			; <UNDEFINED> instruction: 0x612d6363
     374:	612f6d72 			; <UNDEFINED> instruction: 0x612f6d72
     378:	6e2d6d72 	mcrvs	13, 1, r6, cr13, cr2, {3}
     37c:	2d656e6f 	stclcs	14, cr6, [r5, #-444]!	; 0xfffffe44
     380:	69626165 	stmdbvs	r2!, {r0, r2, r5, r6, r8, sp, lr}^
     384:	636e692f 	cmnvs	lr, #770048	; 0xbc000
     388:	6564756c 	strbvs	r7, [r4, #-1388]!	; 0xfffffa94
     38c:	6f682f00 	svcvs	0x00682f00
     390:	6c2f656d 	cfstr32vs	mvfx6, [pc], #-436	; 1e4 <.flash_to_ram_loop_end+0x10e>
     394:	69727561 	ldmdbvs	r2!, {r0, r5, r6, r8, sl, ip, sp, lr}^
     398:	63672f65 	cmnvs	r7, #404	; 0x194
     39c:	72612d63 	rsbvc	r2, r1, #6336	; 0x18c0
     3a0:	696c2f6d 	stmdbvs	ip!, {r0, r2, r3, r5, r6, r8, r9, sl, fp, sp}^
     3a4:	63672f62 	cmnvs	r7, #392	; 0x188
     3a8:	72612f63 	rsbvc	r2, r1, #396	; 0x18c
     3ac:	6f6e2d6d 	svcvs	0x006e2d6d
     3b0:	652d656e 	strvs	r6, [sp, #-1390]!	; 0xfffffa92
     3b4:	2f696261 	svccs	0x00696261
     3b8:	2e342e35 	mrccs	14, 1, r2, cr4, cr5, {1}
     3bc:	6e692f31 	mcrvs	15, 3, r2, cr9, cr1, {1}
     3c0:	64756c63 	ldrbtvs	r6, [r5], #-3171	; 0xfffff39d
     3c4:	68000065 	stmdavs	r0, {r0, r2, r5, r6}
     3c8:	5f706165 	svcpl	0x00706165
     3cc:	00632e33 	rsbeq	r2, r3, r3, lsr lr
     3d0:	74000001 	strvc	r0, [r0], #-1
     3d4:	2e6b7361 	cdpcs	3, 6, cr7, cr11, cr1, {3}
     3d8:	00020068 	andeq	r0, r2, r8, rrx
     3dc:	64747300 	ldrbtvs	r7, [r4], #-768	; 0xfffffd00
     3e0:	2e62696c 	cdpcs	9, 6, cr6, cr2, cr12, {3}
     3e4:	00030068 	andeq	r0, r3, r8, rrx
     3e8:	64747300 	ldrbtvs	r7, [r4], #-768	; 0xfffffd00
     3ec:	2e666564 	cdpcs	5, 6, cr6, cr6, cr4, {3}
     3f0:	00040068 	andeq	r0, r4, r8, rrx
     3f4:	05000000 	streq	r0, [r0, #-0]
     3f8:	0006e002 	andeq	lr, r6, r2
     3fc:	00e50300 	rsceq	r0, r5, r0, lsl #6
     400:	30232001 	eorcc	r2, r3, r1
     404:	034a1003 	movteq	r1, #40963	; 0xa003
     408:	0d030173 	stfeqs	f0, [r3, #-460]	; 0xfffffe34
     40c:	0002022e 	andeq	r0, r2, lr, lsr #4
     410:	05000101 	streq	r0, [r0, #-257]	; 0xfffffeff
     414:	0006f802 	andeq	pc, r6, r2, lsl #16
     418:	00fe0300 	rscseq	r0, lr, r0, lsl #6
     41c:	22212001 	eorcs	r2, r1, #1
     420:	02303f30 	eorseq	r3, r0, #48, 30	; 0xc0
     424:	01010001 	tsteq	r1, r1
     428:	00000659 	andeq	r0, r0, r9, asr r6
     42c:	01aa0002 			; <UNDEFINED> instruction: 0x01aa0002
     430:	01020000 	mrseq	r0, (UNDEF: 2)
     434:	000d0efb 	strdeq	r0, [sp], -fp
     438:	01010101 	tsteq	r1, r1, lsl #2
     43c:	01000000 	mrseq	r0, (UNDEF: 0)
     440:	2e010000 	cdpcs	0, 0, cr0, cr1, cr0, {0}
     444:	2e2e2f2e 	cdpcs	15, 2, cr2, cr14, cr14, {1}
     448:	62696c2f 	rsbvs	r6, r9, #12032	; 0x2f00
     44c:	72462f73 	subvc	r2, r6, #460	; 0x1cc
     450:	54526565 	ldrbpl	r6, [r2], #-1381	; 0xfffffa9b
     454:	732f534f 			; <UNDEFINED> instruction: 0x732f534f
     458:	2f006372 	svccs	0x00006372
     45c:	656d6f68 	strbvs	r6, [sp, #-3944]!	; 0xfffff098
     460:	75616c2f 	strbvc	r6, [r1, #-3119]!	; 0xfffff3d1
     464:	2f656972 	svccs	0x00656972
     468:	2d636367 	stclcs	3, cr6, [r3, #-412]!	; 0xfffffe64
     46c:	2f6d7261 	svccs	0x006d7261
     470:	2f62696c 	svccs	0x0062696c
     474:	2f636367 	svccs	0x00636367
     478:	2d6d7261 	sfmcs	f7, 2, [sp, #-388]!	; 0xfffffe7c
     47c:	656e6f6e 	strbvs	r6, [lr, #-3950]!	; 0xfffff092
     480:	6261652d 	rsbvs	r6, r1, #188743680	; 0xb400000
     484:	2e352f69 	cdpcs	15, 3, cr2, cr5, cr9, {3}
     488:	2f312e34 	svccs	0x00312e34
     48c:	6c636e69 	stclvs	14, cr6, [r3], #-420	; 0xfffffe5c
     490:	00656475 	rsbeq	r6, r5, r5, ror r4
     494:	6d6f682f 	stclvs	8, cr6, [pc, #-188]!	; 3e0 <.flash_to_ram_loop_end+0x30a>
     498:	616c2f65 	cmnvs	ip, r5, ror #30
     49c:	65697275 	strbvs	r7, [r9, #-629]!	; 0xfffffd8b
     4a0:	6363672f 	cmnvs	r3, #12320768	; 0xbc0000
     4a4:	6d72612d 	ldfvse	f6, [r2, #-180]!	; 0xffffff4c
     4a8:	6d72612f 	ldfvse	f6, [r2, #-188]!	; 0xffffff44
     4ac:	6e6f6e2d 	cdpvs	14, 6, cr6, cr15, cr13, {1}
     4b0:	61652d65 	cmnvs	r5, r5, ror #26
     4b4:	692f6962 	stmdbvs	pc!, {r1, r5, r6, r8, fp, sp, lr}	; <UNPREDICTABLE>
     4b8:	756c636e 	strbvc	r6, [ip, #-878]!	; 0xfffffc92
     4bc:	6d2f6564 	cfstr32vs	mvfx6, [pc, #-400]!	; 334 <.flash_to_ram_loop_end+0x25e>
     4c0:	69686361 	stmdbvs	r8!, {r0, r5, r6, r8, r9, sp, lr}^
     4c4:	2f00656e 	svccs	0x0000656e
     4c8:	656d6f68 	strbvs	r6, [sp, #-3944]!	; 0xfffff098
     4cc:	75616c2f 	strbvc	r6, [r1, #-3119]!	; 0xfffff3d1
     4d0:	2f656972 	svccs	0x00656972
     4d4:	2d636367 	stclcs	3, cr6, [r3, #-412]!	; 0xfffffe64
     4d8:	2f6d7261 	svccs	0x006d7261
     4dc:	2d6d7261 	sfmcs	f7, 2, [sp, #-388]!	; 0xfffffe7c
     4e0:	656e6f6e 	strbvs	r6, [lr, #-3950]!	; 0xfffff092
     4e4:	6261652d 	rsbvs	r6, r1, #188743680	; 0xb400000
     4e8:	6e692f69 	cdpvs	15, 6, cr2, cr9, cr9, {3}
     4ec:	64756c63 	ldrbtvs	r6, [r5], #-3171	; 0xfffff39d
     4f0:	79732f65 	ldmdbvc	r3!, {r0, r2, r5, r6, r8, r9, sl, fp, sp}^
     4f4:	2e2e0073 	mcrcs	0, 1, r0, cr14, cr3, {3}
     4f8:	2f2e2e2f 	svccs	0x002e2e2f
     4fc:	7362696c 	cmnvc	r2, #108, 18	; 0x1b0000
     500:	6572462f 	ldrbvs	r4, [r2, #-1583]!	; 0xfffff9d1
     504:	4f545265 	svcmi	0x00545265
     508:	6f702f53 	svcvs	0x00702f53
     50c:	672f7472 			; <UNDEFINED> instruction: 0x672f7472
     510:	2e006363 	cdpcs	3, 0, cr6, cr0, cr3, {3}
     514:	2e2e2f2e 	cdpcs	15, 2, cr2, cr14, cr14, {1}
     518:	62696c2f 	rsbvs	r6, r9, #12032	; 0x2f00
     51c:	72462f73 	subvc	r2, r6, #460	; 0x1cc
     520:	54526565 	ldrbpl	r6, [r2], #-1381	; 0xfffffa9b
     524:	692f534f 	stmdbvs	pc!, {r0, r1, r2, r3, r6, r8, r9, ip, lr}	; <UNPREDICTABLE>
     528:	756c636e 	strbvc	r6, [ip, #-878]!	; 0xfffffc92
     52c:	2f006564 	svccs	0x00006564
     530:	656d6f68 	strbvs	r6, [sp, #-3944]!	; 0xfffff098
     534:	75616c2f 	strbvc	r6, [r1, #-3119]!	; 0xfffff3d1
     538:	2f656972 	svccs	0x00656972
     53c:	2d636367 	stclcs	3, cr6, [r3, #-412]!	; 0xfffffe64
     540:	2f6d7261 	svccs	0x006d7261
     544:	2d6d7261 	sfmcs	f7, 2, [sp, #-388]!	; 0xfffffe7c
     548:	656e6f6e 	strbvs	r6, [lr, #-3950]!	; 0xfffff092
     54c:	6261652d 	rsbvs	r6, r1, #188743680	; 0xb400000
     550:	6e692f69 	cdpvs	15, 6, cr2, cr9, cr9, {3}
     554:	64756c63 	ldrbtvs	r6, [r5], #-3171	; 0xfffff39d
     558:	71000065 	tstvc	r0, r5, rrx
     55c:	65756575 	ldrbvs	r6, [r5, #-1397]!	; 0xfffffa8b
     560:	0100632e 	tsteq	r0, lr, lsr #6
     564:	74730000 	ldrbtvc	r0, [r3], #-0
     568:	66656464 	strbtvs	r6, [r5], -r4, ror #8
     56c:	0200682e 	andeq	r6, r0, #3014656	; 0x2e0000
     570:	645f0000 	ldrbvs	r0, [pc], #-0	; 578 <SystemInit+0x90>
     574:	75616665 	strbvc	r6, [r1, #-1637]!	; 0xfffff99b
     578:	745f746c 	ldrbvc	r7, [pc], #-1132	; 580 <SystemInit+0x98>
     57c:	73657079 	cmnvc	r5, #121	; 0x79
     580:	0300682e 	movweq	r6, #2094	; 0x82e
     584:	735f0000 	cmpvc	pc, #0
     588:	6e696474 	mcrvs	4, 3, r6, cr9, cr4, {3}
     58c:	00682e74 	rsbeq	r2, r8, r4, ror lr
     590:	70000004 	andvc	r0, r0, r4
     594:	6d74726f 	lfmvs	f7, 2, [r4, #-444]!	; 0xfffffe44
     598:	6f726361 	svcvs	0x00726361
     59c:	0500682e 	streq	r6, [r0, #-2094]	; 0xfffff7d2
     5a0:	696c0000 	stmdbvs	ip!, {}^	; <UNPREDICTABLE>
     5a4:	682e7473 	stmdavs	lr!, {r0, r1, r4, r5, r6, sl, ip, sp, lr}
     5a8:	00000600 	andeq	r0, r0, r0, lsl #12
     5ac:	6b736174 	blvs	1cd8b84 <__exidx_end+0x1cd6ddc>
     5b0:	0600682e 	streq	r6, [r0], -lr, lsr #16
     5b4:	75710000 	ldrbvc	r0, [r1, #-0]!
     5b8:	2e657565 	cdpcs	5, 6, cr7, cr5, cr5, {3}
     5bc:	00060068 	andeq	r0, r6, r8, rrx
     5c0:	72747300 	rsbsvc	r7, r4, #0, 6
     5c4:	2e676e69 	cdpcs	14, 6, cr6, cr7, cr9, {3}
     5c8:	00070068 	andeq	r0, r7, r8, rrx
     5cc:	726f7000 	rsbvc	r7, pc, #0
     5d0:	6c626174 	stfvse	f6, [r2], #-464	; 0xfffffe30
     5d4:	00682e65 	rsbeq	r2, r8, r5, ror #28
     5d8:	00000006 	andeq	r0, r0, r6
     5dc:	0e020500 	cfsh32eq	mvfx0, mvfx2, #0
     5e0:	03000007 	movweq	r0, #7
     5e4:	20010df7 	strdcs	r0, [r1], -r7
     5e8:	32231d23 	eorcc	r1, r3, #2240	; 0x8c0
     5ec:	09033d3f 	stmdbeq	r3, {r0, r1, r2, r3, r4, r5, r8, sl, fp, ip, sp}
     5f0:	3d3d302e 	ldccc	0, cr3, [sp, #-184]!	; 0xffffff48
     5f4:	0330211f 	teqeq	r0, #-1073741817	; 0xc0000007
     5f8:	19032067 	stmdbne	r3, {r0, r1, r2, r5, r6, sp}
     5fc:	2e090320 	cdpcs	3, 0, cr0, cr9, cr0, {1}
     600:	2f1f3d3d 	svccs	0x001f3d3d
     604:	42304330 	eorsmi	r4, r0, #48, 6	; 0xc0000000
     608:	033c4b03 	teqeq	ip, #3072	; 0xc00
     60c:	232000c2 			; <UNDEFINED> instruction: 0x232000c2
     610:	0102310f 	tsteq	r2, pc, lsl #2
     614:	00010100 	andeq	r0, r1, r0, lsl #2
     618:	07800205 	streq	r0, [r0, r5, lsl #4]
     61c:	c1030000 	mrsgt	r0, (UNDEF: 3)
     620:	1f21010e 	svcne	0x0021010e
     624:	21302120 	teqcs	r0, r0, lsr #2
     628:	34302f1f 	ldrtcc	r2, [r0], #-3871	; 0xfffff0e1
     62c:	0001023e 	andeq	r0, r1, lr, lsr r2
     630:	05000101 	streq	r0, [r0, #-257]	; 0xfffffeff
     634:	0007a402 	andeq	sl, r7, r2, lsl #8
     638:	0ed30300 	cdpeq	3, 13, cr0, cr3, cr0, {0}
     63c:	31272001 			; <UNDEFINED> instruction: 0x31272001
     640:	3e3c2f03 	cdpcc	15, 3, cr2, cr12, cr3, {0}
     644:	2e0e036a 	cdpcs	3, 0, cr0, cr14, cr10, {3}
     648:	30313e4d 	eorscc	r3, r1, sp, asr #28
     64c:	35683e3e 	strbcc	r3, [r8, #-3646]!	; 0xfffff1c2
     650:	022f3e52 	eoreq	r3, pc, #1312	; 0x520
     654:	01010001 	tsteq	r1, r1
     658:	0e020500 	cfsh32eq	mvfx0, mvfx2, #0
     65c:	03000008 	movweq	r0, #8
     660:	20010284 	andcs	r0, r1, r4, lsl #5
     664:	04020031 	streq	r0, [r2], #-49	; 0xffffffcf
     668:	062e0601 	strteq	r0, [lr], -r1, lsl #12
     66c:	3d5b303e 	ldclcc	0, cr3, [fp, #-248]	; 0xffffff08
     670:	1d23211c 	stfnes	f2, [r3, #-112]!	; 0xffffff90
     674:	22212221 	eorcs	r2, r1, #268435458	; 0x10000002
     678:	03683e35 	cmneq	r8, #848	; 0x350
     67c:	4d4b3c0f 	stclmi	12, cr3, [fp, #-60]	; 0xffffffc4
     680:	00020233 	andeq	r0, r2, r3, lsr r2
     684:	05000101 	streq	r0, [r0, #-257]	; 0xfffffeff
     688:	00087602 	andeq	r7, r8, r2, lsl #12
     68c:	02b90300 	adcseq	r0, r9, #0, 6
     690:	0a032001 	beq	c869c <__exidx_end+0xc68f4>
     694:	0402002e 	streq	r0, [r2], #-46	; 0xffffffd2
     698:	062e0601 	strteq	r0, [lr], -r1, lsl #12
     69c:	09031d41 	stmdbeq	r3, {r0, r6, r8, sl, fp, ip}
     6a0:	244c402e 	strbcs	r4, [ip], #-46	; 0xffffffd2
     6a4:	1d033434 	cfstrsne	mvf3, [r3, #-208]	; 0xffffff30
     6a8:	3c68034a 	stclcc	3, cr0, [r8], #-296	; 0xfffffed8
     6ac:	19032121 	stmdbne	r3, {r0, r5, r8, sp}
     6b0:	0002024a 	andeq	r0, r2, sl, asr #4
     6b4:	05000101 	streq	r0, [r0, #-257]	; 0xfffffeff
     6b8:	00000002 	andeq	r0, r0, r2
     6bc:	03cb0300 	biceq	r0, fp, #0, 6
     6c0:	10032001 	andne	r2, r3, r1
     6c4:	20780320 	rsbscs	r0, r8, r0, lsr #6
     6c8:	31273e30 			; <UNDEFINED> instruction: 0x31273e30
     6cc:	01000202 	tsteq	r0, r2, lsl #4
     6d0:	02050001 	andeq	r0, r5, #1
     6d4:	00000000 	andeq	r0, r0, r0
     6d8:	0104ca03 	tsteq	r4, r3, lsl #20
     6dc:	02002320 	andeq	r2, r0, #32, 6	; 0x80000000
     6e0:	2e060104 	adfcss	f0, f6, f4
     6e4:	02003d06 	andeq	r3, r0, #384	; 0x180
     6e8:	2e060104 	adfcss	f0, f6, f4
     6ec:	034c3e06 	movteq	r3, #52742	; 0xce06
     6f0:	77032e0b 	strvc	r2, [r3, -fp, lsl #28]
     6f4:	200b033c 	andcs	r0, fp, ip, lsr r3
     6f8:	01000102 	tsteq	r0, r2, lsl #2
     6fc:	02050001 	andeq	r0, r5, #1
     700:	000008c2 	andeq	r0, r0, r2, asr #17
     704:	0104e503 	tsteq	r4, r3, lsl #10
     708:	02004f2e 	andeq	r4, r0, #46, 30	; 0xb8
     70c:	2e060104 	adfcss	f0, f6, f4
     710:	02003d06 	andeq	r3, r0, #384	; 0x180
     714:	3c060204 	sfmcc	f0, 4, [r6], {4}
     718:	003d063c 	eorseq	r0, sp, ip, lsr r6
     71c:	06020402 	streq	r0, [r2], -r2, lsl #8
     720:	3f063c2e 	svccc	0x00063c2e
     724:	02040200 	andeq	r0, r4, #0, 4
     728:	03065806 	movweq	r5, #26630	; 0x6806
     72c:	324a00f8 	subcc	r0, sl, #248	; 0xf8
     730:	333c0a03 	teqcc	ip, #12288	; 0x3000
     734:	0402002f 	streq	r0, [r2], #-47	; 0xffffffd1
     738:	00580601 	subseq	r0, r8, r1, lsl #12
     73c:	2e030402 	cdpcs	4, 0, cr0, cr3, cr2, {0}
     740:	04040200 	streq	r0, [r4], #-512	; 0xfffffe00
     744:	0402003c 	streq	r0, [r2], #-60	; 0xffffffc4
     748:	02002e06 	andeq	r2, r0, #6, 28	; 0x60
     74c:	31060604 	tstcc	r6, r4, lsl #12
     750:	6609f203 	strvs	pc, [r9], -r3, lsl #4
     754:	2e090330 	mcrcs	3, 0, r0, cr9, cr0, {1}
     758:	2e768503 	cdpcs	5, 7, cr8, cr6, cr3, {0}
     75c:	03435f31 	movteq	r5, #16177	; 0x3f31
     760:	34587ee8 	ldrbcc	r7, [r8], #-3816	; 0xfffff118
     764:	01040200 	mrseq	r0, R12_usr
     768:	31064a06 	tstcc	r6, r6, lsl #20
     76c:	3e583703 	cdpcc	7, 5, cr3, cr8, cr3, {0}
     770:	0f03436c 	svceq	0x0003436c
     774:	40322f2e 	eorsmi	r2, r2, lr, lsr #30
     778:	2e2e0333 	mcrcs	3, 1, r0, cr14, cr3, {1}
     77c:	3d423d42 	stclcc	13, cr3, [r2, #-264]	; 0xfffffef8
     780:	7ec90333 	mcrvc	3, 6, r0, cr9, cr3, {1}
     784:	01ba032e 			; <UNDEFINED> instruction: 0x01ba032e
     788:	0002023c 	andeq	r0, r2, ip, lsr r2
     78c:	05000101 	streq	r0, [r0, #-257]	; 0xfffffeff
     790:	00000002 	andeq	r0, r0, r2
     794:	038a0300 	orreq	r0, sl, #0, 6
     798:	034b2801 	movteq	r2, #47105	; 0xb801
     79c:	6103202e 	tstvs	r3, lr, lsr #32
     7a0:	2074033c 	rsbscs	r0, r4, ip, lsr r3
     7a4:	22200c03 	eorcs	r0, r0, #768	; 0x300
     7a8:	0321221d 			; <UNDEFINED> instruction: 0x0321221d
     7ac:	0f032072 	svceq	0x00032072
     7b0:	20720320 	rsbscs	r0, r2, r0, lsr #6
     7b4:	18032124 	stmdane	r3, {r2, r5, r8, sp}
     7b8:	034f3d20 	movteq	r3, #64800	; 0xfd20
     7bc:	02026609 	andeq	r6, r2, #9437184	; 0x900000
     7c0:	00010100 	andeq	r0, r1, r0, lsl #2
     7c4:	00000205 	andeq	r0, r0, r5, lsl #4
     7c8:	e9030000 	stmdb	r3, {}	; <UNPREDICTABLE>
     7cc:	24200103 	strtcs	r0, [r0], #-259	; 0xfffffefd
     7d0:	01040200 	mrseq	r0, R12_usr
     7d4:	44062006 	strmi	r2, [r6], #-6
     7d8:	033c1d03 	teqeq	ip, #3, 26	; 0xc0
     7dc:	09032063 	stmdbeq	r3, {r0, r1, r5, r6, sp}
     7e0:	200e032e 	andcs	r0, lr, lr, lsr #6
     7e4:	31207203 			; <UNDEFINED> instruction: 0x31207203
     7e8:	58130332 	ldmdapl	r3, {r1, r4, r5, r8, r9}
     7ec:	01000202 	tsteq	r0, r2, lsl #4
     7f0:	02050001 	andeq	r0, r5, #1
     7f4:	000009e6 	andeq	r0, r0, r6, ror #19
     7f8:	0108a203 	tsteq	r8, r3, lsl #4
     7fc:	02004f20 	andeq	r4, r0, #32, 30	; 0x80
     800:	2e060104 	adfcss	f0, f6, f4
     804:	02003d06 	andeq	r3, r0, #384	; 0x180
     808:	3c060204 	sfmcc	f0, 4, [r6], {4}
     80c:	003d063c 	eorseq	r0, sp, ip, lsr r6
     810:	06020402 	streq	r0, [r2], -r2, lsl #8
     814:	03063c2e 	movweq	r3, #27694	; 0x6c2e
     818:	2c303c17 	ldccs	12, cr3, [r0], #-92	; 0xffffffa4
     81c:	04020022 	streq	r0, [r2], #-34	; 0xffffffde
     820:	00eb0301 	rsceq	r0, fp, r1, lsl #6
     824:	0402002e 	streq	r0, [r2], #-46	; 0xffffffd2
     828:	7f950301 	svcvc	0x00950301
     82c:	2e090320 	cdpcs	3, 0, cr0, cr9, cr0, {1}
     830:	3c37035c 	ldccc	3, cr0, [r7], #-368	; 0xfffffe90
     834:	03306a3e 	teqeq	r0, #253952	; 0x3e000
     838:	283f3c17 	ldmdacs	pc!, {r0, r1, r2, r4, sl, fp, ip, sp}	; <UNPREDICTABLE>
     83c:	0002023f 	andeq	r0, r2, pc, lsr r2
     840:	05000101 	streq	r0, [r0, #-257]	; 0xfffffeff
     844:	00000002 	andeq	r0, r0, r2
     848:	09b70300 	ldmibeq	r7!, {r8, r9}
     84c:	00332001 	eorseq	r2, r3, r1
     850:	06010402 	streq	r0, [r1], -r2, lsl #8
     854:	003f062e 	eorseq	r0, pc, lr, lsr #12
     858:	06010402 	streq	r0, [r1], -r2, lsl #8
     85c:	1703063c 	smladxne	r3, ip, r6, r0
     860:	2529333c 	strcs	r3, [r9, #-828]!	; 0xfffffcc4
     864:	402e0a03 	eormi	r0, lr, r3, lsl #20
     868:	3e3c3703 	cdpcc	7, 3, cr3, cr12, cr3, {0}
     86c:	1703306a 	strne	r3, [r3, -sl, rrx]
     870:	3f283f3c 	svccc	0x00283f3c
     874:	01000202 	tsteq	r0, r2, lsl #4
     878:	02050001 	andeq	r0, r5, #1
     87c:	00000a6e 	andeq	r0, r0, lr, ror #20
     880:	010ad103 	tsteq	sl, r3, lsl #2
     884:	0200502e 	andeq	r5, r0, #46	; 0x2e
     888:	2e060104 	adfcss	f0, f6, f4
     88c:	02003d06 	andeq	r3, r0, #384	; 0x180
     890:	2e060204 	cdpcs	2, 0, cr0, cr6, cr4, {0}
     894:	003f063c 	eorseq	r0, pc, ip, lsr r6	; <UNPREDICTABLE>
     898:	06020402 	streq	r0, [r2], -r2, lsl #8
     89c:	e7030658 	smlsd	r3, r8, r6, r0
     8a0:	03324a00 	teqeq	r2, #0, 20
     8a4:	2f333c0a 	svccs	0x00333c0a
     8a8:	01040200 	mrseq	r0, R12_usr
     8ac:	02005806 	andeq	r5, r0, #393216	; 0x60000
     8b0:	002e0304 	eoreq	r0, lr, r4, lsl #6
     8b4:	3c040402 	cfstrscc	mvf0, [r4], {2}
     8b8:	06040200 	streq	r0, [r4], -r0, lsl #4
     8bc:	0402002e 	streq	r0, [r2], #-46	; 0xffffffd2
     8c0:	03310606 	teqeq	r1, #6291456	; 0x600000
     8c4:	306603f0 	strdcc	r0, [r6], #-48	; 0xffffffd0	; <UNPREDICTABLE>
     8c8:	03200903 			; <UNDEFINED> instruction: 0x03200903
     8cc:	342e7c87 	strtcc	r7, [lr], #-3207	; 0xfffff379
     8d0:	033e303e 	teqeq	lr, #62	; 0x3e
     8d4:	3d592e09 	ldclcc	14, cr2, [r9, #-36]	; 0xffffffdc
     8d8:	587ef303 	ldmdapl	lr!, {r0, r1, r8, r9, ip, sp, lr, pc}^
     8dc:	222c4232 	eorcs	r4, ip, #536870915	; 0x20000003
     8e0:	40404130 	submi	r4, r0, r0, lsr r1
     8e4:	3e3c0903 	cdpcc	9, 3, cr0, cr12, cr3, {0}
     8e8:	3c160368 	ldccc	3, cr0, [r6], {104}	; 0x68
     8ec:	0332241c 	teqeq	r2, #28, 8	; 0x1c000000
     8f0:	322f6610 	eorcc	r6, pc, #16, 12	; 0x1000000
     8f4:	34033040 	strcc	r3, [r3], #-64	; 0xffffffc0
     8f8:	3c0a032e 	stccc	3, cr0, [sl], {46}	; 0x2e
     8fc:	303d413d 	eorscc	r4, sp, sp, lsr r1
     900:	2e7ed403 	cdpcs	4, 7, cr13, cr14, cr3, {0}
     904:	3c01af03 	stccc	15, cr10, [r1], {3}
     908:	01000202 	tsteq	r0, r2, lsl #4
     90c:	02050001 	andeq	r0, r5, #1
     910:	00000000 	andeq	r0, r0, r0
     914:	0104a003 	tsteq	r4, r3
     918:	02003220 	andeq	r3, r0, #32, 4
     91c:	2e060104 	adfcss	f0, f6, f4
     920:	215a4306 	cmpcs	sl, r6, lsl #6
     924:	306b411f 	rsbcc	r4, fp, pc, lsl r1
     928:	023c0903 	eorseq	r0, ip, #49152	; 0xc000
     92c:	01010001 	tsteq	r1, r1
     930:	00020500 	andeq	r0, r2, r0, lsl #10
     934:	03000000 	movweq	r0, #0
     938:	20010c8e 	andcs	r0, r1, lr, lsl #25
     93c:	04020041 	streq	r0, [r2], #-65	; 0xffffffbf
     940:	062e0601 	strteq	r0, [lr], -r1, lsl #12
     944:	0402003d 	streq	r0, [r2], #-61	; 0xffffffc3
     948:	3c2e0602 	stccc	6, cr0, [lr], #-8
     94c:	3c120306 	ldccc	3, cr0, [r2], {6}
     950:	32231d31 	eorcc	r1, r3, #3136	; 0xc40
     954:	3e3e424b 	cdpcc	2, 3, cr4, cr14, cr11, {2}
     958:	1503306a 	strne	r3, [r3, #-106]	; 0xffffff96
     95c:	24323f3c 	ldrtcs	r3, [r2], #-3900	; 0xfffff0c4
     960:	0002023f 	andeq	r0, r2, pc, lsr r2
     964:	05000101 	streq	r0, [r0, #-257]	; 0xfffffeff
     968:	00000002 	andeq	r0, r0, r2
     96c:	0ce50300 	stcleq	3, cr0, [r5]
     970:	00342001 	eorseq	r2, r4, r1
     974:	06010402 	streq	r0, [r1], -r2, lsl #8
     978:	004b062e 	subeq	r0, fp, lr, lsr #12
     97c:	06020402 	streq	r0, [r2], -r2, lsl #8
     980:	003d062e 	eorseq	r0, sp, lr, lsr #12
     984:	06010402 	streq	r0, [r1], -r2, lsl #8
     988:	033b062e 	teqeq	fp, #48234496	; 0x2e00000
     98c:	11033c13 	tstne	r3, r3, lsl ip
     990:	2072032e 	rsbscs	r0, r2, lr, lsr #6
     994:	2134231d 	teqcs	r4, sp, lsl r3
     998:	3f28224b 	svccc	0x0028224b
     99c:	01000202 	tsteq	r0, r2, lsl #4
     9a0:	02050001 	andeq	r0, r5, #1
     9a4:	00000000 	andeq	r0, r0, r0
     9a8:	010d9b03 	tsteq	sp, r3, lsl #22
     9ac:	02002320 	andeq	r2, r0, #32, 6	; 0x80000000
     9b0:	20060104 	andcs	r0, r6, r4, lsl #2
     9b4:	25303e06 	ldrcs	r3, [r0, #-3590]!	; 0xfffff1fa
     9b8:	0202310f 	andeq	r3, r2, #-1073741821	; 0xc0000003
     9bc:	00010100 	andeq	r0, r1, r0, lsl #2
     9c0:	00000205 	andeq	r0, r0, r5, lsl #4
     9c4:	ab030000 	blge	c09cc <__exidx_end+0xbec24>
     9c8:	2520010d 	strcs	r0, [r0, #-269]!	; 0xfffffef3
     9cc:	01040200 	mrseq	r0, R12_usr
     9d0:	3e062006 	cdpcc	0, 0, cr2, cr6, cr6, {0}
     9d4:	220d3330 	andcs	r3, sp, #48, 6	; 0xc0000000
     9d8:	00020231 	andeq	r0, r2, r1, lsr r2
     9dc:	05000101 	streq	r0, [r0, #-257]	; 0xfffffeff
     9e0:	00000002 	andeq	r0, r0, r2
     9e4:	0dbd0300 	ldceq	3, cr0, [sp]
     9e8:	02002301 	andeq	r2, r0, #67108864	; 0x4000000
     9ec:	2e060104 	adfcss	f0, f6, f4
     9f0:	02233e06 	eoreq	r3, r3, #6, 28	; 0x60
     9f4:	01010001 	tsteq	r1, r1
     9f8:	00020500 	andeq	r0, r2, r0, lsl #10
     9fc:	03000000 	movweq	r0, #0
     a00:	23010dc9 	movwcs	r0, #7625	; 0x1dc9
     a04:	01040200 	mrseq	r0, R12_usr
     a08:	44062e06 	strmi	r2, [r6], #-3590	; 0xfffff1fa
     a0c:	0001022f 	andeq	r0, r1, pc, lsr #4
     a10:	05000101 	streq	r0, [r0, #-257]	; 0xfffffeff
     a14:	00000002 	andeq	r0, r0, r2
     a18:	0fdb0300 	svceq	0x00db0300
     a1c:	02002301 	andeq	r2, r0, #67108864	; 0x4000000
     a20:	2e060104 	adfcss	f0, f6, f4
     a24:	0a033d06 	beq	cfe44 <__exidx_end+0xce09c>
     a28:	022f1120 	eoreq	r1, pc, #32, 2
     a2c:	01010001 	tsteq	r1, r1
     a30:	00020500 	andeq	r0, r2, r0, lsl #10
     a34:	03000000 	movweq	r0, #0
     a38:	23011082 	movwcs	r1, #4226	; 0x1082
     a3c:	01040200 	mrseq	r0, R12_usr
     a40:	03062e06 	movweq	r2, #28166	; 0x6e06
     a44:	77033c0a 	strvc	r3, [r3, -sl, lsl #24]
     a48:	200a0320 	andcs	r0, sl, r0, lsr #6
     a4c:	01023d11 	tsteq	r2, r1, lsl sp
     a50:	00010100 	andeq	r0, r1, r0, lsl #2
     a54:	0bb40205 	bleq	fed01270 <__stack+0xdecfb270>
     a58:	e1030000 	mrs	r0, (UNDEF: 3)
     a5c:	03200112 			; <UNDEFINED> instruction: 0x03200112
     a60:	02002e11 	andeq	r2, r0, #272	; 0x110
     a64:	58060104 	stmdapl	r6, {r2, r8}
     a68:	03040200 	movweq	r0, #16896	; 0x4200
     a6c:	0402002e 	streq	r0, [r2], #-46	; 0xffffffd2
     a70:	02003c04 	andeq	r3, r0, #4, 24	; 0x400
     a74:	002e0604 	eoreq	r0, lr, r4, lsl #12
     a78:	06060402 	streq	r0, [r6], -r2, lsl #8
     a7c:	3d5e3f2f 	ldclcc	15, cr3, [lr, #-188]	; 0xffffff44
     a80:	01000102 	tsteq	r0, r2, lsl #2
     a84:	0001ae01 	andeq	sl, r1, r1, lsl #28
     a88:	0a000200 	beq	1290 <vTaskPlaceOnEventListRestricted+0x2c>
     a8c:	02000001 	andeq	r0, r0, #1
     a90:	0d0efb01 	vstreq	d15, [lr, #-4]
     a94:	01010100 	mrseq	r0, (UNDEF: 17)
     a98:	00000001 	andeq	r0, r0, r1
     a9c:	01000001 	tsteq	r0, r1
     aa0:	2e2f2e2e 	cdpcs	14, 2, cr2, cr15, cr14, {1}
     aa4:	696c2f2e 	stmdbvs	ip!, {r1, r2, r3, r5, r8, r9, sl, fp, sp}^
     aa8:	462f7362 	strtmi	r7, [pc], -r2, ror #6
     aac:	52656572 	rsbpl	r6, r5, #478150656	; 0x1c800000
     ab0:	2f534f54 	svccs	0x00534f54
     ab4:	00637273 	rsbeq	r7, r3, r3, ror r2
     ab8:	6d6f682f 	stclvs	8, cr6, [pc, #-188]!	; a04 <xQueueGenericSendFromISR+0x1e>
     abc:	616c2f65 	cmnvs	ip, r5, ror #30
     ac0:	65697275 	strbvs	r7, [r9, #-629]!	; 0xfffffd8b
     ac4:	6363672f 	cmnvs	r3, #12320768	; 0xbc0000
     ac8:	6d72612d 	ldfvse	f6, [r2, #-180]!	; 0xffffff4c
     acc:	6d72612f 	ldfvse	f6, [r2, #-188]!	; 0xffffff44
     ad0:	6e6f6e2d 	cdpvs	14, 6, cr6, cr15, cr13, {1}
     ad4:	61652d65 	cmnvs	r5, r5, ror #26
     ad8:	692f6962 	stmdbvs	pc!, {r1, r5, r6, r8, fp, sp, lr}	; <UNPREDICTABLE>
     adc:	756c636e 	strbvc	r6, [ip, #-878]!	; 0xfffffc92
     ae0:	6d2f6564 	cfstr32vs	mvfx6, [pc, #-400]!	; 958 <xQueueGenericSend+0x96>
     ae4:	69686361 	stmdbvs	r8!, {r0, r5, r6, r8, r9, sp, lr}^
     ae8:	2f00656e 	svccs	0x0000656e
     aec:	656d6f68 	strbvs	r6, [sp, #-3944]!	; 0xfffff098
     af0:	75616c2f 	strbvc	r6, [r1, #-3119]!	; 0xfffff3d1
     af4:	2f656972 	svccs	0x00656972
     af8:	2d636367 	stclcs	3, cr6, [r3, #-412]!	; 0xfffffe64
     afc:	2f6d7261 	svccs	0x006d7261
     b00:	2d6d7261 	sfmcs	f7, 2, [sp, #-388]!	; 0xfffffe7c
     b04:	656e6f6e 	strbvs	r6, [lr, #-3950]!	; 0xfffff092
     b08:	6261652d 	rsbvs	r6, r1, #188743680	; 0xb400000
     b0c:	6e692f69 	cdpvs	15, 6, cr2, cr9, cr9, {3}
     b10:	64756c63 	ldrbtvs	r6, [r5], #-3171	; 0xfffff39d
     b14:	79732f65 	ldmdbvc	r3!, {r0, r2, r5, r6, r8, r9, sl, fp, sp}^
     b18:	2e2e0073 	mcrcs	0, 1, r0, cr14, cr3, {3}
     b1c:	2f2e2e2f 	svccs	0x002e2e2f
     b20:	7362696c 	cmnvc	r2, #108, 18	; 0x1b0000
     b24:	6572462f 	ldrbvs	r4, [r2, #-1583]!	; 0xfffff9d1
     b28:	4f545265 	svcmi	0x00545265
     b2c:	6f702f53 	svcvs	0x00702f53
     b30:	672f7472 			; <UNDEFINED> instruction: 0x672f7472
     b34:	2e006363 	cdpcs	3, 0, cr6, cr0, cr3, {3}
     b38:	2e2e2f2e 	cdpcs	15, 2, cr2, cr14, cr14, {1}
     b3c:	62696c2f 	rsbvs	r6, r9, #12032	; 0x2f00
     b40:	72462f73 	subvc	r2, r6, #460	; 0x1cc
     b44:	54526565 	ldrbpl	r6, [r2], #-1381	; 0xfffffa9b
     b48:	692f534f 	stmdbvs	pc!, {r0, r1, r2, r3, r6, r8, r9, ip, lr}	; <UNPREDICTABLE>
     b4c:	756c636e 	strbvc	r6, [ip, #-878]!	; 0xfffffc92
     b50:	00006564 	andeq	r6, r0, r4, ror #10
     b54:	7473696c 	ldrbtvc	r6, [r3], #-2412	; 0xfffff694
     b58:	0100632e 	tsteq	r0, lr, lsr #6
     b5c:	645f0000 	ldrbvs	r0, [pc], #-0	; b64 <xQueueGenericReceive+0xf6>
     b60:	75616665 	strbvc	r6, [r1, #-1637]!	; 0xfffff99b
     b64:	745f746c 	ldrbvc	r7, [pc], #-1132	; b6c <xQueueGenericReceive+0xfe>
     b68:	73657079 	cmnvc	r5, #121	; 0x79
     b6c:	0200682e 	andeq	r6, r0, #3014656	; 0x2e0000
     b70:	735f0000 	cmpvc	pc, #0
     b74:	6e696474 	mcrvs	4, 3, r6, cr9, cr4, {3}
     b78:	00682e74 	rsbeq	r2, r8, r4, ror lr
     b7c:	70000003 	andvc	r0, r0, r3
     b80:	6d74726f 	lfmvs	f7, 2, [r4, #-444]!	; 0xfffffe44
     b84:	6f726361 	svcvs	0x00726361
     b88:	0400682e 	streq	r6, [r0], #-2094	; 0xfffff7d2
     b8c:	696c0000 	stmdbvs	ip!, {}^	; <UNPREDICTABLE>
     b90:	682e7473 	stmdavs	lr!, {r0, r1, r4, r5, r6, sl, ip, sp, lr}
     b94:	00000500 	andeq	r0, r0, r0, lsl #10
     b98:	02050000 	andeq	r0, r5, #0
     b9c:	00000bee 	andeq	r0, r0, lr, ror #23
     ba0:	0100cf03 	tsteq	r0, r3, lsl #30
     ba4:	361c2416 			; <UNDEFINED> instruction: 0x361c2416
     ba8:	79032221 	stmdbvc	r3, {r0, r5, r9, sp}
     bac:	02263520 	eoreq	r3, r6, #32, 10	; 0x8000000
     bb0:	01010001 	tsteq	r1, r1
     bb4:	04020500 	streq	r0, [r2], #-1280	; 0xfffffb00
     bb8:	0300000c 	movweq	r0, #12
     bbc:	140100e8 	strne	r0, [r1], #-232	; 0xffffff18
     bc0:	017a0326 	cmneq	sl, r6, lsr #6
     bc4:	00010226 	andeq	r0, r1, r6, lsr #4
     bc8:	05000101 	streq	r0, [r0, #-257]	; 0xfffffeff
     bcc:	000c0a02 	andeq	r0, ip, r2, lsl #20
     bd0:	00f40300 	rscseq	r0, r4, r0, lsl #6
     bd4:	14031301 	strne	r1, [r3], #-769	; 0xfffffcff
     bd8:	01770320 	cmneq	r7, r0, lsr #6
     bdc:	232f2f21 			; <UNDEFINED> instruction: 0x232f2f21
     be0:	01023d22 	tsteq	r2, r2, lsr #26
     be4:	00010100 	andeq	r0, r1, r0, lsl #2
     be8:	0c220205 	sfmeq	f0, 4, [r2], #-20	; 0xffffffec
     bec:	8d030000 	stchi	0, cr0, [r3, #-0]
     bf0:	2e030101 	adfcss	f0, f3, f1
     bf4:	20540301 	subscs	r0, r4, r1, lsl #6
     bf8:	202e031e 	eorcs	r0, lr, lr, lsl r3
     bfc:	30206403 	eorcc	r6, r0, r3, lsl #8
     c00:	01040200 	mrseq	r0, R12_usr
     c04:	062e1a03 	strteq	r1, [lr], -r3, lsl #20
     c08:	0335064a 	teqeq	r5, #77594624	; 0x4a00000
     c0c:	7603200a 	strvc	r2, [r3], -sl
     c10:	21212101 			; <UNDEFINED> instruction: 0x21212101
     c14:	023d2224 	eorseq	r2, sp, #36, 4	; 0x40000002
     c18:	01010001 	tsteq	r1, r1
     c1c:	52020500 	andpl	r0, r2, #0, 10
     c20:	0300000c 	movweq	r0, #12
     c24:	170101d0 			; <UNDEFINED> instruction: 0x170101d0
     c28:	3f21222c 	svccc	0x0021222c
     c2c:	232f353e 			; <UNDEFINED> instruction: 0x232f353e
     c30:	0102310f 	tsteq	r2, pc, lsl #2
     c34:	53010100 	movwpl	r0, #4352	; 0x1100
     c38:	0200000a 	andeq	r0, r0, #10
     c3c:	0001b900 	andeq	fp, r1, r0, lsl #18
     c40:	fb010200 	blx	4144a <__exidx_end+0x3f6a2>
     c44:	01000d0e 	tsteq	r0, lr, lsl #26
     c48:	00010101 	andeq	r0, r1, r1, lsl #2
     c4c:	00010000 	andeq	r0, r1, r0
     c50:	2e2e0100 	sufcse	f0, f6, f0
     c54:	2f2e2e2f 	svccs	0x002e2e2f
     c58:	7362696c 	cmnvc	r2, #108, 18	; 0x1b0000
     c5c:	6572462f 	ldrbvs	r4, [r2, #-1583]!	; 0xfffff9d1
     c60:	4f545265 	svcmi	0x00545265
     c64:	72732f53 	rsbsvc	r2, r3, #332	; 0x14c
     c68:	682f0063 	stmdavs	pc!, {r0, r1, r5, r6}	; <UNPREDICTABLE>
     c6c:	2f656d6f 	svccs	0x00656d6f
     c70:	7275616c 	rsbsvc	r6, r5, #108, 2
     c74:	672f6569 	strvs	r6, [pc, -r9, ror #10]!
     c78:	612d6363 			; <UNDEFINED> instruction: 0x612d6363
     c7c:	6c2f6d72 	stcvs	13, cr6, [pc], #-456	; abc <xQueueGenericReceive+0x4e>
     c80:	672f6269 	strvs	r6, [pc, -r9, ror #4]!
     c84:	612f6363 			; <UNDEFINED> instruction: 0x612f6363
     c88:	6e2d6d72 	mcrvs	13, 1, r6, cr13, cr2, {3}
     c8c:	2d656e6f 	stclcs	14, cr6, [r5, #-444]!	; 0xfffffe44
     c90:	69626165 	stmdbvs	r2!, {r0, r2, r5, r6, r8, sp, lr}^
     c94:	342e352f 	strtcc	r3, [lr], #-1327	; 0xfffffad1
     c98:	692f312e 	stmdbvs	pc!, {r1, r2, r3, r5, r8, ip, sp}	; <UNPREDICTABLE>
     c9c:	756c636e 	strbvc	r6, [ip, #-878]!	; 0xfffffc92
     ca0:	2f006564 	svccs	0x00006564
     ca4:	656d6f68 	strbvs	r6, [sp, #-3944]!	; 0xfffff098
     ca8:	75616c2f 	strbvc	r6, [r1, #-3119]!	; 0xfffff3d1
     cac:	2f656972 	svccs	0x00656972
     cb0:	2d636367 	stclcs	3, cr6, [r3, #-412]!	; 0xfffffe64
     cb4:	2f6d7261 	svccs	0x006d7261
     cb8:	2d6d7261 	sfmcs	f7, 2, [sp, #-388]!	; 0xfffffe7c
     cbc:	656e6f6e 	strbvs	r6, [lr, #-3950]!	; 0xfffff092
     cc0:	6261652d 	rsbvs	r6, r1, #188743680	; 0xb400000
     cc4:	6e692f69 	cdpvs	15, 6, cr2, cr9, cr9, {3}
     cc8:	64756c63 	ldrbtvs	r6, [r5], #-3171	; 0xfffff39d
     ccc:	616d2f65 	cmnvs	sp, r5, ror #30
     cd0:	6e696863 	cdpvs	8, 6, cr6, cr9, cr3, {3}
     cd4:	682f0065 	stmdavs	pc!, {r0, r2, r5, r6}	; <UNPREDICTABLE>
     cd8:	2f656d6f 	svccs	0x00656d6f
     cdc:	7275616c 	rsbsvc	r6, r5, #108, 2
     ce0:	672f6569 	strvs	r6, [pc, -r9, ror #10]!
     ce4:	612d6363 			; <UNDEFINED> instruction: 0x612d6363
     ce8:	612f6d72 			; <UNDEFINED> instruction: 0x612f6d72
     cec:	6e2d6d72 	mcrvs	13, 1, r6, cr13, cr2, {3}
     cf0:	2d656e6f 	stclcs	14, cr6, [r5, #-444]!	; 0xfffffe44
     cf4:	69626165 	stmdbvs	r2!, {r0, r2, r5, r6, r8, sp, lr}^
     cf8:	636e692f 	cmnvs	lr, #770048	; 0xbc000
     cfc:	6564756c 	strbvs	r7, [r4, #-1388]!	; 0xfffffa94
     d00:	7379732f 	cmnvc	r9, #-1140850688	; 0xbc000000
     d04:	2f2e2e00 	svccs	0x002e2e00
     d08:	6c2f2e2e 	stcvs	14, cr2, [pc], #-184	; c58 <uxListRemove+0x6>
     d0c:	2f736269 	svccs	0x00736269
     d10:	65657246 	strbvs	r7, [r5, #-582]!	; 0xfffffdba
     d14:	534f5452 	movtpl	r5, #62546	; 0xf452
     d18:	636e692f 	cmnvs	lr, #770048	; 0xbc000
     d1c:	6564756c 	strbvs	r7, [r4, #-1388]!	; 0xfffffa94
     d20:	2f2e2e00 	svccs	0x002e2e00
     d24:	6c2f2e2e 	stcvs	14, cr2, [pc], #-184	; c74 <uxListRemove+0x22>
     d28:	2f736269 	svccs	0x00736269
     d2c:	65657246 	strbvs	r7, [r5, #-582]!	; 0xfffffdba
     d30:	534f5452 	movtpl	r5, #62546	; 0xf452
     d34:	726f702f 	rsbvc	r7, pc, #47	; 0x2f
     d38:	63672f74 	cmnvs	r7, #116, 30	; 0x1d0
     d3c:	682f0063 	stmdavs	pc!, {r0, r1, r5, r6}	; <UNPREDICTABLE>
     d40:	2f656d6f 	svccs	0x00656d6f
     d44:	7275616c 	rsbsvc	r6, r5, #108, 2
     d48:	672f6569 	strvs	r6, [pc, -r9, ror #10]!
     d4c:	612d6363 			; <UNDEFINED> instruction: 0x612d6363
     d50:	612f6d72 			; <UNDEFINED> instruction: 0x612f6d72
     d54:	6e2d6d72 	mcrvs	13, 1, r6, cr13, cr2, {3}
     d58:	2d656e6f 	stclcs	14, cr6, [r5, #-444]!	; 0xfffffe44
     d5c:	69626165 	stmdbvs	r2!, {r0, r2, r5, r6, r8, sp, lr}^
     d60:	636e692f 	cmnvs	lr, #770048	; 0xbc000
     d64:	6564756c 	strbvs	r7, [r4, #-1388]!	; 0xfffffa94
     d68:	61740000 	cmnvs	r4, r0
     d6c:	2e736b73 	vmovcs.s8	r6, d3[7]
     d70:	00010063 	andeq	r0, r1, r3, rrx
     d74:	64747300 	ldrbtvs	r7, [r4], #-768	; 0xfffffd00
     d78:	2e666564 	cdpcs	5, 6, cr6, cr6, cr4, {3}
     d7c:	00020068 	andeq	r0, r2, r8, rrx
     d80:	65645f00 	strbvs	r5, [r4, #-3840]!	; 0xfffff100
     d84:	6c756166 	ldfvse	f6, [r5], #-408	; 0xfffffe68
     d88:	79745f74 	ldmdbvc	r4!, {r2, r4, r5, r6, r8, r9, sl, fp, ip, lr}^
     d8c:	2e736570 	mrccs	5, 3, r6, cr3, cr0, {3}
     d90:	00030068 	andeq	r0, r3, r8, rrx
     d94:	74735f00 	ldrbtvc	r5, [r3], #-3840	; 0xfffff100
     d98:	746e6964 	strbtvc	r6, [lr], #-2404	; 0xfffff69c
     d9c:	0400682e 	streq	r6, [r0], #-2094	; 0xfffff7d2
     da0:	72700000 	rsbsvc	r0, r0, #0
     da4:	65646a6f 	strbvs	r6, [r4, #-2671]!	; 0xfffff591
     da8:	682e7366 	stmdavs	lr!, {r1, r2, r5, r6, r8, r9, ip, sp, lr}
     dac:	00000500 	andeq	r0, r0, r0, lsl #10
     db0:	74726f70 	ldrbtvc	r6, [r2], #-3952	; 0xfffff090
     db4:	7263616d 	rsbvc	r6, r3, #1073741851	; 0x4000001b
     db8:	00682e6f 	rsbeq	r2, r8, pc, ror #28
     dbc:	6c000006 	stcvs	0, cr0, [r0], {6}
     dc0:	2e747369 	cdpcs	3, 7, cr7, cr4, cr9, {3}
     dc4:	00050068 	andeq	r0, r5, r8, rrx
     dc8:	73617400 	cmnvc	r1, #0, 8
     dcc:	00682e6b 	rsbeq	r2, r8, fp, ror #28
     dd0:	70000005 	andvc	r0, r0, r5
     dd4:	6174726f 	cmnvs	r4, pc, ror #4
     dd8:	2e656c62 	cdpcs	12, 6, cr6, cr5, cr2, {3}
     ddc:	00050068 	andeq	r0, r5, r8, rrx
     de0:	72747300 	rsbsvc	r7, r4, #0, 6
     de4:	2e676e69 	cdpcs	14, 6, cr6, cr7, cr9, {3}
     de8:	00070068 	andeq	r0, r7, r8, rrx
     dec:	6d697400 	cfstrdvs	mvd7, [r9, #-0]
     df0:	2e737265 	cdpcs	2, 7, cr7, cr3, cr5, {3}
     df4:	00050068 	andeq	r0, r5, r8, rrx
     df8:	05000000 	streq	r0, [r0, #-0]
     dfc:	000c7802 	andeq	r7, ip, r2, lsl #16
     e00:	19ca0300 	stmibne	sl, {r8, r9}^
     e04:	446d1501 	strbtmi	r1, [sp], #-1281	; 0xfffffaff
     e08:	06023e2f 	streq	r3, [r2], -pc, lsr #28
     e0c:	00010100 	andeq	r0, r1, r0, lsl #2
     e10:	00000205 	andeq	r0, r0, r5, lsl #4
     e14:	e1030000 	mrs	r0, (UNDEF: 3)
     e18:	0028010a 	eoreq	r0, r8, sl, lsl #2
     e1c:	06010402 	streq	r0, [r1], -r2, lsl #8
     e20:	4d3f062e 	ldcmi	6, cr0, [pc, #-184]!	; d70 <xTaskGenericCreate+0x84>
     e24:	034a7303 	movteq	r7, #41731	; 0xa303
     e28:	06024a25 	streq	r4, [r2], -r5, lsr #20
     e2c:	00010100 	andeq	r0, r1, r0, lsl #2
     e30:	0ca00205 	sfmeq	f0, 4, [r0], #20
     e34:	b6030000 	strlt	r0, [r3], -r0
     e38:	1e220117 	mcrne	1, 1, r0, cr2, cr7, {0}
     e3c:	794d3022 	stmdbvc	sp, {r1, r5, ip, sp}^
     e40:	02274c6b 	eoreq	r4, r7, #27392	; 0x6b00
     e44:	0101000b 	tsteq	r1, fp
     e48:	ec020500 	cfstr32	mvfx0, [r2], {-0}
     e4c:	0300000c 	movweq	r0, #12
     e50:	200104ab 	andcs	r0, r1, fp, lsr #9
     e54:	0402004f 	streq	r0, [r2], #-79	; 0xffffffb1
     e58:	062e0601 	strteq	r0, [lr], -r1, lsl #12
     e5c:	0402003d 	streq	r0, [r2], #-61	; 0xffffffc3
     e60:	063c0601 	ldrteq	r0, [ip], -r1, lsl #12
     e64:	3c13c303 	ldccc	3, cr12, [r3], {3}
     e68:	034c3276 	movteq	r3, #49782	; 0xc276
     e6c:	6a032019 	bvs	c8ed8 <__exidx_end+0xc7130>
     e70:	20160320 	andscs	r0, r6, r0, lsr #6
     e74:	586cc703 	stmdapl	ip!, {r0, r1, r8, r9, sl, lr, pc}^
     e78:	5811a103 	ldmdapl	r1, {r0, r1, r8, sp, pc}
     e7c:	2e028803 	cdpcs	8, 0, cr8, cr2, cr3, {0}
     e80:	4a7df803 	bmi	1f7ee94 <__exidx_end+0x1f7d0ec>
     e84:	0c035d3e 	stceq	13, cr5, [r3], {62}	; 0x3e
     e88:	4a0d034a 	bmi	341bb8 <__exidx_end+0x33fe10>
     e8c:	25231c24 	strcs	r1, [r3, #-3108]!	; 0xfffff3dc
     e90:	232b5159 			; <UNDEFINED> instruction: 0x232b5159
     e94:	032e2303 			; <UNDEFINED> instruction: 0x032e2303
     e98:	21032e5e 	tstcs	r3, lr, asr lr
     e9c:	6ead0320 	cdpvs	3, 10, cr0, cr13, cr0, {1}
     ea0:	11d40320 	bicsne	r0, r4, r0, lsr #6
     ea4:	6eac0320 	cdpvs	3, 10, cr0, cr12, cr0, {1}
     ea8:	241c4e20 	ldrcs	r4, [ip], #-3616	; 0xfffff1e0
     eac:	20090333 	andcs	r0, r9, r3, lsr r3
     eb0:	3d1f2130 	ldfccs	f2, [pc, #-192]	; df8 <xTaskGenericCreate+0x10c>
     eb4:	d9032240 	stmdble	r3, {r6, r9, sp}
     eb8:	56303c11 			; <UNDEFINED> instruction: 0x56303c11
     ebc:	404b4b33 	submi	r4, fp, r3, lsr fp
     ec0:	032f4242 			; <UNDEFINED> instruction: 0x032f4242
     ec4:	4c3c6ea0 	ldcmi	14, cr6, [ip], #-640	; 0xfffffd80
     ec8:	200d035a 	andcs	r0, sp, sl, asr r3
     ecc:	03200a03 			; <UNDEFINED> instruction: 0x03200a03
     ed0:	0a032076 	beq	c90b0 <__exidx_end+0xc7308>
     ed4:	0402003c 	streq	r0, [r2], #-60	; 0xffffffc4
     ed8:	004a0601 	subeq	r0, sl, r1, lsl #12
     edc:	20030402 	andcs	r0, r3, r2, lsl #8
     ee0:	03040200 	movweq	r0, #16896	; 0x4200
     ee4:	02007906 	andeq	r7, r0, #98304	; 0x18000
     ee8:	0a030304 	beq	c1b00 <__exidx_end+0xbfd58>
     eec:	035a5c2e 	cmpeq	sl, #11776	; 0x2e00
     ef0:	1a033c74 	bne	d00c8 <__exidx_end+0xce320>
     ef4:	001c022e 	andseq	r0, ip, lr, lsr #4
     ef8:	05000101 	streq	r0, [r0, #-257]	; 0xfffffeff
     efc:	00000002 	andeq	r0, r0, r2
     f00:	05ec0300 	strbeq	r0, [ip, #768]!	; 0x300
     f04:	32232001 	eorcc	r2, r3, #1
     f08:	01040200 	mrseq	r0, R12_usr
     f0c:	02002e06 	andeq	r2, r0, #6, 28	; 0x60
     f10:	34060404 	strcc	r0, [r6], #-1028	; 0xfffffbfc
     f14:	04040200 	streq	r0, [r4], #-512	; 0xfffffe00
     f18:	3e4a0a03 	vmlacc.f32	s1, s20, s6
     f1c:	4e4e4f51 	mcrmi	15, 2, r4, cr14, cr1, {2}
     f20:	004c4c32 	subeq	r4, ip, r2, lsr ip
     f24:	06010402 	streq	r0, [r1], -r2, lsl #8
     f28:	4244064a 	submi	r0, r4, #77594624	; 0x4a00000
     f2c:	02313030 	eorseq	r3, r1, #48	; 0x30
     f30:	0101000d 	tsteq	r1, sp
     f34:	00020500 	andeq	r0, r2, r0, lsl #10
     f38:	03000000 	movweq	r0, #0
     f3c:	200108a6 	andcs	r0, r1, r6, lsr #17
     f40:	02003224 	andeq	r3, r0, #36, 4	; 0x40000002
     f44:	2e060104 	adfcss	f0, f6, f4
     f48:	04040200 	streq	r0, [r4], #-512	; 0xfffffe00
     f4c:	02002f06 	andeq	r2, r0, #6, 30
     f50:	00250404 	eoreq	r0, r5, r4, lsl #8
     f54:	0f040402 	svceq	0x00040402
     f58:	04040200 	streq	r0, [r4], #-512	; 0xfffffe00
     f5c:	00050231 	andeq	r0, r5, r1, lsr r2
     f60:	05000101 	streq	r0, [r0, #-257]	; 0xfffffeff
     f64:	00000002 	andeq	r0, r0, r2
     f68:	08bc0300 	ldmeq	ip!, {r8, r9}
     f6c:	16032001 	strne	r2, [r3], -r1
     f70:	02003220 	andeq	r3, r0, #32, 4
     f74:	2e060104 	adfcss	f0, f6, f4
     f78:	04040200 	streq	r0, [r4], #-512	; 0xfffffe00
     f7c:	02002f06 	andeq	r2, r0, #6, 30
     f80:	00250404 	eoreq	r0, r5, r4, lsl #8
     f84:	0f040402 	svceq	0x00040402
     f88:	04040200 	streq	r0, [r4], #-512	; 0xfffffe00
     f8c:	00050231 	andeq	r0, r5, r1, lsr r2
     f90:	05000101 	streq	r0, [r0, #-257]	; 0xfffffeff
     f94:	00000002 	andeq	r0, r0, r2
     f98:	08e40300 	stmiaeq	r4!, {r8, r9}^
     f9c:	00332001 	eorseq	r2, r3, r1
     fa0:	06010402 	streq	r0, [r1], -r2, lsl #8
     fa4:	0c03062e 	stceq	6, cr0, [r3], {46}	; 0x2e
     fa8:	0200323c 	andeq	r3, r0, #60, 4	; 0xc0000003
     fac:	2e060104 	adfcss	f0, f6, f4
     fb0:	04040200 	streq	r0, [r4], #-512	; 0xfffffe00
     fb4:	02003406 	andeq	r3, r0, #100663296	; 0x6000000
     fb8:	40280404 	eormi	r0, r8, r4, lsl #8
     fbc:	205a0330 	subscs	r0, sl, r0, lsr r3
     fc0:	33202603 			; <UNDEFINED> instruction: 0x33202603
     fc4:	4a0e0322 	bmi	381c54 <__exidx_end+0x37feac>
     fc8:	03207203 			; <UNDEFINED> instruction: 0x03207203
     fcc:	30264a1f 	eorcc	r4, r6, pc, lsl sl
     fd0:	03201203 			; <UNDEFINED> instruction: 0x03201203
     fd4:	0a032076 	beq	c91b4 <__exidx_end+0xc740c>
     fd8:	0b033020 	bleq	cd060 <__exidx_end+0xcb2b8>
     fdc:	0b03873c 	bleq	e2cd4 <__exidx_end+0xe0f2c>
     fe0:	0402004a 	streq	r0, [r2], #-74	; 0xffffffb6
     fe4:	00580601 	subseq	r0, r8, r1, lsl #12
     fe8:	20030402 	andcs	r0, r3, r2, lsl #8
     fec:	03306d06 	teqeq	r0, #384	; 0x180
     ff0:	022f2e0c 	eoreq	r2, pc, #12, 28	; 0xc0
     ff4:	01010007 	tsteq	r1, r7
     ff8:	00020500 	andeq	r0, r2, r0, lsl #10
     ffc:	03000000 	movweq	r0, #0
    1000:	20010b8f 	andcs	r0, r1, pc, lsl #23
    1004:	04020024 	streq	r0, [r2], #-36	; 0xffffffdc
    1008:	00200601 	eoreq	r0, r0, r1, lsl #12
    100c:	06010402 	streq	r0, [r1], -r2, lsl #8
    1010:	5e304c40 	cdppl	12, 3, cr4, cr0, cr0, {2}
    1014:	0402004b 	streq	r0, [r2], #-75	; 0xffffffb5
    1018:	00580601 	subseq	r0, r8, r1, lsl #12
    101c:	20030402 	andcs	r0, r3, r2, lsl #8
    1020:	03040200 	movweq	r0, #16896	; 0x4200
    1024:	035d7706 	cmpeq	sp, #1572864	; 0x180000
    1028:	02342e0c 	eorseq	r2, r4, #12, 28	; 0xc0
    102c:	01010007 	tsteq	r1, r7
    1030:	00020500 	andeq	r0, r2, r0, lsl #10
    1034:	03000000 	movweq	r0, #0
    1038:	20010bc5 	andcs	r0, r1, r5, asr #23
    103c:	04020025 	streq	r0, [r2], #-37	; 0xffffffdb
    1040:	06200601 	strteq	r0, [r0], -r1, lsl #12
    1044:	3e3c1403 	cdpcc	4, 3, cr1, cr12, cr3, {0}
    1048:	033c6603 	teqeq	ip, #3145728	; 0x300000
    104c:	4e33201a 	mrcmi	0, 1, r2, cr3, cr10, {0}
    1050:	03205d03 			; <UNDEFINED> instruction: 0x03205d03
    1054:	09032023 	stmdbeq	r3, {r0, r1, r5, sp}
    1058:	20540320 	subscs	r0, r4, r0, lsr #6
    105c:	03202c03 			; <UNDEFINED> instruction: 0x03202c03
    1060:	2c032054 	stccs	0, cr2, [r3], {84}	; 0x54
    1064:	02002f2e 	andeq	r2, r0, #46, 30	; 0xb8
    1068:	58060104 	stmdapl	r6, {r2, r8}
    106c:	03040200 	movweq	r0, #16896	; 0x4200
    1070:	606d0620 	rsbvs	r0, sp, r0, lsr #12
    1074:	000d023f 	andeq	r0, sp, pc, lsr r2
    1078:	05000101 	streq	r0, [r0, #-257]	; 0xfffffeff
    107c:	000e9802 	andeq	r9, lr, r2, lsl #16
    1080:	0c8b0300 	stceq	3, cr0, [fp], {0}
    1084:	200d0301 	andcs	r0, sp, r1, lsl #6
    1088:	03207303 			; <UNDEFINED> instruction: 0x03207303
    108c:	30b2200d 	adcscc	r2, r2, sp
    1090:	353c0903 	ldrcc	r0, [ip, #-2307]!	; 0xfffff6fd
    1094:	2f2e0a03 	svccs	0x002e0a03
    1098:	032e0903 			; <UNDEFINED> instruction: 0x032e0903
    109c:	02003c0f 	andeq	r3, r0, #3840	; 0xf00
    10a0:	2e060104 	adfcss	f0, f6, f4
    10a4:	0b023e06 	bleq	908c4 <__exidx_end+0x8eb1c>
    10a8:	00010100 	andeq	r0, r1, r0, lsl #2
    10ac:	00000205 	andeq	r0, r0, r5, lsl #4
    10b0:	d9030000 	stmdble	r3, {}	; <UNPREDICTABLE>
    10b4:	2f24010c 	svccs	0x0024010c
    10b8:	2f211030 	svccs	0x00211030
    10bc:	01000402 	tsteq	r0, r2, lsl #8
    10c0:	02050001 	andeq	r0, r5, #1
    10c4:	00000ef4 	strdeq	r0, [r0], -r4
    10c8:	010ce403 	tsteq	ip, r3, lsl #8
    10cc:	3d112117 	ldfccs	f2, [r1, #-92]	; 0xffffffa4
    10d0:	01000402 	tsteq	r0, r2, lsl #8
    10d4:	02050001 	andeq	r0, r5, #1
    10d8:	00000f04 	andeq	r0, r0, r4, lsl #30
    10dc:	010de703 	tsteq	sp, r3, lsl #14
    10e0:	0d253024 	stceq	0, cr3, [r5, #-144]!	; 0xffffff70
    10e4:	05023122 	streq	r3, [r2, #-290]	; 0xfffffede
    10e8:	00010100 	andeq	r0, r1, r0, lsl #2
    10ec:	00000205 	andeq	r0, r0, r5, lsl #4
    10f0:	f6030000 			; <UNDEFINED> instruction: 0xf6030000
    10f4:	1403010d 	strne	r0, [r3], #-269	; 0xfffffef3
    10f8:	0d253020 	stceq	0, cr3, [r5, #-128]!	; 0xffffff80
    10fc:	05023122 	streq	r3, [r2, #-290]	; 0xfffffede
    1100:	00010100 	andeq	r0, r1, r0, lsl #2
    1104:	00000205 	andeq	r0, r0, r5, lsl #4
    1108:	95030000 	strls	r0, [r3, #-0]
    110c:	2115010e 	tstcs	r5, lr, lsl #2
    1110:	04022111 	streq	r2, [r2], #-273	; 0xfffffeef
    1114:	00010100 	andeq	r0, r1, r0, lsl #2
    1118:	0f1c0205 	svceq	0x001c0205
    111c:	96030000 	strls	r0, [r3], -r0
    1120:	0903010f 	stmdbeq	r3, {r0, r1, r2, r3, r8}
    1124:	224f4e20 	subcs	r4, pc, #32, 28	; 0x200
    1128:	04020030 	streq	r0, [r2], #-48	; 0xffffffd0
    112c:	00580601 	subseq	r0, r8, r1, lsl #12
    1130:	3c020402 	cfstrscc	mvf0, [r2], {2}
    1134:	ac0b0306 	stcge	3, cr0, [fp], {6}
    1138:	03206203 			; <UNDEFINED> instruction: 0x03206203
    113c:	5f40201e 	svcpl	0x0040201e
    1140:	3d3c0903 	ldccc	9, cr0, [ip, #-12]!
    1144:	2e740322 	cdpcs	3, 7, cr0, cr4, cr2, {1}
    1148:	2000c903 	andcs	ip, r0, r3, lsl #18
    114c:	7f8c0392 	svcvc	0x008c0392
    1150:	018e032e 	orreq	r0, lr, lr, lsr #6
    1154:	4a0e0320 	bmi	381ddc <__exidx_end+0x380034>
    1158:	2009034c 	andcs	r0, r9, ip, asr #6
    115c:	207f9e03 	rsbscs	r9, pc, r3, lsl #28
    1160:	09033e5c 	stmdbeq	r3, {r2, r3, r4, r6, r9, sl, fp, ip, sp}
    1164:	0402004a 	streq	r0, [r2], #-74	; 0xffffffb6
    1168:	00580601 	subseq	r0, r8, r1, lsl #12
    116c:	20030402 	andcs	r0, r3, r2, lsl #8
    1170:	03040200 	movweq	r0, #16896	; 0x4200
    1174:	740a0306 	strvc	r0, [sl], #-774	; 0xfffffcfa
    1178:	00c80368 	sbceq	r0, r8, r8, ror #6
    117c:	0018022e 	andseq	r0, r8, lr, lsr #4
    1180:	05000101 	streq	r0, [r0, #-257]	; 0xfffffeff
    1184:	00102002 	andseq	r2, r0, r2
    1188:	0d8a0300 	stceq	3, cr0, [sl]
    118c:	02002601 	andeq	r2, r0, #1048576	; 0x100000
    1190:	4a060104 	bmi	1815a8 <__exidx_end+0x17f800>
    1194:	3e304306 	cdpcc	3, 3, cr4, cr0, cr6, {0}
    1198:	033c7103 	teqeq	ip, #-1073741824	; 0xc0000000
    119c:	09032e11 	stmdbeq	r3, {r0, r4, r9, sl, fp, sp}
    11a0:	7503264a 	strvc	r2, [r3, #-1610]	; 0xfffff9b6
    11a4:	212f4c20 			; <UNDEFINED> instruction: 0x212f4c20
    11a8:	003d3d1f 	eorseq	r3, sp, pc, lsl sp
    11ac:	06010402 	streq	r0, [r1], -r2, lsl #8
    11b0:	04020058 	streq	r0, [r2], #-88	; 0xffffffa8
    11b4:	02002003 	andeq	r2, r0, #3
    11b8:	6a060304 	bvs	181dd0 <__exidx_end+0x180028>
    11bc:	3c0c0368 	stccc	3, cr0, [ip], {104}	; 0x68
    11c0:	514a1403 	cmppl	sl, r3, lsl #8
    11c4:	1c3c6b03 	ldcne	11, cr6, [ip], #-12
    11c8:	03344c3e 	teqeq	r4, #15872	; 0x3e00
    11cc:	02314a1c 	eorseq	r4, r1, #28, 20	; 0x1c000
    11d0:	01010012 	tsteq	r1, r2, lsl r0
    11d4:	00020500 	andeq	r0, r2, r0, lsl #10
    11d8:	03000000 	movweq	r0, #0
    11dc:	200106be 			; <UNDEFINED> instruction: 0x200106be
    11e0:	04020032 	streq	r0, [r2], #-50	; 0xffffffce
    11e4:	062e0601 	strteq	r0, [lr], -r1, lsl #12
    11e8:	0402003d 	streq	r0, [r2], #-61	; 0xffffffc3
    11ec:	062e0601 	strteq	r0, [lr], -r1, lsl #12
    11f0:	0402003d 	streq	r0, [r2], #-61	; 0xffffffc3
    11f4:	064a0601 	strbeq	r0, [sl], -r1, lsl #12
    11f8:	1d23323e 	sfmne	f3, 4, [r3, #-248]!	; 0xffffff08
    11fc:	71032223 	tstvc	r3, r3, lsr #4
    1200:	2016032e 	andscs	r0, r6, lr, lsr #6
    1204:	1e3c1003 	cdpne	0, 3, cr1, cr12, cr3, {0}
    1208:	01040200 	mrseq	r0, R12_usr
    120c:	032e5c03 			; <UNDEFINED> instruction: 0x032e5c03
    1210:	34223c2f 	strtcc	r3, [r2], #-3119	; 0xfffff3d1
    1214:	43580c03 	cmpmi	r8, #768	; 0x300
    1218:	02343032 	eorseq	r3, r4, #50	; 0x32
    121c:	01010007 	tsteq	r1, r7
    1220:	f0020500 			; <UNDEFINED> instruction: 0xf0020500
    1224:	03000010 	movweq	r0, #16
    1228:	2001079e 	mulcs	r1, lr, r7
    122c:	202e0326 	eorcs	r0, lr, r6, lsr #6
    1230:	003c5403 	eorseq	r5, ip, r3, lsl #8
    1234:	06010402 	streq	r0, [r1], -r2, lsl #8
    1238:	033d064a 	teqeq	sp, #77594624	; 0x4a00000
    123c:	03412e0e 	movteq	r2, #7694	; 0x1e0e
    1240:	033e580b 	teqeq	lr, #720896	; 0xb0000
    1244:	02362e09 	eorseq	r2, r6, #9, 28	; 0x90
    1248:	01010008 	tsteq	r1, r8
    124c:	3c020500 	cfstr32cc	mvfx0, [r2], {-0}
    1250:	03000011 	movweq	r0, #17
    1254:	030114e6 	movweq	r1, #5350	; 0x14e6
    1258:	4c2002ae 	sfmmi	f0, 4, [r0], #-696	; 0xfffffd48
    125c:	32303030 	eorscc	r3, r0, #48	; 0x30
    1260:	4b3d2f30 	blmi	f4cf28 <__exidx_end+0xf4b180>
    1264:	0298033e 	addseq	r0, r8, #-134217728	; 0xf8000000
    1268:	c103402e 	tstgt	r3, lr, lsr #32
    126c:	024c4a7b 	subeq	r4, ip, #503808	; 0x7b000
    1270:	0101000c 	tsteq	r1, ip
    1274:	a4020500 	strge	r0, [r2], #-1280	; 0xfffffb00
    1278:	03000011 	movweq	r0, #17
    127c:	2101119f 			; <UNDEFINED> instruction: 0x2101119f
    1280:	2e28035c 	mcrcs	3, 1, r0, cr8, cr12, {2}
    1284:	03205c03 			; <UNDEFINED> instruction: 0x03205c03
    1288:	02002024 	andeq	r2, r0, #36	; 0x24
    128c:	2e060304 	cdpcs	3, 0, cr0, cr6, cr4, {0}
    1290:	04040200 	streq	r0, [r4], #-512	; 0xfffffe00
    1294:	04020066 	streq	r0, [r2], #-102	; 0xffffff9a
    1298:	02003c01 	andeq	r3, r0, #256	; 0x100
    129c:	4a3c0204 	bmi	f01ab4 <__exidx_end+0xeffd0c>
    12a0:	080b0306 	stmdaeq	fp, {r1, r2, r8, r9}
    12a4:	000b024a 	andeq	r0, fp, sl, asr #4
    12a8:	05000101 	streq	r0, [r0, #-257]	; 0xfffffeff
    12ac:	00000002 	andeq	r0, r0, r2
    12b0:	0a880300 	beq	fe201eb8 <__stack+0xde1fbeb8>
    12b4:	40232001 	eormi	r2, r3, r1
    12b8:	01040200 	mrseq	r0, R12_usr
    12bc:	02002e06 	andeq	r2, r0, #6, 28	; 0x60
    12c0:	26060404 	strcs	r0, [r6], -r4, lsl #8
    12c4:	04040200 	streq	r0, [r4], #-512	; 0xfffffe00
    12c8:	3e4a0a03 	vmlacc.f32	s1, s20, s6
    12cc:	30305a51 	eorscc	r5, r0, r1, asr sl
    12d0:	0031301e 	eorseq	r3, r1, lr, lsl r0
    12d4:	06010402 	streq	r0, [r1], -r2, lsl #8
    12d8:	433d064a 	teqmi	sp, #77594624	; 0x4a00000
    12dc:	3342325e 	movtcc	r3, #8798	; 0x225e
    12e0:	02353030 	eorseq	r3, r5, #48	; 0x30
    12e4:	0101000b 	tsteq	r1, fp
    12e8:	1c020500 	cfstr32ne	mvfx0, [r2], {-0}
    12ec:	03000012 	movweq	r0, #18
    12f0:	200111db 	ldrdcs	r1, [r1], -fp
    12f4:	04020023 	streq	r0, [r2], #-35	; 0xffffffdd
    12f8:	062e0601 	strteq	r0, [lr], -r1, lsl #12
    12fc:	5d3c0903 	ldcpl	9, cr0, [ip, #-12]!
    1300:	334a0d03 	movtcc	r0, #44291	; 0xad03
    1304:	0c032f6d 	stceq	15, cr2, [r3], {109}	; 0x6d
    1308:	0007023c 	andeq	r0, r7, ip, lsr r2
    130c:	05000101 	streq	r0, [r0, #-257]	; 0xfffffeff
    1310:	00000002 	andeq	r0, r0, r2
    1314:	12960300 	addsne	r0, r6, #0, 6
    1318:	00232001 	eoreq	r2, r3, r1
    131c:	06010402 	streq	r0, [r1], -r2, lsl #8
    1320:	0040062e 	subeq	r0, r0, lr, lsr #12
    1324:	06010402 	streq	r0, [r1], -r2, lsl #8
    1328:	6d41064a 	stclvs	6, cr0, [r1, #-296]	; 0xfffffed8
    132c:	4a0d034f 	bmi	342070 <__exidx_end+0x3402c8>
    1330:	032f6d33 			; <UNDEFINED> instruction: 0x032f6d33
    1334:	09023c0c 	stmdbeq	r2, {r2, r3, sl, fp, ip, sp}
    1338:	00010100 	andeq	r0, r1, r0, lsl #2
    133c:	12640205 	rsbne	r0, r4, #1342177280	; 0x50000000
    1340:	da030000 	ble	c1348 <__exidx_end+0xbf5a0>
    1344:	23200112 			; <UNDEFINED> instruction: 0x23200112
    1348:	01040200 	mrseq	r0, R12_usr
    134c:	03062e06 	movweq	r2, #28166	; 0x6e06
    1350:	16033c0c 	strne	r3, [r3], -ip, lsl #24
    1354:	016a0320 	cmneq	sl, r0, lsr #6
    1358:	4a0d034f 	bmi	34209c <__exidx_end+0x3402f4>
    135c:	05023d31 	streq	r3, [r2, #-3377]	; 0xfffff2cf
    1360:	00010100 	andeq	r0, r1, r0, lsl #2
    1364:	12980205 	addsne	r0, r8, #1342177280	; 0x50000000
    1368:	85030000 	strhi	r0, [r3, #-0]
    136c:	11030113 	tstne	r3, r3, lsl r1
    1370:	02002f20 	andeq	r2, r0, #32, 30	; 0x80
    1374:	2e060104 	adfcss	f0, f6, f4
    1378:	4c5a3d06 	mrrcmi	13, 0, r3, sl, cr6
    137c:	0402004b 	streq	r0, [r2], #-75	; 0xffffffb5
    1380:	00580601 	subseq	r0, r8, r1, lsl #12
    1384:	20030402 	andcs	r0, r3, r2, lsl #8
    1388:	034d6c06 	movteq	r6, #56326	; 0xdc06
    138c:	73033c0d 	movwvc	r3, #15373	; 0x3c0d
    1390:	3c090320 	stccc	3, cr0, [r9], {32}
    1394:	023c1603 	eorseq	r1, ip, #3145728	; 0x300000
    1398:	0101000d 	tsteq	r1, sp
    139c:	00020500 	andeq	r0, r2, r0, lsl #10
    13a0:	03000000 	movweq	r0, #0
    13a4:	260113c9 	strcs	r1, [r1], -r9, asr #7
    13a8:	01040200 	mrseq	r0, R12_usr
    13ac:	3f064a06 	svccc	0x00064a06
    13b0:	00411c24 	subeq	r1, r1, r4, lsr #24
    13b4:	06010402 	streq	r0, [r1], -r2, lsl #8
    13b8:	1b42062e 	blne	1082c78 <__exidx_end+0x1080ed0>
    13bc:	02003d33 	andeq	r3, r0, #3264	; 0xcc0
    13c0:	58060104 	stmdapl	r6, {r2, r8}
    13c4:	03040200 	movweq	r0, #16896	; 0x4200
    13c8:	04020020 	streq	r0, [r2], #-32	; 0xffffffe0
    13cc:	00760603 	rsbseq	r0, r6, r3, lsl #12
    13d0:	03030402 	movweq	r0, #13314	; 0x3402
    13d4:	02003c0e 	andeq	r3, r0, #3584	; 0xe00
    13d8:	72030304 	andvc	r0, r3, #4, 6	; 0x10000000
    13dc:	3c0a0320 	stccc	3, cr0, [sl], {32}
    13e0:	000b0244 	andeq	r0, fp, r4, asr #4
    13e4:	05000101 	streq	r0, [r0, #-257]	; 0xfffffeff
    13e8:	00131002 	andseq	r1, r3, r2
    13ec:	13f60300 	mvnsne	r0, #0, 6
    13f0:	02002101 	andeq	r2, r0, #1073741824	; 0x40000000
    13f4:	2e060104 	adfcss	f0, f6, f4
    13f8:	10223d06 	eorne	r3, r2, r6, lsl #26
    13fc:	06023d2f 	streq	r3, [r2], -pc, lsr #26
    1400:	00010100 	andeq	r0, r1, r0, lsl #2
    1404:	13340205 	teqne	r4, #1342177280	; 0x50000000
    1408:	fe030000 	cdp2	0, 0, cr0, cr3, cr0, {0}
    140c:	31200113 			; <UNDEFINED> instruction: 0x31200113
    1410:	01040200 	mrseq	r0, R12_usr
    1414:	3d062e06 	stccc	14, cr2, [r6, #-24]	; 0xffffffe8
    1418:	01040200 	mrseq	r0, R12_usr
    141c:	3e062e06 	cdpcc	14, 0, cr2, cr6, cr6, {0}
    1420:	78032831 	stmdavc	r3, {r0, r4, r5, fp, sp}
    1424:	00432620 	subeq	r2, r3, r0, lsr #12
    1428:	6c010402 	cfstrsvs	mvf0, [r1], {2}
    142c:	01040200 	mrseq	r0, R12_usr
    1430:	36207a03 	strtcc	r7, [r0], -r3, lsl #20
    1434:	3d31221e 	lfmcc	f2, 4, [r1, #-120]!	; 0xffffff88
    1438:	0231273d 	eorseq	r2, r1, #15990784	; 0xf40000
    143c:	01010007 	tsteq	r1, r7
    1440:	98020500 	stmdals	r2, {r8, sl}
    1444:	03000013 	movweq	r0, #19
    1448:	130114af 	movwne	r1, #5295	; 0x14af
    144c:	0221112f 	eoreq	r1, r1, #-1073741813	; 0xc000000b
    1450:	01010003 	tsteq	r1, r3
    1454:	00020500 	andeq	r0, r2, r0, lsl #10
    1458:	03000000 	movweq	r0, #0
    145c:	1701198a 	strne	r1, [r1, -sl, lsl #19]
    1460:	01040200 	mrseq	r0, R12_usr
    1464:	02002e06 	andeq	r2, r0, #6, 28	; 0x60
    1468:	32060404 	andcc	r0, r6, #4, 8	; 0x4000000
    146c:	4c2e6603 	stcmi	6, cr6, [lr], #-12
    1470:	2f2e2203 	svccs	0x002e2203
    1474:	01000402 	tsteq	r0, r2, lsl #8
    1478:	02050001 	andeq	r0, r5, #1
    147c:	00000000 	andeq	r0, r0, r0
    1480:	0119e503 	tsteq	r9, r3, lsl #10
    1484:	230f2318 	movwcs	r2, #62232	; 0xf318
    1488:	01000402 	tsteq	r0, r2, lsl #8
    148c:	02050001 	andeq	r0, r5, #1
    1490:	000013a4 	andeq	r1, r0, r4, lsr #7
    1494:	0119f603 	tsteq	r9, r3, lsl #12	; <UNPREDICTABLE>
    1498:	421e2215 	andsmi	r2, lr, #1342177281	; 0x50000001
    149c:	06024134 			; <UNDEFINED> instruction: 0x06024134
    14a0:	00010100 	andeq	r0, r1, r0, lsl #2
    14a4:	13c40205 	bicne	r0, r4, #1342177280	; 0x50000000
    14a8:	92030000 	andls	r0, r3, #0
    14ac:	2520011a 	strcs	r0, [r0, #-282]!	; 0xfffffee6
    14b0:	033e6b22 	teqeq	lr, #34816	; 0x8800
    14b4:	03845809 	orreq	r5, r4, #589824	; 0x90000
    14b8:	1f2f4a0a 	svcne	0x002f4a0a
    14bc:	04020021 	streq	r0, [r2], #-33	; 0xffffffdf
    14c0:	003c0601 	eorseq	r0, ip, r1, lsl #12
    14c4:	20030402 	andcs	r0, r3, r2, lsl #8
    14c8:	03040200 	movweq	r0, #16896	; 0x4200
    14cc:	66130306 	ldrvs	r0, [r3], -r6, lsl #6
    14d0:	03207203 			; <UNDEFINED> instruction: 0x03207203
    14d4:	07023c0e 	streq	r3, [r2, -lr, lsl #24]
    14d8:	00010100 	andeq	r0, r1, r0, lsl #2
    14dc:	14300205 	ldrtne	r0, [r0], #-517	; 0xfffffdfb
    14e0:	d1030000 	mrsle	r0, (UNDEF: 3)
    14e4:	2420011a 	strtcs	r0, [r0], #-282	; 0xfffffee6
    14e8:	0200321e 	andeq	r3, r0, #-536870911	; 0xe0000001
    14ec:	3c060104 	stfccs	f0, [r6], {4}
    14f0:	302c3f06 	eorcc	r3, ip, r6, lsl #30
    14f4:	11033531 	tstne	r3, r1, lsr r5
    14f8:	2f251b4a 	svccs	0x00251b4a
    14fc:	26207a03 	strtcs	r7, [r0], -r3, lsl #20
    1500:	01040200 	mrseq	r0, R12_usr
    1504:	02003c06 	andeq	r3, r0, #1536	; 0x600
    1508:	00200304 	eoreq	r0, r0, r4, lsl #6
    150c:	06030402 	streq	r0, [r3], -r2, lsl #8
    1510:	03740a03 	cmneq	r4, #12288	; 0x3000
    1514:	05022012 	streq	r2, [r2, #-18]	; 0xffffffee
    1518:	00010100 	andeq	r0, r1, r0, lsl #2
    151c:	00000205 	andeq	r0, r0, r5, lsl #4
    1520:	e7030000 	str	r0, [r3, -r0]
    1524:	2715011d 			; <UNDEFINED> instruction: 0x2715011d
    1528:	32017903 	andcc	r7, r1, #49152	; 0xc000
    152c:	00030269 	andeq	r0, r3, r9, ror #4
    1530:	05000101 	streq	r0, [r0, #-257]	; 0xfffffeff
    1534:	00148c02 	andseq	r8, r4, r2, lsl #24
    1538:	1df70300 	ldclne	3, cr0, [r7]
    153c:	4d4c1501 	cfstr64mi	mvdx1, [ip, #-4]
    1540:	00030221 	andeq	r0, r3, r1, lsr #4
    1544:	05000101 	streq	r0, [r0, #-257]	; 0xfffffeff
    1548:	00000002 	andeq	r0, r0, r2
    154c:	1e880300 	cdpne	3, 8, cr0, cr8, cr0, {0}
    1550:	31322001 	teqcc	r2, r1
    1554:	03324c5b 	teqeq	r2, #23296	; 0x5b00
    1558:	6e344a0e 	vaddvs.f32	s8, s8, s28
    155c:	3c12032f 	ldccc	3, cr0, [r2], {47}	; 0x2f
    1560:	302e0c03 	eorcc	r0, lr, r3, lsl #24
    1564:	30303030 	eorscc	r3, r0, r0, lsr r0
    1568:	0d33524e 	lfmeq	f5, 4, [r3, #-312]!	; 0xfffffec8
    156c:	09023130 	stmdbeq	r2, {r4, r5, r8, ip, sp}
    1570:	00010100 	andeq	r0, r1, r0, lsl #2
    1574:	00000205 	andeq	r0, r0, r5, lsl #4
    1578:	f6030000 			; <UNDEFINED> instruction: 0xf6030000
    157c:	4e20011e 	mcrmi	1, 1, r0, cr0, cr14, {0}
    1580:	4c5b6b31 	vmovmi	r6, fp, d17
    1584:	4a0e0332 	bmi	382254 <__exidx_end+0x3804ac>
    1588:	032f6e34 			; <UNDEFINED> instruction: 0x032f6e34
    158c:	0c033c12 	stceq	12, cr3, [r3], {18}
    1590:	3230302e 	eorscc	r3, r0, #46	; 0x2e
    1594:	031d2343 	tsteq	sp, #201326593	; 0xc000001
    1598:	1f214a09 	svcne	0x00214a09
    159c:	300d3340 	andcc	r3, sp, r0, asr #6
    15a0:	00090231 	andeq	r0, r9, r1, lsr r2
    15a4:	05000101 	streq	r0, [r0, #-257]	; 0xfffffeff
    15a8:	00000002 	andeq	r0, r0, r2
    15ac:	1fef0300 	svcne	0x00ef0300
    15b0:	00412001 	subeq	r2, r1, r1
    15b4:	06010402 	streq	r0, [r1], -r2, lsl #8
    15b8:	303f062e 	eorscc	r0, pc, lr, lsr #12
    15bc:	1c321e22 	ldcne	14, cr1, [r2], #-136	; 0xffffff78
    15c0:	40692222 	rsbmi	r2, r9, r2, lsr #4
    15c4:	0330273d 	teqeq	r0, #15990784	; 0xf40000
    15c8:	4b302012 	blmi	c09618 <__exidx_end+0xc07870>
    15cc:	01040200 	mrseq	r0, R12_usr
    15d0:	02005806 	andeq	r5, r0, #393216	; 0x60000
    15d4:	00200304 	eoreq	r0, r0, r4, lsl #6
    15d8:	06030402 	streq	r0, [r3], -r2, lsl #8
    15dc:	04020077 	streq	r0, [r2], #-119	; 0xffffff89
    15e0:	063c0601 	ldrteq	r0, [ip], -r1, lsl #12
    15e4:	67036a3e 	smladxvs	r3, lr, sl, r6
    15e8:	2025034a 	eorcs	r0, r5, sl, asr #6
    15ec:	00080231 	andeq	r0, r8, r1, lsr r2
    15f0:	05000101 	streq	r0, [r0, #-257]	; 0xfffffeff
    15f4:	00000002 	andeq	r0, r0, r2
    15f8:	20c30300 	sbccs	r0, r3, r0, lsl #6
    15fc:	00502001 	subseq	r2, r0, r1
    1600:	06010402 	streq	r0, [r1], -r2, lsl #8
    1604:	1603062e 	strne	r0, [r3], -lr, lsr #12
    1608:	1e22303c 	mcrne	0, 1, r3, cr2, cr12, {1}
    160c:	241c261e 	ldrcs	r2, [ip], #-1566	; 0xfffff9e2
    1610:	6922221c 	stmdbvs	r2!, {r2, r3, r4, r9, sp}
    1614:	30273d40 	eorcc	r3, r7, r0, asr #26
    1618:	03201203 			; <UNDEFINED> instruction: 0x03201203
    161c:	032e7fbb 			; <UNDEFINED> instruction: 0x032e7fbb
    1620:	002e00c8 	eoreq	r0, lr, r8, asr #1
    1624:	06010402 	streq	r0, [r1], -r2, lsl #8
    1628:	4c3e063c 	ldcmi	6, cr0, [lr], #-240	; 0xffffff10
    162c:	0402004b 	streq	r0, [r2], #-75	; 0xffffffb5
    1630:	00580601 	subseq	r0, r8, r1, lsl #12
    1634:	20030402 	andcs	r0, r3, r2, lsl #8
    1638:	6a5b6c06 	bvs	16dc658 <__exidx_end+0x16da8b0>
    163c:	3c5c0330 	mrrccc	3, 3, r0, ip, cr0
    1640:	3f202d03 	svccc	0x00202d03
    1644:	01000d02 	tsteq	r0, r2, lsl #26
    1648:	02050001 	andeq	r0, r5, #1
    164c:	00000000 	andeq	r0, r0, r0
    1650:	0121b303 			; <UNDEFINED> instruction: 0x0121b303
    1654:	02003320 	andeq	r3, r0, #32, 6	; 0x80000000
    1658:	2e060104 	adfcss	f0, f6, f4
    165c:	3c160306 	ldccc	3, cr0, [r6], {6}
    1660:	2f1f2130 	svccs	0x001f2130
    1664:	20790324 	rsbscs	r0, r9, r4, lsr #6
    1668:	00313227 	eorseq	r3, r1, r7, lsr #4
    166c:	06010402 	streq	r0, [r1], -r2, lsl #8
    1670:	4c3e063c 	ldcmi	6, cr0, [lr], #-240	; 0xffffff10
    1674:	0402004b 	streq	r0, [r2], #-75	; 0xffffffb5
    1678:	00580601 	subseq	r0, r8, r1, lsl #12
    167c:	20030402 	andcs	r0, r3, r2, lsl #8
    1680:	6a5b6c06 	bvs	16dc6a0 <__exidx_end+0x16da8f8>
    1684:	2e090330 	mcrcs	3, 0, r0, cr9, cr0, {1}
    1688:	000b023d 	andeq	r0, fp, sp, lsr r2
    168c:	03220101 			; <UNDEFINED> instruction: 0x03220101
    1690:	00020000 	andeq	r0, r2, r0
    1694:	0000013b 	andeq	r0, r0, fp, lsr r1
    1698:	0efb0102 	cdpeq	1, 15, cr0, cr11, cr2, {0}
    169c:	0101000d 	tsteq	r1, sp
    16a0:	00000101 	andeq	r0, r0, r1, lsl #2
    16a4:	00000100 	andeq	r0, r0, r0, lsl #2
    16a8:	2f2e2e01 	svccs	0x002e2e01
    16ac:	6c2f2e2e 	stcvs	14, cr2, [pc], #-184	; 15fc <prvSwitchTimerLists+0x38>
    16b0:	2f736269 	svccs	0x00736269
    16b4:	65657246 	strbvs	r7, [r5, #-582]!	; 0xfffffdba
    16b8:	534f5452 	movtpl	r5, #62546	; 0xf452
    16bc:	6372732f 	cmnvs	r2, #-1140850688	; 0xbc000000
    16c0:	6f682f00 	svcvs	0x00682f00
    16c4:	6c2f656d 	cfstr32vs	mvfx6, [pc], #-436	; 1518 <prvInsertTimerInActiveList+0x1c>
    16c8:	69727561 	ldmdbvs	r2!, {r0, r5, r6, r8, sl, ip, sp, lr}^
    16cc:	63672f65 	cmnvs	r7, #404	; 0x194
    16d0:	72612d63 	rsbvc	r2, r1, #6336	; 0x18c0
    16d4:	72612f6d 	rsbvc	r2, r1, #436	; 0x1b4
    16d8:	6f6e2d6d 	svcvs	0x006e2d6d
    16dc:	652d656e 	strvs	r6, [sp, #-1390]!	; 0xfffffa92
    16e0:	2f696261 	svccs	0x00696261
    16e4:	6c636e69 	stclvs	14, cr6, [r3], #-420	; 0xfffffe5c
    16e8:	2f656475 	svccs	0x00656475
    16ec:	6863616d 	stmdavs	r3!, {r0, r2, r3, r5, r6, r8, sp, lr}^
    16f0:	00656e69 	rsbeq	r6, r5, r9, ror #28
    16f4:	6d6f682f 	stclvs	8, cr6, [pc, #-188]!	; 1640 <prvTimerTask+0x14>
    16f8:	616c2f65 	cmnvs	ip, r5, ror #30
    16fc:	65697275 	strbvs	r7, [r9, #-629]!	; 0xfffffd8b
    1700:	6363672f 	cmnvs	r3, #12320768	; 0xbc0000
    1704:	6d72612d 	ldfvse	f6, [r2, #-180]!	; 0xffffff4c
    1708:	6d72612f 	ldfvse	f6, [r2, #-188]!	; 0xffffff44
    170c:	6e6f6e2d 	cdpvs	14, 6, cr6, cr15, cr13, {1}
    1710:	61652d65 	cmnvs	r5, r5, ror #26
    1714:	692f6962 	stmdbvs	pc!, {r1, r5, r6, r8, fp, sp, lr}	; <UNPREDICTABLE>
    1718:	756c636e 	strbvc	r6, [ip, #-878]!	; 0xfffffc92
    171c:	732f6564 			; <UNDEFINED> instruction: 0x732f6564
    1720:	2e007379 	mcrcs	3, 0, r7, cr0, cr9, {3}
    1724:	2e2e2f2e 	cdpcs	15, 2, cr2, cr14, cr14, {1}
    1728:	62696c2f 	rsbvs	r6, r9, #12032	; 0x2f00
    172c:	72462f73 	subvc	r2, r6, #460	; 0x1cc
    1730:	54526565 	ldrbpl	r6, [r2], #-1381	; 0xfffffa9b
    1734:	702f534f 	eorvc	r5, pc, pc, asr #6
    1738:	2f74726f 	svccs	0x0074726f
    173c:	00636367 	rsbeq	r6, r3, r7, ror #6
    1740:	2e2f2e2e 	cdpcs	14, 2, cr2, cr15, cr14, {1}
    1744:	696c2f2e 	stmdbvs	ip!, {r1, r2, r3, r5, r8, r9, sl, fp, sp}^
    1748:	462f7362 	strtmi	r7, [pc], -r2, ror #6
    174c:	52656572 	rsbpl	r6, r5, #478150656	; 0x1c800000
    1750:	2f534f54 	svccs	0x00534f54
    1754:	6c636e69 	stclvs	14, cr6, [r3], #-420	; 0xfffffe5c
    1758:	00656475 	rsbeq	r6, r5, r5, ror r4
    175c:	6d697400 	cfstrdvs	mvd7, [r9, #-0]
    1760:	2e737265 	cdpcs	2, 7, cr7, cr3, cr5, {3}
    1764:	00010063 	andeq	r0, r1, r3, rrx
    1768:	65645f00 	strbvs	r5, [r4, #-3840]!	; 0xfffff100
    176c:	6c756166 	ldfvse	f6, [r5], #-408	; 0xfffffe68
    1770:	79745f74 	ldmdbvc	r4!, {r2, r4, r5, r6, r8, r9, sl, fp, ip, lr}^
    1774:	2e736570 	mrccs	5, 3, r6, cr3, cr0, {3}
    1778:	00020068 	andeq	r0, r2, r8, rrx
    177c:	74735f00 	ldrbtvc	r5, [r3], #-3840	; 0xfffff100
    1780:	746e6964 	strbtvc	r6, [lr], #-2404	; 0xfffff69c
    1784:	0300682e 	movweq	r6, #2094	; 0x82e
    1788:	6f700000 	svcvs	0x00700000
    178c:	616d7472 	smcvs	55106	; 0xd742
    1790:	2e6f7263 	cdpcs	2, 6, cr7, cr15, cr3, {3}
    1794:	00040068 	andeq	r0, r4, r8, rrx
    1798:	73696c00 	cmnvc	r9, #0, 24
    179c:	00682e74 	rsbeq	r2, r8, r4, ror lr
    17a0:	71000005 	tstvc	r0, r5
    17a4:	65756575 	ldrbvs	r6, [r5, #-1397]!	; 0xfffffa8b
    17a8:	0500682e 	streq	r6, [r0, #-2094]	; 0xfffff7d2
    17ac:	69740000 	ldmdbvs	r4!, {}^	; <UNPREDICTABLE>
    17b0:	7372656d 	cmnvc	r2, #457179136	; 0x1b400000
    17b4:	0500682e 	streq	r6, [r0, #-2094]	; 0xfffff7d2
    17b8:	61740000 	cmnvs	r4, r0
    17bc:	682e6b73 	stmdavs	lr!, {r0, r1, r4, r5, r6, r8, r9, fp, sp, lr}
    17c0:	00000500 	andeq	r0, r0, r0, lsl #10
    17c4:	74726f70 	ldrbtvc	r6, [r2], #-3952	; 0xfffff090
    17c8:	656c6261 	strbvs	r6, [ip, #-609]!	; 0xfffffd9f
    17cc:	0500682e 	streq	r6, [r0, #-2094]	; 0xfffff7d2
    17d0:	00000000 	andeq	r0, r0, r0
    17d4:	14a40205 	strtne	r0, [r4], #517	; 0x205
    17d8:	82030000 	andhi	r0, r3, #0
    17dc:	30240106 	eorcc	r0, r4, r6, lsl #2
    17e0:	224b4b4c 	subcs	r4, fp, #76, 22	; 0x13000
    17e4:	2d21211e 	stfcss	f2, [r1, #-120]!	; 0xffffff88
    17e8:	02003d21 	andeq	r3, r0, #2112	; 0x840
    17ec:	2e060104 	adfcss	f0, f6, f4
    17f0:	3c140306 	ldccc	3, cr0, [r4], {6}
    17f4:	000c022f 	andeq	r0, ip, pc, lsr #4
    17f8:	05000101 	streq	r0, [r0, #-257]	; 0xfffffeff
    17fc:	0014fc02 	andseq	pc, r4, r2, lsl #24
    1800:	04a00300 	strteq	r0, [r0], #768	; 0x300
    1804:	22212301 	eorcs	r2, r1, #67108864	; 0x4000000
    1808:	361c3232 			; <UNDEFINED> instruction: 0x361c3232
    180c:	04020041 	streq	r0, [r2], #-65	; 0xffffffbf
    1810:	2e770301 	cdpcs	3, 7, cr0, cr7, cr1, {0}
    1814:	01040200 	mrseq	r0, R12_usr
    1818:	03200903 			; <UNDEFINED> instruction: 0x03200903
    181c:	61032e09 	tstvs	r3, r9, lsl #28
    1820:	20240358 	eorcs	r0, r4, r8, asr r3
    1824:	01000602 	tsteq	r0, r2, lsl #12
    1828:	02050001 	andeq	r0, r5, #1
    182c:	00001538 	andeq	r1, r0, r8, lsr r5
    1830:	0101f003 	tsteq	r1, r3	; <UNPREDICTABLE>
    1834:	14033027 	strne	r3, [r3], #-39	; 0xffffffd9
    1838:	3c77034a 	ldclcc	3, cr0, [r7], #-296	; 0xfffffed8
    183c:	30ba0903 	adcscc	r0, sl, r3, lsl #18
    1840:	01000a02 	tsteq	r0, r2, lsl #20
    1844:	02050001 	andeq	r0, r5, #1
    1848:	00000000 	andeq	r0, r0, r0
    184c:	01029303 	tsteq	r2, r3, lsl #6
    1850:	4b344e20 	blmi	d150d8 <__exidx_end+0xd13330>
    1854:	231d3424 	tstcs	sp, #36, 8	; 0x24000000
    1858:	22211d21 	eorcs	r1, r1, #2112	; 0x840
    185c:	3c0d0321 	stccc	3, cr0, [sp], {33}	; 0x21
    1860:	02023f1e 	andeq	r3, r2, #30, 30	; 0x78
    1864:	00010100 	andeq	r0, r1, r0, lsl #2
    1868:	157c0205 	ldrbne	r0, [ip, #-517]!	; 0xfffffdfb
    186c:	bc030000 	stclt	0, cr0, [r3], {-0}
    1870:	03260102 			; <UNDEFINED> instruction: 0x03260102
    1874:	0326207a 			; <UNDEFINED> instruction: 0x0326207a
    1878:	212e207a 			; <UNDEFINED> instruction: 0x212e207a
    187c:	21212325 			; <UNDEFINED> instruction: 0x21212325
    1880:	2c303022 	ldccs	0, cr3, [r0], #-136	; 0xffffff78
    1884:	0b036b34 	bleq	dc55c <__exidx_end+0xda7b4>
    1888:	00050258 	andeq	r0, r5, r8, asr r2
    188c:	05000101 	streq	r0, [r0, #-257]	; 0xfffffeff
    1890:	0015c402 	andseq	ip, r5, r2, lsl #8
    1894:	05c70300 	strbeq	r0, [r7, #768]	; 0x300
    1898:	200a0301 	andcs	r0, sl, r1, lsl #6
    189c:	241d235a 	ldrcs	r2, [sp], #-858	; 0xfffffca6
    18a0:	2f443e50 	svccs	0x00443e50
    18a4:	5c212130 	stfpls	f2, [r1], #-192	; 0xffffff40
    18a8:	04020075 	streq	r0, [r2], #-117	; 0xffffff8b
    18ac:	062e0601 	strteq	r0, [lr], -r1, lsl #12
    18b0:	223c0b03 	eorscs	r0, ip, #3072	; 0xc00
    18b4:	221f2110 	andscs	r2, pc, #16, 2
    18b8:	01000602 	tsteq	r0, r2, lsl #12
    18bc:	02050001 	andeq	r0, r5, #1
    18c0:	0000162c 	andeq	r1, r0, ip, lsr #12
    18c4:	0103a203 	tsteq	r3, r3, lsl #4
    18c8:	01040200 	mrseq	r0, R12_usr
    18cc:	2e00df03 	cdpcs	15, 0, cr13, cr0, cr3, {0}
    18d0:	01040200 	mrseq	r0, R12_usr
    18d4:	00207803 	eoreq	r7, r0, r3, lsl #16
    18d8:	4b010402 	blmi	428e8 <__exidx_end+0x40b40>
    18dc:	2e420330 	mcrcs	3, 2, r0, cr2, cr0, {1}
    18e0:	2e00cf03 	cdpcs	15, 0, cr12, cr0, cr3, {0}
    18e4:	27221e30 			; <UNDEFINED> instruction: 0x27221e30
    18e8:	30207903 	eorcc	r7, r0, r3, lsl #18
    18ec:	ad03272f 	stcge	7, cr2, [r3, #-188]	; 0xffffff44
    18f0:	5a31207f 	bpl	c49af4 <__exidx_end+0xc47d4c>
    18f4:	2e7fb103 	expcse	f3, f3
    18f8:	9441414e 	strbls	r4, [r1], #-334	; 0xfffffeb2
    18fc:	580e0375 	stmdapl	lr, {r0, r2, r4, r5, r6, r8, r9}
    1900:	5a663903 	bpl	198fd14 <__exidx_end+0x198df6c>
    1904:	3c0a0350 	stccc	3, cr0, [sl], {80}	; 0x50
    1908:	3c00ed03 	stccc	13, cr14, [r0], {3}
    190c:	033c0903 	teqeq	ip, #49152	; 0xc000
    1910:	6603580b 	strvs	r5, [r3], -fp, lsl #16
    1914:	9e1e034a 	cdpls	3, 1, cr0, cr14, cr10, {2}
    1918:	9b033f22 	blls	d15a8 <__exidx_end+0xcf800>
    191c:	1e303c7f 	mrcne	12, 1, r3, cr0, cr15, {3}
    1920:	03364c22 	teqeq	r6, #8704	; 0x2200
    1924:	03f201a1 	mvnseq	r0, #1073741864	; 0x40000028
    1928:	3fa24a51 	svccc	0x00a24a51
    192c:	1603913e 			; <UNDEFINED> instruction: 0x1603913e
    1930:	02602f58 	rsbeq	r2, r0, #88, 30	; 0x160
    1934:	0101000e 	tsteq	r1, lr
    1938:	00020500 	andeq	r0, r2, r0, lsl #10
    193c:	03000000 	movweq	r0, #0
    1940:	150102f2 	strne	r0, [r1, #-754]	; 0xfffffd0e
    1944:	00010221 	andeq	r0, r1, r1, lsr #4
    1948:	05000101 	streq	r0, [r0, #-257]	; 0xfffffeff
    194c:	00000002 	andeq	r0, r0, r2
    1950:	06a80300 	strteq	r0, [r8], r0, lsl #6
    1954:	33252001 			; <UNDEFINED> instruction: 0x33252001
    1958:	31300d25 	teqcc	r0, r5, lsr #26
    195c:	01000202 	tsteq	r0, r2, lsl #4
    1960:	02050001 	andeq	r0, r5, #1
    1964:	00000000 	andeq	r0, r0, r0
    1968:	0106bb03 	tsteq	r6, r3, lsl #22
    196c:	01022115 	tsteq	r2, r5, lsl r1
    1970:	00010100 	andeq	r0, r1, r0, lsl #2
    1974:	00000205 	andeq	r0, r0, r5, lsl #4
    1978:	c5030000 	strgt	r0, [r3, #-0]
    197c:	34200106 	strtcc	r0, [r0], #-262	; 0xfffffefa
    1980:	301b2421 	andscc	r2, fp, r1, lsr #8
    1984:	33223a23 			; <UNDEFINED> instruction: 0x33223a23
    1988:	01000502 	tsteq	r0, r2, lsl #10
    198c:	02050001 	andeq	r0, r5, #1
    1990:	00000000 	andeq	r0, r0, r0
    1994:	0106dd03 	tsteq	r6, r3, lsl #26
    1998:	20790343 	rsbscs	r0, r9, r3, asr #6
    199c:	20790327 	rsbscs	r0, r9, r7, lsr #6
    19a0:	04020027 	streq	r0, [r2], #-39	; 0xffffffd9
    19a4:	062e0601 	strteq	r0, [lr], -r1, lsl #12
    19a8:	2a233e40 	bcs	8d12b0 <__exidx_end+0x8cf508>
    19ac:	02332222 	eorseq	r2, r3, #536870914	; 0x20000002
    19b0:	01010004 	tsteq	r1, r4
    19b4:	000002f6 	strdeq	r0, [r0], -r6
    19b8:	01520002 	cmpeq	r2, r2
    19bc:	01020000 	mrseq	r0, (UNDEF: 2)
    19c0:	000d0efb 	strdeq	r0, [sp], -fp
    19c4:	01010101 	tsteq	r1, r1, lsl #2
    19c8:	01000000 	mrseq	r0, (UNDEF: 0)
    19cc:	2e010000 	cdpcs	0, 0, cr0, cr1, cr0, {0}
    19d0:	2e2e2f2e 	cdpcs	15, 2, cr2, cr14, cr14, {1}
    19d4:	62696c2f 	rsbvs	r6, r9, #12032	; 0x2f00
    19d8:	72462f73 	subvc	r2, r6, #460	; 0x1cc
    19dc:	54526565 	ldrbpl	r6, [r2], #-1381	; 0xfffffa9b
    19e0:	702f534f 	eorvc	r5, pc, pc, asr #6
    19e4:	2f74726f 	svccs	0x0074726f
    19e8:	00636367 	rsbeq	r6, r3, r7, ror #6
    19ec:	6d6f682f 	stclvs	8, cr6, [pc, #-188]!	; 1938 <vPortClearInterruptMask+0x4>
    19f0:	616c2f65 	cmnvs	ip, r5, ror #30
    19f4:	65697275 	strbvs	r7, [r9, #-629]!	; 0xfffffd8b
    19f8:	6363672f 	cmnvs	r3, #12320768	; 0xbc0000
    19fc:	6d72612d 	ldfvse	f6, [r2, #-180]!	; 0xffffff4c
    1a00:	6d72612f 	ldfvse	f6, [r2, #-188]!	; 0xffffff44
    1a04:	6e6f6e2d 	cdpvs	14, 6, cr6, cr15, cr13, {1}
    1a08:	61652d65 	cmnvs	r5, r5, ror #26
    1a0c:	692f6962 	stmdbvs	pc!, {r1, r5, r6, r8, fp, sp, lr}	; <UNPREDICTABLE>
    1a10:	756c636e 	strbvc	r6, [ip, #-878]!	; 0xfffffc92
    1a14:	6d2f6564 	cfstr32vs	mvfx6, [pc, #-400]!	; 188c <SVC_Handler+0x8>
    1a18:	69686361 	stmdbvs	r8!, {r0, r5, r6, r8, r9, sp, lr}^
    1a1c:	2f00656e 	svccs	0x0000656e
    1a20:	656d6f68 	strbvs	r6, [sp, #-3944]!	; 0xfffff098
    1a24:	75616c2f 	strbvc	r6, [r1, #-3119]!	; 0xfffff3d1
    1a28:	2f656972 	svccs	0x00656972
    1a2c:	2d636367 	stclcs	3, cr6, [r3, #-412]!	; 0xfffffe64
    1a30:	2f6d7261 	svccs	0x006d7261
    1a34:	2d6d7261 	sfmcs	f7, 2, [sp, #-388]!	; 0xfffffe7c
    1a38:	656e6f6e 	strbvs	r6, [lr, #-3950]!	; 0xfffff092
    1a3c:	6261652d 	rsbvs	r6, r1, #188743680	; 0xb400000
    1a40:	6e692f69 	cdpvs	15, 6, cr2, cr9, cr9, {3}
    1a44:	64756c63 	ldrbtvs	r6, [r5], #-3171	; 0xfffff39d
    1a48:	79732f65 	ldmdbvc	r3!, {r0, r2, r5, r6, r8, r9, sl, fp, sp}^
    1a4c:	2e2e0073 	mcrcs	0, 1, r0, cr14, cr3, {3}
    1a50:	2f2e2e2f 	svccs	0x002e2e2f
    1a54:	7362696c 	cmnvc	r2, #108, 18	; 0x1b0000
    1a58:	6572462f 	ldrbvs	r4, [r2, #-1583]!	; 0xfffff9d1
    1a5c:	4f545265 	svcmi	0x00545265
    1a60:	6e692f53 	mcrvs	15, 3, r2, cr9, cr3, {2}
    1a64:	64756c63 	ldrbtvs	r6, [r5], #-3171	; 0xfffff39d
    1a68:	682f0065 	stmdavs	pc!, {r0, r2, r5, r6}	; <UNPREDICTABLE>
    1a6c:	2f656d6f 	svccs	0x00656d6f
    1a70:	7275616c 	rsbsvc	r6, r5, #108, 2
    1a74:	672f6569 	strvs	r6, [pc, -r9, ror #10]!
    1a78:	612d6363 			; <UNDEFINED> instruction: 0x612d6363
    1a7c:	612f6d72 			; <UNDEFINED> instruction: 0x612f6d72
    1a80:	6e2d6d72 	mcrvs	13, 1, r6, cr13, cr2, {3}
    1a84:	2d656e6f 	stclcs	14, cr6, [r5, #-444]!	; 0xfffffe44
    1a88:	69626165 	stmdbvs	r2!, {r0, r2, r5, r6, r8, sp, lr}^
    1a8c:	636e692f 	cmnvs	lr, #770048	; 0xbc000
    1a90:	6564756c 	strbvs	r7, [r4, #-1388]!	; 0xfffffa94
    1a94:	6f700000 	svcvs	0x00700000
    1a98:	632e7472 			; <UNDEFINED> instruction: 0x632e7472
    1a9c:	00000100 	andeq	r0, r0, r0, lsl #2
    1aa0:	6665645f 			; <UNDEFINED> instruction: 0x6665645f
    1aa4:	746c7561 	strbtvc	r7, [ip], #-1377	; 0xfffffa9f
    1aa8:	7079745f 	rsbsvc	r7, r9, pc, asr r4
    1aac:	682e7365 	stmdavs	lr!, {r0, r2, r5, r6, r8, r9, ip, sp, lr}
    1ab0:	00000200 	andeq	r0, r0, r0, lsl #4
    1ab4:	6474735f 	ldrbtvs	r7, [r4], #-863	; 0xfffffca1
    1ab8:	2e746e69 	cdpcs	14, 7, cr6, cr4, cr9, {3}
    1abc:	00030068 	andeq	r0, r3, r8, rrx
    1ac0:	726f7000 	rsbvc	r7, pc, #0
    1ac4:	63616d74 	cmnvs	r1, #116, 26	; 0x1d00
    1ac8:	682e6f72 	stmdavs	lr!, {r1, r4, r5, r6, r8, r9, sl, fp, sp, lr}
    1acc:	00000100 	andeq	r0, r0, r0, lsl #2
    1ad0:	6a6f7270 	bvs	1bde498 <__exidx_end+0x1bdc6f0>
    1ad4:	73666564 	cmnvc	r6, #100, 10	; 0x19000000
    1ad8:	0400682e 	streq	r6, [r0], #-2094	; 0xfffff7d2
    1adc:	65730000 	ldrbvs	r0, [r3, #-0]!
    1ae0:	706d6a74 	rsbvc	r6, sp, r4, ror sl
    1ae4:	0200682e 	andeq	r6, r0, #3014656	; 0x2e0000
    1ae8:	65730000 	ldrbvs	r0, [r3, #-0]!
    1aec:	706d6a74 	rsbvc	r6, sp, r4, ror sl
    1af0:	0500682e 	streq	r6, [r0, #-2094]	; 0xfffff7d2
    1af4:	61740000 	cmnvs	r4, r0
    1af8:	682e6b73 	stmdavs	lr!, {r0, r1, r4, r5, r6, r8, r9, fp, sp, lr}
    1afc:	00000400 	andeq	r0, r0, r0, lsl #8
    1b00:	74726f70 	ldrbtvc	r6, [r2], #-3952	; 0xfffff090
    1b04:	6b636954 	blvs	18dc05c <__exidx_end+0x18da2b4>
    1b08:	00682e73 	rsbeq	r2, r8, r3, ror lr
    1b0c:	00000001 	andeq	r0, r0, r1
    1b10:	b4020500 	strlt	r0, [r2], #-1280	; 0xfffffb00
    1b14:	03000017 	movweq	r0, #23
    1b18:	240102ec 	strcs	r0, [r1], #-748	; 0xfffffd14
    1b1c:	2840304c 	stmdacs	r0, {r2, r3, r6, ip, sp}^
    1b20:	03207803 			; <UNDEFINED> instruction: 0x03207803
    1b24:	0302200a 	movweq	r2, #8202	; 0x200a
    1b28:	00010100 	andeq	r0, r1, r0, lsl #2
    1b2c:	17d40205 	ldrbne	r0, [r4, r5, lsl #4]
    1b30:	8c030000 	stchi	0, cr0, [r3], {-0}
    1b34:	2a030105 	bcs	c1f50 <__exidx_end+0xc01a8>
    1b38:	20560301 	subscs	r0, r6, r1, lsl #6
    1b3c:	42202a03 	eormi	r2, r0, #12288	; 0x3000
    1b40:	31017a03 	tstcc	r1, r3, lsl #20
    1b44:	2f3d1f59 	svccs	0x003d1f59
    1b48:	000b023d 	andeq	r0, fp, sp, lsr r2
    1b4c:	05000101 	streq	r0, [r0, #-257]	; 0xfffffeff
    1b50:	00000002 	andeq	r0, r0, r2
    1b54:	05be0300 	ldreq	r0, [lr, #768]!	; 0x300
    1b58:	112f1301 			; <UNDEFINED> instruction: 0x112f1301
    1b5c:	00030221 	andeq	r0, r3, r1, lsr #4
    1b60:	05000101 	streq	r0, [r0, #-257]	; 0xfffffeff
    1b64:	00000002 	andeq	r0, r0, r2
    1b68:	05c20300 	strbeq	r0, [r2, #768]	; 0x300
    1b6c:	112f1301 			; <UNDEFINED> instruction: 0x112f1301
    1b70:	00030221 	andeq	r0, r3, r1, lsr #4
    1b74:	05000101 	streq	r0, [r0, #-257]	; 0xfffffeff
    1b78:	00000002 	andeq	r0, r0, r2
    1b7c:	06b00300 	ldrteq	r0, [r0], r0, lsl #6
    1b80:	7f930301 	svcvc	0x00930301
    1b84:	00ed0301 	rsceq	r0, sp, r1, lsl #6
    1b88:	8d03262e 	stchi	6, cr2, [r3, #-184]	; 0xffffff48
    1b8c:	f303207f 	vqadd.u8	q1, <illegal reg q1.5>, <illegal reg q15.5>
    1b90:	07022000 	streq	r2, [r2, -r0]
    1b94:	00010100 	andeq	r0, r1, r0, lsl #2
    1b98:	18140205 	ldmdane	r4, {r0, r2, r9}
    1b9c:	d6030000 	strle	r0, [r3], -r0
    1ba0:	4d140106 	ldfmis	f0, [r4, #-24]	; 0xffffffe8
    1ba4:	04022f2f 	streq	r2, [r2], #-3887	; 0xfffff0d1
    1ba8:	00010100 	andeq	r0, r1, r0, lsl #2
    1bac:	00000205 	andeq	r0, r0, r5, lsl #4
    1bb0:	e0030000 	and	r0, r3, r0
    1bb4:	22150106 	andscs	r0, r5, #-2147483647	; 0x80000001
    1bb8:	04022210 	streq	r2, [r2], #-528	; 0xfffffdf0
    1bbc:	00010100 	andeq	r0, r1, r0, lsl #2
    1bc0:	182c0205 	stmdane	ip!, {r0, r2, r9}
    1bc4:	c3030000 	movwgt	r0, #12288	; 0x3000
    1bc8:	03130107 	tsteq	r3, #-1073741823	; 0xc0000001
    1bcc:	04028209 	streq	r8, [r2], #-521	; 0xfffffdf7
    1bd0:	00010100 	andeq	r0, r1, r0, lsl #2
    1bd4:	18440205 	stmdane	r4, {r0, r2, r9}^
    1bd8:	e4030000 	str	r0, [r3], #-0
    1bdc:	39030105 	stmdbcc	r3, {r0, r2, r8}
    1be0:	20470301 	subcs	r0, r7, r1, lsl #6
    1be4:	59203903 	stmdbpl	r0!, {r0, r1, r8, fp, ip, sp}
    1be8:	7fa0033d 	svcvc	0x00a0033d
    1bec:	00e7032e 	rsceq	r0, r7, lr, lsr #6
    1bf0:	7f99032e 	svcvc	0x0099032e
    1bf4:	00e70320 	rsceq	r0, r7, r0, lsr #6
    1bf8:	02314f20 	eorseq	r4, r1, #32, 30	; 0x80
    1bfc:	0101000a 	tsteq	r1, sl
    1c00:	84020500 	strhi	r0, [r2], #-1280	; 0xfffffb00
    1c04:	03000018 	movweq	r0, #24
    1c08:	03010890 	movweq	r0, #6288	; 0x1890
    1c0c:	1402011c 	strne	r0, [r2], #-284	; 0xfffffee4
    1c10:	00010100 	andeq	r0, r1, r0, lsl #2
    1c14:	18ac0205 	stmiane	ip!, {r0, r2, r9}
    1c18:	c4030000 	strgt	r0, [r3], #-0
    1c1c:	e3030108 	movw	r0, #12552	; 0x3108
    1c20:	2c030100 	stfcss	f0, [r3], {-0}
    1c24:	00220201 	eoreq	r0, r2, r1, lsl #4
    1c28:	05000101 	streq	r0, [r0, #-257]	; 0xfffffeff
    1c2c:	0018f002 	andseq	pc, r8, r2
    1c30:	09fc0300 	ldmibeq	ip!, {r8, r9}^
    1c34:	00ef0301 	rsceq	r0, pc, r1, lsl #6
    1c38:	02521301 	subseq	r1, r2, #67108864	; 0x4000000
    1c3c:	01010001 	tsteq	r1, r1
    1c40:	fc020500 	stc2	5, cr0, [r2], {-0}
    1c44:	03000018 	movweq	r0, #24
    1c48:	270102ca 	strcs	r0, [r1, -sl, asr #5]
    1c4c:	01040200 	mrseq	r0, R12_usr
    1c50:	3d064a06 	vstrcc	s8, [r6, #-24]	; 0xffffffe8
    1c54:	01000602 	tsteq	r0, r2, lsl #12
    1c58:	02050001 	andeq	r0, r5, #1
    1c5c:	00001918 	andeq	r1, r0, r8, lsl r9
    1c60:	0106bc03 	tsteq	r6, r3, lsl #24
    1c64:	2f4b3027 	svccs	0x004b3027
    1c68:	0003022f 	andeq	r0, r3, pc, lsr #4
    1c6c:	05000101 	streq	r0, [r0, #-257]	; 0xfffffeff
    1c70:	00193402 	andseq	r3, r9, r2, lsl #8
    1c74:	0af80300 	beq	ffe0287c <__stack+0xdfdfc87c>
    1c78:	03021301 	movweq	r1, #8961	; 0x2301
    1c7c:	00010100 	andeq	r0, r1, r0, lsl #2
    1c80:	193c0205 	ldmdbne	ip!, {r0, r2, r9}
    1c84:	80030000 	andhi	r0, r3, r0
    1c88:	ca03010b 	bgt	c20bc <__exidx_end+0xc0314>
    1c8c:	4b25017b 	blmi	942280 <__exidx_end+0x9404d8>
    1c90:	0302312f 	movweq	r3, #8495	; 0x212f
    1c94:	00010100 	andeq	r0, r1, r0, lsl #2
    1c98:	19540205 	ldmdbne	r4, {r0, r2, r9}^
    1c9c:	8d030000 	stchi	0, cr0, [r3, #-0]
    1ca0:	03280107 			; <UNDEFINED> instruction: 0x03280107
    1ca4:	304b2e0b 	subcc	r2, fp, fp, lsl #28
    1ca8:	0001023d 	andeq	r0, r1, sp, lsr r2
    1cac:	009d0101 	addseq	r0, sp, r1, lsl #2
    1cb0:	00020000 	andeq	r0, r2, r0
    1cb4:	0000003c 	andeq	r0, r0, ip, lsr r0
    1cb8:	0efb0102 	cdpeq	1, 15, cr0, cr11, cr2, {0}
    1cbc:	0101000d 	tsteq	r1, sp
    1cc0:	00000101 	andeq	r0, r0, r1, lsl #2
    1cc4:	00000100 	andeq	r0, r0, r0, lsl #2
    1cc8:	2f2e2e01 	svccs	0x002e2e01
    1ccc:	632f2e2e 			; <UNDEFINED> instruction: 0x632f2e2e
    1cd0:	7369736d 	cmnvc	r9, #-1275068415	; 0xb4000001
    1cd4:	4c4b4d2f 	mcrrmi	13, 2, r4, fp, cr15
    1cd8:	345a3634 	ldrbcc	r3, [sl], #-1588	; 0xfffff9cc
    1cdc:	74730000 	ldrbtvc	r0, [r3], #-0
    1ce0:	75747261 	ldrbvc	r7, [r4, #-609]!	; 0xfffffd9f
    1ce4:	4b4d5f70 	blmi	1359aac <__exidx_end+0x1357d04>
    1ce8:	5a36344c 	bpl	d8ee20 <__exidx_end+0xd8d078>
    1cec:	00732e34 	rsbseq	r2, r3, r4, lsr lr
    1cf0:	00000001 	andeq	r0, r0, r1
    1cf4:	c0020500 	andgt	r0, r2, r0, lsl #10
    1cf8:	03000000 	movweq	r0, #0
    1cfc:	21010193 			; <UNDEFINED> instruction: 0x21010193
    1d00:	22212221 	eorcs	r2, r1, #268435458	; 0x10000002
    1d04:	21212122 			; <UNDEFINED> instruction: 0x21212122
    1d08:	21212321 			; <UNDEFINED> instruction: 0x21212321
    1d0c:	2e6d0321 	cdpcs	3, 6, cr0, cr13, cr1, {1}
    1d10:	0e032f2f 	cdpeq	15, 0, cr2, cr3, cr15, {1}
    1d14:	0202302e 	andeq	r3, r2, #46	; 0x2e
    1d18:	00010100 	andeq	r0, r1, r0, lsl #2
    1d1c:	19700205 	ldmdbne	r0!, {r0, r2, r9}^
    1d20:	b8030000 	stmdalt	r3, {}	; <UNPREDICTABLE>
    1d24:	21210101 			; <UNDEFINED> instruction: 0x21210101
    1d28:	22212121 	eorcs	r2, r1, #1073741832	; 0x40000008
    1d2c:	21212121 			; <UNDEFINED> instruction: 0x21212121
    1d30:	21212121 			; <UNDEFINED> instruction: 0x21212121
    1d34:	21212121 			; <UNDEFINED> instruction: 0x21212121
    1d38:	21212121 			; <UNDEFINED> instruction: 0x21212121
    1d3c:	21212121 			; <UNDEFINED> instruction: 0x21212121
    1d40:	21212121 			; <UNDEFINED> instruction: 0x21212121
    1d44:	21212121 			; <UNDEFINED> instruction: 0x21212121
    1d48:	02022121 	andeq	r2, r2, #1073741832	; 0x40000008
    1d4c:	Address 0x00001d4c is out of bounds.


Disassembly of section .debug_str:

00000000 <.debug_str>:
       0:	54504f53 	ldrbpl	r4, [r0], #-3923	; 0xfffff0ad
       4:	43460035 	movtmi	r0, #24629	; 0x6035
       8:	00314746 	eorseq	r4, r1, r6, asr #14
       c:	47464346 	strbmi	r4, [r6, -r6, asr #6]
      10:	44530032 	ldrbmi	r0, [r3], #-50	; 0xffffffce
      14:	52004449 	andpl	r4, r0, #1224736768	; 0x49000000
      18:	52455345 	subpl	r5, r5, #335544321	; 0x14000001
      1c:	5f444556 	svcpl	0x00444556
      20:	54410033 	strbpl	r0, [r1], #-51	; 0xffffffcd
      24:	00485643 	subeq	r5, r8, r3, asr #12
      28:	56435441 	strbpl	r5, [r3], -r1, asr #8
      2c:	2e2e004c 	cdpcs	0, 2, cr0, cr14, cr12, {2}
      30:	2f2e2e2f 	svccs	0x002e2e2f
      34:	69736d63 	ldmdbvs	r3!, {r0, r1, r5, r6, r8, sl, fp, sp, lr}^
      38:	4b4d2f73 	blmi	134be0c <__exidx_end+0x134a064>
      3c:	5a36344c 	bpl	d8d174 <__exidx_end+0xd8b3cc>
      40:	79732f34 	ldmdbvc	r3!, {r2, r4, r5, r8, r9, sl, fp, sp}^
      44:	6d657473 	cfstrdvs	mvd7, [r5, #-460]!	; 0xfffffe34
      48:	4c4b4d5f 	mcrrmi	13, 5, r4, fp, cr15
      4c:	345a3634 	ldrbcc	r3, [sl], #-1588	; 0xfffff9cc
      50:	5f00632e 	svcpl	0x0000632e
      54:	6e69755f 	mcrvs	5, 3, r7, cr9, cr15, {2}
      58:	5f323374 	svcpl	0x00323374
      5c:	49530074 	ldmdbmi	r3, {r2, r4, r5, r6}^
      60:	79545f4d 	ldmdbvc	r4, {r0, r2, r3, r6, r8, r9, sl, fp, ip, lr}^
      64:	47006570 	smlsdxmi	r0, r0, r5, r6
      68:	4320554e 			; <UNDEFINED> instruction: 0x4320554e
      6c:	35203939 	strcc	r3, [r0, #-2361]!	; 0xfffff6c7
      70:	312e342e 			; <UNDEFINED> instruction: 0x312e342e
      74:	31303220 	teqcc	r0, r0, lsr #4
      78:	31393036 	teqcc	r9, r6, lsr r0
      7c:	72282039 	eorvc	r2, r8, #57	; 0x39
      80:	61656c65 	cmnvs	r5, r5, ror #24
      84:	20296573 	eorcs	r6, r9, r3, ror r5
      88:	4d52415b 	ldfmie	f4, [r2, #-364]	; 0xfffffe94
      8c:	626d652f 	rsbvs	r6, sp, #197132288	; 0xbc00000
      90:	65646465 	strbvs	r6, [r4, #-1125]!	; 0xfffffb9b
      94:	2d352d64 	ldccs	13, cr2, [r5, #-400]!	; 0xfffffe70
      98:	6e617262 	cdpvs	2, 6, cr7, cr1, cr2, {3}
      9c:	72206863 	eorvc	r6, r0, #6488064	; 0x630000
      a0:	73697665 	cmnvc	r9, #105906176	; 0x6500000
      a4:	206e6f69 	rsbcs	r6, lr, r9, ror #30
      a8:	34303432 	ldrtcc	r3, [r0], #-1074	; 0xfffffbce
      ac:	205d3639 	subscs	r3, sp, r9, lsr r6
      b0:	68746d2d 	ldmdavs	r4!, {r0, r2, r3, r5, r8, sl, fp, sp, lr}^
      b4:	20626d75 	rsbcs	r6, r2, r5, ror sp
      b8:	70636d2d 	rsbvc	r6, r3, sp, lsr #26
      bc:	6f633d75 	svcvs	0x00633d75
      c0:	78657472 	stmdavc	r5!, {r1, r4, r5, r6, sl, ip, sp, lr}^
      c4:	70306d2d 	eorsvc	r6, r0, sp, lsr #26
      c8:	2073756c 	rsbscs	r7, r3, ip, ror #10
      cc:	2d20672d 	stccs	7, cr6, [r0, #-180]!	; 0xffffff4c
      d0:	62646767 	rsbvs	r6, r4, #27000832	; 0x19c0000
      d4:	734f2d20 	movtvc	r2, #64800	; 0xfd20
      d8:	74732d20 	ldrbtvc	r2, [r3], #-3360	; 0xfffff2e0
      dc:	6e673d64 	cdpvs	13, 6, cr3, cr7, cr4, {3}
      e0:	20393975 	eorscs	r3, r9, r5, ror r9
      e4:	6f6e662d 	svcvs	0x006e662d
      e8:	7274732d 	rsbsvc	r7, r4, #-1275068416	; 0xb4000000
      ec:	2d746369 	ldclcs	3, cr6, [r4, #-420]!	; 0xfffffe5c
      f0:	61696c61 	cmnvs	r9, r1, ror #24
      f4:	676e6973 			; <UNDEFINED> instruction: 0x676e6973
      f8:	66662d20 	strbtvs	r2, [r6], -r0, lsr #26
      fc:	74636e75 	strbtvc	r6, [r3], #-3701	; 0xfffff18b
     100:	2d6e6f69 	stclcs	15, cr6, [lr, #-420]!	; 0xfffffe5c
     104:	74636573 	strbtvc	r6, [r3], #-1395	; 0xfffffa8d
     108:	736e6f69 	cmnvc	lr, #420	; 0x1a4
     10c:	64662d20 	strbtvs	r2, [r6], #-3360	; 0xfffff2e0
     110:	2d617461 	cfstrdcs	mvd7, [r1, #-388]!	; 0xfffffe7c
     114:	74636573 	strbtvc	r6, [r3], #-1395	; 0xfffffa8d
     118:	736e6f69 	cmnvc	lr, #420	; 0x1a4
     11c:	6e662d20 	cdpvs	13, 6, cr2, cr6, cr0, {1}
     120:	78652d6f 	stmdavc	r5!, {r0, r1, r2, r3, r5, r6, r8, sl, fp, sp}^
     124:	74706563 	ldrbtvc	r6, [r0], #-1379	; 0xfffffa9d
     128:	736e6f69 	cmnvc	lr, #420	; 0x1a4
     12c:	6e662d20 	cdpvs	13, 6, cr2, cr6, cr0, {1}
     130:	65642d6f 	strbvs	r2, [r4, #-3439]!	; 0xfffff291
     134:	6574656c 	ldrbvs	r6, [r4, #-1388]!	; 0xfffffa94
     138:	6c756e2d 	ldclvs	14, cr6, [r5], #-180	; 0xffffff4c
     13c:	6f702d6c 	svcvs	0x00702d6c
     140:	65746e69 	ldrbvs	r6, [r4, #-3689]!	; 0xfffff197
     144:	68632d72 	stmdavs	r3!, {r1, r4, r5, r6, r8, sl, fp, sp}^
     148:	736b6365 	cmnvc	fp, #-1811939327	; 0x94000001
     14c:	6d662d20 	stclvs	13, cr2, [r6, #-128]!	; 0xffffff80
     150:	61737365 	cmnvs	r3, r5, ror #6
     154:	6c2d6567 	cfstr32vs	mvfx6, [sp], #-412	; 0xfffffe64
     158:	74676e65 	strbtvc	r6, [r7], #-3685	; 0xfffff19b
     15c:	20303d68 	eorscs	r3, r0, r8, ror #26
     160:	6f6e662d 	svcvs	0x006e662d
     164:	6975622d 	ldmdbvs	r5!, {r0, r2, r3, r5, r9, sp, lr}^
     168:	6e69746c 	cdpvs	4, 6, cr7, cr9, cr12, {3}
     16c:	6f687300 	svcvs	0x00687300
     170:	69207472 	stmdbvs	r0!, {r1, r4, r5, r6, sl, ip, sp, lr}
     174:	6c00746e 	cfstrsvs	mvf7, [r0], {110}	; 0x6e
     178:	20676e6f 	rsbcs	r6, r7, pc, ror #28
     17c:	676e6f6c 	strbvs	r6, [lr, -ip, ror #30]!
     180:	746e6920 	strbtvc	r6, [lr], #-2336	; 0xfffff6e0
     184:	7a697300 	bvc	1a5cd8c <__exidx_end+0x1a5afe4>
     188:	70797465 	rsbsvc	r7, r9, r5, ror #8
     18c:	4f530065 	svcmi	0x00530065
     190:	43315450 	teqmi	r1, #80, 8	; 0x50000000
     194:	53004746 	movwpl	r4, #1862	; 0x746
     198:	34434743 	strbcc	r4, [r3], #-1859	; 0xfffff8bd
     19c:	47435300 	strbmi	r5, [r3, -r0, lsl #6]
     1a0:	53003543 	movwpl	r3, #1347	; 0x543
     1a4:	36434743 	strbcc	r4, [r3], -r3, asr #14
     1a8:	47435300 	strbmi	r5, [r3, -r0, lsl #6]
     1ac:	53003743 	movwpl	r3, #1859	; 0x743
     1b0:	3254504f 	subscc	r5, r4, #79	; 0x4f
     1b4:	56525300 	ldrbpl	r5, [r2], -r0, lsl #6
     1b8:	00504f43 	subseq	r4, r0, r3, asr #30
     1bc:	48435047 	stmdami	r3, {r0, r1, r2, r6, ip, lr}^
     1c0:	4f530052 	svcmi	0x00530052
     1c4:	00375450 	eorseq	r5, r7, r0, asr r4
     1c8:	444b4c43 	strbmi	r4, [fp], #-3139	; 0xfffff3bd
     1cc:	00315649 	eorseq	r5, r1, r9, asr #12
     1d0:	69736e75 	ldmdbvs	r3!, {r0, r2, r4, r5, r6, r9, sl, fp, sp, lr}^
     1d4:	64656e67 	strbtvs	r6, [r5], #-3687	; 0xfffff199
     1d8:	61686320 	cmnvs	r8, r0, lsr #6
     1dc:	4f430072 	svcmi	0x00430072
     1e0:	6c004350 	stcvs	3, cr4, [r0], {80}	; 0x50
     1e4:	20676e6f 	rsbcs	r6, r7, pc, ror #28
     1e8:	676e6f6c 	strbvs	r6, [lr, -ip, ror #30]!
     1ec:	736e7520 	cmnvc	lr, #32, 10	; 0x8000000
     1f0:	656e6769 	strbvs	r6, [lr, #-1897]!	; 0xfffff897
     1f4:	6e692064 	cdpvs	0, 6, cr2, cr9, cr4, {3}
     1f8:	50470074 	subpl	r0, r7, r4, ror r0
     1fc:	00524c43 	subseq	r4, r2, r3, asr #24
     200:	69755f5f 	ldmdbvs	r5!, {r0, r1, r2, r3, r4, r6, r8, r9, sl, fp, ip, lr}^
     204:	5f38746e 	svcpl	0x0038746e
     208:	79530074 	ldmdbvc	r3, {r2, r4, r5, r6}^
     20c:	6d657473 	cfstrdvs	mvd7, [r5, #-460]!	; 0xfffffe34
     210:	74696e49 	strbtvc	r6, [r9], #-3657	; 0xfffff1b7
     214:	6f687300 	svcvs	0x00687300
     218:	75207472 	strvc	r7, [r0, #-1138]!	; 0xfffffb8e
     21c:	6769736e 	strbvs	r7, [r9, -lr, ror #6]!
     220:	2064656e 	rsbcs	r6, r4, lr, ror #10
     224:	00746e69 	rsbseq	r6, r4, r9, ror #28
     228:	69766944 	ldmdbvs	r6!, {r2, r6, r8, fp, sp, lr}^
     22c:	00726564 	rsbseq	r6, r2, r4, ror #10
     230:	74737953 	ldrbtvc	r7, [r3], #-2387	; 0xfffff6ad
     234:	6f436d65 	svcvs	0x00436d65
     238:	6c436572 	cfstr64vs	mvdx6, [r3], {114}	; 0x72
     23c:	556b636f 	strbpl	r6, [fp, #-879]!	; 0xfffffc91
     240:	74616470 	strbtvc	r6, [r1], #-1136	; 0xfffffb90
     244:	434d0065 	movtmi	r0, #53349	; 0xd065
     248:	79545f47 	ldmdbvc	r4, {r0, r1, r2, r6, r8, r9, sl, fp, ip, lr}^
     24c:	53006570 	movwpl	r6, #1392	; 0x570
     250:	3154504f 	cmpcc	r4, pc, asr #32
     254:	73795300 	cmnvc	r9, #0, 6
     258:	436d6574 	cmnmi	sp, #116, 10	; 0x1d000000
     25c:	4365726f 	cmnmi	r5, #-268435450	; 0xf0000006
     260:	6b636f6c 	blvs	18dc018 <__exidx_end+0x18da270>
     264:	44495500 	strbmi	r5, [r9], #-1280	; 0xfffffb00
     268:	4f53004c 	svcmi	0x0053004c
     26c:	00345450 	eorseq	r5, r4, r0, asr r4
     270:	4d444955 	stclmi	9, cr4, [r4, #-340]	; 0xfffffeac
     274:	49550048 	ldmdbmi	r5, {r3, r6}^
     278:	004c4d44 	subeq	r4, ip, r4, asr #26
     27c:	45534552 	ldrbmi	r4, [r3, #-1362]	; 0xfffffaae
     280:	44455652 	strbmi	r5, [r5], #-1618	; 0xfffff9ae
     284:	5200305f 	andpl	r3, r0, #95	; 0x5f
     288:	52455345 	subpl	r5, r5, #335544321	; 0x14000001
     28c:	5f444556 	svcpl	0x00444556
     290:	45520031 	ldrbmi	r0, [r2, #-49]	; 0xffffffcf
     294:	56524553 			; <UNDEFINED> instruction: 0x56524553
     298:	325f4445 	subscc	r4, pc, #1157627904	; 0x45000000
     29c:	43534f00 	cmpmi	r3, #0, 30
     2a0:	7079545f 	rsbsvc	r5, r9, pc, asr r4
     2a4:	45520065 	ldrbmi	r0, [r2, #-101]	; 0xffffff9b
     2a8:	56524553 			; <UNDEFINED> instruction: 0x56524553
     2ac:	345f4445 	ldrbcc	r4, [pc], #-1093	; 2b4 <.flash_to_ram_loop_end+0x1de>
     2b0:	53455200 	movtpl	r5, #20992	; 0x5200
     2b4:	45565245 	ldrbmi	r5, [r6, #-581]	; 0xfffffdbb
     2b8:	00355f44 	eorseq	r5, r5, r4, asr #30
     2bc:	45534552 	ldrbmi	r4, [r3, #-1362]	; 0xfffffaae
     2c0:	44455652 	strbmi	r5, [r5], #-1618	; 0xfffff9ae
     2c4:	5200365f 	andpl	r3, r0, #99614720	; 0x5f00000
     2c8:	52455345 	subpl	r5, r5, #335544321	; 0x14000001
     2cc:	5f444556 	svcpl	0x00444556
     2d0:	434d0037 	movtmi	r0, #53303	; 0xd037
     2d4:	54554f47 	ldrbpl	r4, [r5], #-3911	; 0xfffff0b9
     2d8:	636f6c43 	cmnvs	pc, #17152	; 0x4300
     2dc:	682f006b 	stmdavs	pc!, {r0, r1, r3, r5, r6}	; <UNPREDICTABLE>
     2e0:	2f656d6f 	svccs	0x00656d6f
     2e4:	7275616c 	rsbsvc	r6, r5, #108, 2
     2e8:	522f6569 	eorpl	r6, pc, #440401920	; 0x1a400000
     2ec:	2f534554 	svccs	0x00534554
     2f0:	3162614c 	cmncc	r2, ip, asr #2
     2f4:	7a75622f 	bvc	1d58bb8 <__exidx_end+0x1d56e10>
     2f8:	7a69667a 	bvc	1a59ce8 <__exidx_end+0x1a57f40>
     2fc:	4f50007a 	svcmi	0x0050007a
     300:	545f5452 	ldrbpl	r5, [pc], #-1106	; 308 <.flash_to_ram_loop_end+0x232>
     304:	00657079 	rsbeq	r7, r5, r9, ror r0
     308:	52465349 	subpl	r5, r6, #603979777	; 0x24000001
     30c:	44445000 	strbmi	r5, [r4], #-0
     310:	54780052 	ldrbtpl	r0, [r8], #-82	; 0xffffffae
     314:	476b7361 	strbmi	r7, [fp, -r1, ror #6]!
     318:	72656e65 	rsbvc	r6, r5, #1616	; 0x650
     31c:	72436369 	subvc	r6, r3, #-1543503871	; 0xa4000001
     320:	65746165 	ldrbvs	r6, [r4, #-357]!	; 0xfffffe9b
     324:	4f435000 	svcmi	0x00435000
     328:	54500052 	ldrbpl	r0, [r0], #-82	; 0xffffffae
     32c:	7500524f 	strvc	r5, [r0, #-591]	; 0xfffffdb1
     330:	6365526c 	cmnvs	r5, #108, 4	; 0xc0000006
     334:	65766965 	ldrbvs	r6, [r6, #-2405]!	; 0xfffff69b
     338:	6c615664 	stclvs	6, cr5, [r1], #-400	; 0xfffffe70
     33c:	76006575 			; <UNDEFINED> instruction: 0x76006575
     340:	6b736154 	blvs	1cd8898 <__exidx_end+0x1cd6af0>
     344:	616c6544 	cmnvs	ip, r4, asr #10
     348:	616d0079 	smcvs	53257	; 0xd009
     34c:	50006e69 	andpl	r6, r0, r9, ror #28
     350:	00524f53 	subseq	r4, r2, r3, asr pc
     354:	61544276 	cmpvs	r4, r6, ror r2
     358:	75466b73 	strbvc	r6, [r6, #-2931]	; 0xfffff48d
     35c:	6974636e 	ldmdbvs	r4!, {r1, r2, r3, r5, r6, r8, r9, sp, lr}^
     360:	78006e6f 	stmdavc	r0, {r0, r1, r2, r3, r5, r6, r9, sl, fp, sp, lr}
     364:	75657551 	strbvc	r7, [r5, #-1361]!	; 0xfffffaaf
     368:	6e654765 	cdpvs	7, 6, cr4, cr5, cr5, {3}
     36c:	63697265 	cmnvs	r9, #1342177286	; 0x50000006
     370:	646e6553 	strbtvs	r6, [lr], #-1363	; 0xfffffaad
     374:	63695400 	cmnvs	r9, #0, 8
     378:	7079546b 	rsbsvc	r5, r9, fp, ror #8
     37c:	00745f65 	rsbseq	r5, r4, r5, ror #30
     380:	52494450 	subpl	r4, r9, #80, 8	; 0x50000000
     384:	61547600 	cmpvs	r4, r0, lsl #12
     388:	74536b73 	ldrbvc	r6, [r3], #-2931	; 0xfffff48d
     38c:	53747261 	cmnpl	r4, #268435462	; 0x10000006
     390:	64656863 	strbtvs	r6, [r5], #-2147	; 0xfffff79d
     394:	72656c75 	rsbvc	r6, r5, #29952	; 0x7500
     398:	65755100 	ldrbvs	r5, [r5, #-256]!	; 0xffffff00
     39c:	61486575 	hvcvs	34389	; 0x8655
     3a0:	656c646e 	strbvs	r6, [ip, #-1134]!	; 0xfffffb92
     3a4:	7800745f 	stmdavc	r0, {r0, r1, r2, r3, r4, r6, sl, ip, sp, lr}
     3a8:	75657551 	strbvc	r7, [r5, #-1361]!	; 0xfffffaaf
     3ac:	6e654765 	cdpvs	7, 6, cr4, cr5, cr5, {3}
     3b0:	63697265 	cmnvs	r9, #1342177286	; 0x50000006
     3b4:	61657243 	cmnvs	r5, r3, asr #4
     3b8:	70006574 	andvc	r6, r0, r4, ror r5
     3bc:	72615076 	rsbvc	r5, r1, #118	; 0x76
     3c0:	74656d61 	strbtvc	r6, [r5], #-3425	; 0xfffff29f
     3c4:	00737265 	rsbseq	r7, r3, r5, ror #4
     3c8:	4f495047 	svcmi	0x00495047
     3cc:	7079545f 	rsbsvc	r5, r9, pc, asr r4
     3d0:	51780065 	cmnpl	r8, r5, rrx
     3d4:	65756575 	ldrbvs	r6, [r5, #-1397]!	; 0xfffffa8b
     3d8:	656e6547 	strbvs	r6, [lr, #-1351]!	; 0xfffffab9
     3dc:	52636972 	rsbpl	r6, r3, #1867776	; 0x1c8000
     3e0:	69656365 	stmdbvs	r5!, {r0, r2, r5, r6, r8, r9, sp, lr}^
     3e4:	6d006576 	cfstr32vs	mvfx6, [r0, #-472]	; 0xfffffe28
     3e8:	2e6e6961 	cdpcs	9, 6, cr6, cr14, cr1, {3}
     3ec:	42550063 	subsmi	r0, r5, #99	; 0x63
     3f0:	54657361 	strbtpl	r7, [r5], #-865	; 0xfffffc9f
     3f4:	5f657079 	svcpl	0x00657079
     3f8:	4e780074 	mrcmi	0, 3, r0, cr8, cr4, {3}
     3fc:	57747865 	ldrbpl	r7, [r4, -r5, ror #16]!
     400:	54656b61 	strbtpl	r6, [r5], #-2913	; 0xfffff49f
     404:	00656d69 	rsbeq	r6, r5, r9, ror #26
     408:	6f697067 	svcvs	0x00697067
     40c:	696e695f 	stmdbvs	lr!, {r0, r1, r2, r3, r4, r6, r8, fp, sp, lr}^
     410:	41760074 	cmnmi	r6, r4, ror r0
     414:	6b736154 	blvs	1cd896c <__exidx_end+0x1cd6bc4>
     418:	636e7546 	cmnvs	lr, #293601280	; 0x11800000
     41c:	6e6f6974 	mcrvs	9, 3, r6, cr15, cr4, {3}
     420:	4f445000 	svcmi	0x00445000
     424:	69730052 	ldmdbvs	r3!, {r1, r4, r6}^
     428:	745f657a 	ldrbvc	r6, [pc], #-1402	; 430 <__do_global_dtors_aux+0x20>
     42c:	2f2e2e00 	svccs	0x002e2e00
     430:	6c2f2e2e 	stcvs	14, cr2, [pc], #-184	; 380 <.flash_to_ram_loop_end+0x2aa>
     434:	2f736269 	svccs	0x00736269
     438:	65657246 	strbvs	r7, [r5, #-582]!	; 0xfffffdba
     43c:	534f5452 	movtpl	r5, #62546	; 0xf452
     440:	6372732f 	cmnvs	r2, #-1140850688	; 0xbc000000
     444:	6165682f 	cmnvs	r5, pc, lsr #16
     448:	2e335f70 	mrccs	15, 1, r5, cr3, cr0, {3}
     44c:	50760063 	rsbspl	r0, r6, r3, rrx
     450:	4674726f 	ldrbtmi	r7, [r4], -pc, ror #4
     454:	00656572 	rsbeq	r6, r5, r2, ror r5
     458:	65657266 	strbvs	r7, [r5, #-614]!	; 0xfffffd9a
     45c:	61547600 	cmpvs	r4, r0, lsl #12
     460:	75536b73 	ldrbvc	r6, [r3, #-2931]	; 0xfffff48d
     464:	6e657073 	mcrvs	0, 3, r7, cr5, cr3, {3}
     468:	6c6c4164 	stfvse	f4, [ip], #-400	; 0xfffffe70
     46c:	50767000 	rsbspl	r7, r6, r0
     470:	4d74726f 	lfmmi	f7, 2, [r4, #-444]!	; 0xfffffe44
     474:	6f6c6c61 	svcvs	0x006c6c61
     478:	76700063 	ldrbtvc	r0, [r0], -r3, rrx
     47c:	75746552 	ldrbvc	r6, [r4, #-1362]!	; 0xfffffaae
     480:	78006e72 	stmdavc	r0, {r1, r4, r5, r6, r9, sl, fp, sp, lr}
     484:	746e6157 	strbtvc	r6, [lr], #-343	; 0xfffffea9
     488:	69536465 	ldmdbvs	r3, {r0, r2, r5, r6, sl, sp, lr}^
     48c:	7800657a 	stmdavc	r0, {r1, r3, r4, r5, r6, r8, sl, sp, lr}
     490:	6b736154 	blvs	1cd89e8 <__exidx_end+0x1cd6c40>
     494:	75736552 	ldrbvc	r6, [r3, #-1362]!	; 0xfffffaae
     498:	6c41656d 	cfstr64vs	mvdx6, [r1], {109}	; 0x6d
     49c:	616d006c 	cmnvs	sp, ip, rrx
     4a0:	636f6c6c 	cmnvs	pc, #108, 24	; 0x6c00
     4a4:	4e787500 	cdpmi	5, 7, cr7, cr8, cr0, {0}
     4a8:	65626d75 	strbvs	r6, [r2, #-3445]!	; 0xfffff28b
     4ac:	49664f72 	stmdbmi	r6!, {r1, r4, r5, r6, r8, r9, sl, fp, lr}^
     4b0:	736d6574 	cmnvc	sp, #116, 10	; 0x1d000000
     4b4:	6f507600 	svcvs	0x00507600
     4b8:	78457472 	stmdavc	r5, {r1, r4, r5, r6, sl, ip, sp, lr}^
     4bc:	72437469 	subvc	r7, r3, #1761607680	; 0x69000000
     4c0:	63697469 	cmnvs	r9, #1761607680	; 0x69000000
     4c4:	76006c61 	strvc	r6, [r0], -r1, ror #24
     4c8:	74726f50 	ldrbtvc	r6, [r2], #-3920	; 0xfffff0b0
     4cc:	6c656959 	stclvs	9, cr6, [r5], #-356	; 0xfffffe9c
     4d0:	6f724664 	svcvs	0x00724664
     4d4:	5253496d 	subspl	r4, r3, #1785856	; 0x1b4000
     4d8:	75517800 	ldrbvc	r7, [r1, #-2048]	; 0xfffff800
     4dc:	52657565 	rsbpl	r7, r5, #423624704	; 0x19400000
     4e0:	69656365 	stmdbvs	r5!, {r0, r2, r5, r6, r8, r9, sp, lr}^
     4e4:	72466576 	subvc	r6, r6, #494927872	; 0x1d800000
     4e8:	53496d6f 	movtpl	r6, #40303	; 0x9d6f
     4ec:	54780052 	ldrbtpl	r0, [r8], #-82	; 0xffffffae
     4f0:	736b7361 	cmnvc	fp, #-2080374783	; 0x84000001
     4f4:	74696157 	strbtvc	r6, [r9], #-343	; 0xfffffea9
     4f8:	54676e69 	strbtpl	r6, [r7], #-3689	; 0xfffff197
     4fc:	6365526f 	cmnvs	r5, #-268435450	; 0xf0000006
     500:	65766965 	ldrbvs	r6, [r6, #-2405]!	; 0xfffff69b
     504:	48787000 	ldmdami	r8!, {ip, sp, lr}^
     508:	65686769 	strbvs	r6, [r8, #-1897]!	; 0xfffff897
     50c:	69725072 	ldmdbvs	r2!, {r1, r4, r5, r6, ip, lr}^
     510:	7469726f 	strbtvc	r7, [r9], #-623	; 0xfffffd91
     514:	73615479 	cmnvc	r1, #2030043136	; 0x79000000
     518:	6b6f576b 	blvs	1bd62cc <__exidx_end+0x1bd4524>
     51c:	70006e65 	andvc	r6, r0, r5, ror #28
     520:	74754d78 	ldrbtvc	r4, [r5], #-3448	; 0xfffff288
     524:	2e007865 	cdpcs	8, 0, cr7, cr0, cr5, {3}
     528:	2e2e2f2e 	cdpcs	15, 2, cr2, cr14, cr14, {1}
     52c:	62696c2f 	rsbvs	r6, r9, #12032	; 0x2f00
     530:	72462f73 	subvc	r2, r6, #460	; 0x1cc
     534:	54526565 	ldrbpl	r6, [r2], #-1381	; 0xfffffa9b
     538:	732f534f 			; <UNDEFINED> instruction: 0x732f534f
     53c:	712f6372 			; <UNDEFINED> instruction: 0x712f6372
     540:	65756575 	ldrbvs	r6, [r5, #-1397]!	; 0xfffffa8b
     544:	7000632e 	andvc	r6, r0, lr, lsr #6
     548:	646e4978 	strbtvs	r4, [lr], #-2424	; 0xfffff688
     54c:	76007865 	strvc	r7, [r0], -r5, ror #16
     550:	6b736154 	blvs	1cd8aa8 <__exidx_end+0x1cd6d00>
     554:	6f697250 	svcvs	0x00697250
     558:	79746972 	ldmdbvc	r4!, {r1, r4, r5, r6, r8, fp, sp, lr}^
     55c:	65686e49 	strbvs	r6, [r8, #-3657]!	; 0xfffff1b7
     560:	00746972 	rsbseq	r6, r4, r2, ror r9
     564:	4d495478 	cfstrdmi	mvd5, [r9, #-480]	; 0xfffffe20
     568:	554f5f45 	strbpl	r5, [pc, #-3909]	; fffff62b <__stack+0xdfff962b>
     56c:	78700054 	ldmdavc	r0!, {r2, r4, r6}^
     570:	5177654e 	cmnpl	r7, lr, asr #10
     574:	65756575 	ldrbvs	r6, [r5, #-1397]!	; 0xfffffa8b
     578:	494c7800 	stmdbmi	ip, {fp, ip, sp, lr}^
     57c:	495f5453 	ldmdbmi	pc, {r0, r1, r4, r6, sl, ip, lr}^	; <UNPREDICTABLE>
     580:	004d4554 	subeq	r4, sp, r4, asr r5
     584:	73615476 	cmnvc	r1, #1979711488	; 0x76000000
     588:	7465536b 	strbtvc	r5, [r5], #-875	; 0xfffffc95
     58c:	656d6954 	strbvs	r6, [sp, #-2388]!	; 0xfffff6ac
     590:	5374754f 	cmnpl	r4, #331350016	; 0x13c00000
     594:	65746174 	ldrbvs	r6, [r4, #-372]!	; 0xfffffe8c
     598:	61547800 	cmpvs	r4, r0, lsl #16
     59c:	57736b73 			; <UNDEFINED> instruction: 0x57736b73
     5a0:	69746961 	ldmdbvs	r4!, {r0, r5, r6, r8, fp, sp, lr}^
     5a4:	6f54676e 	svcvs	0x0054676e
     5a8:	646e6553 	strbtvs	r6, [lr], #-1363	; 0xfffffaad
     5ac:	51787500 	cmnpl	r8, r0, lsl #10
     5b0:	65756575 	ldrbvs	r6, [r5, #-1397]!	; 0xfffffa8b
     5b4:	63617053 	cmnvs	r1, #83	; 0x53
     5b8:	76417365 	strbvc	r7, [r1], -r5, ror #6
     5bc:	616c6961 	cmnvs	ip, r1, ror #18
     5c0:	00656c62 	rsbeq	r6, r5, r2, ror #24
     5c4:	65764f78 	ldrbvs	r4, [r6, #-3960]!	; 0xfffff088
     5c8:	6f6c6672 	svcvs	0x006c6672
     5cc:	756f4377 	strbvc	r4, [pc, #-887]!	; 25d <.flash_to_ram_loop_end+0x187>
     5d0:	7600746e 	strvc	r7, [r0], -lr, ror #8
     5d4:	74726f50 	ldrbtvc	r6, [r2], #-3920	; 0xfffff0b0
     5d8:	65746e45 	ldrbvs	r6, [r4, #-3653]!	; 0xfffff1bb
     5dc:	69724372 	ldmdbvs	r2!, {r1, r4, r5, r6, r8, r9, lr}^
     5e0:	61636974 	smcvs	13972	; 0x3694
     5e4:	7551006c 	ldrbvc	r0, [r1, #-108]	; 0xffffff94
     5e8:	5f657565 	svcpl	0x00657565
     5ec:	43780074 	cmnmi	r8, #116	; 0x74
     5f0:	5079706f 	rsbspl	r7, r9, pc, rrx
     5f4:	7469736f 	strbtvc	r7, [r9], #-879	; 0xfffffc91
     5f8:	006e6f69 	rsbeq	r6, lr, r9, ror #30
     5fc:	65527875 	ldrbvs	r7, [r2, #-2165]	; 0xfffff78b
     600:	6e727574 	mrcvs	5, 3, r7, cr2, cr4, {3}
     604:	75517600 	ldrbvc	r7, [r1, #-1536]	; 0xfffffa00
     608:	44657565 	strbtmi	r7, [r5], #-1381	; 0xfffffa9b
     60c:	74656c65 	strbtvc	r6, [r5], #-3173	; 0xfffff39b
     610:	63700065 	cmnvs	r0, #101	; 0x65
     614:	64616552 	strbtvs	r6, [r1], #-1362	; 0xfffffaae
     618:	6d6f7246 	sfmvs	f7, 2, [pc, #-280]!	; 508 <SystemInit+0x20>
     61c:	53787500 	cmnpl	r8, #0, 10
     620:	64657661 	strbtvs	r7, [r5], #-1633	; 0xfffff99f
     624:	65746e49 	ldrbvs	r6, [r4, #-3657]!	; 0xfffff1b7
     628:	70757272 	rsbsvc	r7, r5, r2, ror r2
     62c:	61745374 	cmnvs	r4, r4, ror r3
     630:	00737574 	rsbseq	r7, r3, r4, ror r5
     634:	65695978 	strbvs	r5, [r9, #-2424]!	; 0xfffff688
     638:	6552646c 	ldrbvs	r6, [r2, #-1132]	; 0xfffffb94
     63c:	72697571 	rsbvc	r7, r9, #473956352	; 0x1c400000
     640:	51006465 	tstpl	r0, r5, ror #8
     644:	65756575 	ldrbvs	r6, [r5, #-1397]!	; 0xfffffa8b
     648:	69666544 	stmdbvs	r6!, {r2, r6, r8, sl, sp, lr}^
     64c:	6974696e 	ldmdbvs	r4!, {r1, r2, r3, r5, r6, r8, fp, sp, lr}^
     650:	70006e6f 	andvc	r6, r0, pc, ror #28
     654:	73497672 	movtvc	r7, #38514	; 0x9672
     658:	75657551 	strbvc	r7, [r5, #-1361]!	; 0xfffffaaf
     65c:	706d4565 	rsbvc	r4, sp, r5, ror #10
     660:	70007974 	andvc	r7, r0, r4, ror r9
     664:	66754276 			; <UNDEFINED> instruction: 0x66754276
     668:	00726566 	rsbseq	r6, r2, r6, ror #10
     66c:	72507870 	subsvc	r7, r0, #112, 16	; 0x700000
     670:	6f697665 	svcvs	0x00697665
     674:	75007375 	strvc	r7, [r0, #-885]	; 0xfffffc8b
     678:	73654d78 	cmnvc	r5, #120, 26	; 0x1e00
     67c:	65676173 	strbvs	r6, [r7, #-371]!	; 0xfffffe8d
     680:	69615773 	stmdbvs	r1!, {r0, r1, r4, r5, r6, r8, r9, sl, ip, lr}^
     684:	676e6974 			; <UNDEFINED> instruction: 0x676e6974
     688:	65537800 	ldrbvs	r7, [r3, #-2048]	; 0xfffff800
     68c:	6870616d 	ldmdavs	r0!, {r0, r2, r3, r5, r6, r8, sp, lr}^
     690:	0065726f 	rsbeq	r7, r5, pc, ror #4
     694:	746e4578 	strbtvc	r4, [lr], #-1400	; 0xfffffa88
     698:	69547972 	ldmdbvs	r4, {r1, r4, r5, r6, r8, fp, ip, sp, lr}^
     69c:	6553656d 	ldrbvs	r6, [r3, #-1389]	; 0xfffffa93
     6a0:	48780074 	ldmdami	r8!, {r2, r4, r5, r6}^
     6a4:	6c646e61 	stclvs	14, cr6, [r4], #-388	; 0xfffffe7c
     6a8:	4d780065 	ldclmi	0, cr0, [r8, #-404]!	; 0xfffffe6c
     6ac:	5f494e49 	svcpl	0x00494e49
     6b0:	5453494c 	ldrbpl	r4, [r3], #-2380	; 0xfffff6b4
     6b4:	4554495f 	ldrbmi	r4, [r4, #-2399]	; 0xfffff6a1
     6b8:	4c78004d 	ldclmi	0, cr0, [r8], #-308	; 0xfffffecc
     6bc:	00545349 	subseq	r5, r4, r9, asr #6
     6c0:	65755178 	ldrbvs	r5, [r5, #-376]!	; 0xfffffe88
     6c4:	65476575 	strbvs	r6, [r7, #-1397]	; 0xfffffa8b
     6c8:	6972656e 	ldmdbvs	r2!, {r1, r2, r3, r5, r6, r8, sl, sp, lr}^
     6cc:	6e655363 	cdpvs	3, 6, cr5, cr5, cr3, {3}
     6d0:	6f724664 	svcvs	0x00724664
     6d4:	5253496d 	subspl	r4, r3, #1785856	; 0x1b4000
     6d8:	76727000 	ldrbtvc	r7, [r2], -r0
     6dc:	79706f43 	ldmdbvc	r0!, {r0, r1, r6, r8, r9, sl, fp, sp, lr}^
     6e0:	61746144 	cmnvs	r4, r4, asr #2
     6e4:	75516f54 	ldrbvc	r6, [r1, #-3924]	; 0xfffff0ac
     6e8:	00657565 	rsbeq	r7, r5, r5, ror #10
     6ec:	73615476 	cmnvc	r1, #1979711488	; 0x76000000
     6f0:	616c506b 	cmnvs	ip, fp, rrx
     6f4:	6e4f6563 	cdpvs	5, 4, cr6, cr15, cr3, {3}
     6f8:	6e657645 	cdpvs	6, 6, cr7, cr5, cr5, {2}
     6fc:	73694c74 	cmnvc	r9, #116, 24	; 0x7400
     700:	76700074 			; <UNDEFINED> instruction: 0x76700074
     704:	6b736154 	blvs	1cd8c5c <__exidx_end+0x1cd6eb4>
     708:	72636e49 	rsbvc	r6, r3, #1168	; 0x490
     70c:	6e656d65 	cdpvs	13, 6, cr6, cr5, cr5, {3}
     710:	74754d74 	ldrbtvc	r4, [r5], #-3444	; 0xfffff28c
     714:	65487865 	strbvs	r7, [r8, #-2149]	; 0xfffff79b
     718:	6f43646c 	svcvs	0x0043646c
     71c:	00746e75 	rsbseq	r6, r4, r5, ror lr
     720:	74497875 	strbvc	r7, [r9], #-2165	; 0xfffff78b
     724:	69536d65 	ldmdbvs	r3, {r0, r2, r5, r6, r8, sl, fp, sp, lr}^
     728:	7500657a 	strvc	r6, [r0, #-1402]	; 0xfffffa86
     72c:	696e4978 	stmdbvs	lr!, {r3, r4, r5, r6, r8, fp, lr}^
     730:	6c616974 	stclvs	9, cr6, [r1], #-464	; 0xfffffe30
     734:	6e756f43 	cdpvs	15, 7, cr6, cr5, cr3, {2}
     738:	78700074 	ldmdavc	r0!, {r2, r4, r5, r6}^
     73c:	75746552 	ldrbvc	r6, [r4, #-1362]!	; 0xfffffaae
     740:	78006e72 	stmdavc	r0, {r1, r4, r5, r6, r9, sl, fp, sp, lr}
     744:	6b736154 	blvs	1cd8c9c <__exidx_end+0x1cd6ef4>
     748:	6f697250 	svcvs	0x00697250
     74c:	79746972 	ldmdbvc	r4!, {r1, r4, r5, r6, r8, fp, sp, lr}^
     750:	69736944 	ldmdbvs	r3!, {r2, r6, r8, fp, sp, lr}^
     754:	7265686e 	rsbvc	r6, r5, #7208960	; 0x6e0000
     758:	78007469 	stmdavc	r0, {r0, r3, r5, r6, sl, ip, sp, lr}
     75c:	6b736154 	blvs	1cd8cb4 <__exidx_end+0x1cd6f0c>
     760:	6f6d6552 	svcvs	0x006d6552
     764:	72466576 	subvc	r6, r6, #494927872	; 0x1d800000
     768:	76456d6f 	strbvc	r6, [r5], -pc, ror #26
     76c:	4c746e65 	ldclmi	14, cr6, [r4], #-404	; 0xfffffe6c
     770:	00747369 	rsbseq	r7, r4, r9, ror #6
     774:	49767270 	ldmdbmi	r6!, {r4, r5, r6, r9, ip, sp, lr}^
     778:	65755173 	ldrbvs	r5, [r5, #-371]!	; 0xfffffe8d
     77c:	75466575 	strbvc	r6, [r6, #-1397]	; 0xfffffa8b
     780:	78006c6c 	stmdavc	r0, {r2, r3, r5, r6, sl, fp, sp, lr}
     784:	75657551 	strbvc	r7, [r5, #-1361]!	; 0xfffffaaf
     788:	76694765 	strbtvc	r4, [r9], -r5, ror #14
     78c:	6f724665 	svcvs	0x00724665
     790:	5253496d 	subspl	r4, r3, #1785856	; 0x1b4000
     794:	694c7800 	stmdbvs	ip, {fp, ip, sp, lr}^
     798:	6e457473 	mcrvs	4, 2, r7, cr5, cr3, {3}
     79c:	6c750064 	ldclvs	0, cr0, [r5], #-400	; 0xfffffe70
     7a0:	74726f50 	ldrbtvc	r6, [r2], #-3920	; 0xfffff0b0
     7a4:	49746553 	ldmdbmi	r4!, {r0, r1, r4, r6, r8, sl, sp, lr}^
     7a8:	7265746e 	rsbvc	r7, r5, #1845493760	; 0x6e000000
     7ac:	74707572 	ldrbtvc	r7, [r0], #-1394	; 0xfffffa8e
     7b0:	6b73614d 	blvs	1cd8cec <__exidx_end+0x1cd6f44>
     7b4:	51787500 	cmnpl	r8, r0, lsl #10
     7b8:	65756575 	ldrbvs	r6, [r5, #-1397]!	; 0xfffffa8b
     7bc:	7373654d 	cmnvc	r3, #322961408	; 0x13400000
     7c0:	73656761 	cmnvc	r5, #25427968	; 0x1840000
     7c4:	74696157 	strbtvc	r6, [r9], #-343	; 0xfffffea9
     7c8:	46676e69 	strbtmi	r6, [r7], -r9, ror #28
     7cc:	496d6f72 	stmdbmi	sp!, {r1, r4, r5, r6, r8, r9, sl, fp, sp, lr}^
     7d0:	4d005253 	sfmmi	f5, 4, [r0, #-332]	; 0xfffffeb4
     7d4:	4c696e69 	stclmi	14, cr6, [r9], #-420	; 0xfffffe5c
     7d8:	49747369 	ldmdbmi	r4!, {r0, r3, r5, r6, r8, r9, ip, sp, lr}^
     7dc:	5f6d6574 	svcpl	0x006d6574
     7e0:	54760074 	ldrbtpl	r0, [r6], #-116	; 0xffffff8c
     7e4:	506b7361 	rsbpl	r7, fp, r1, ror #6
     7e8:	6563616c 	strbvs	r6, [r3, #-364]!	; 0xfffffe94
     7ec:	76456e4f 	strbvc	r6, [r5], -pc, asr #28
     7f0:	4c746e65 	ldclmi	14, cr6, [r4], #-404	; 0xfffffe6c
     7f4:	52747369 	rsbspl	r7, r4, #-1543503871	; 0xa4000001
     7f8:	72747365 	rsbsvc	r7, r4, #-1811939327	; 0x94000001
     7fc:	65746369 	ldrbvs	r6, [r4, #-873]!	; 0xfffffc97
     800:	51780064 	cmnpl	r8, r4, rrx
     804:	65756575 	ldrbvs	r6, [r5, #-1397]!	; 0xfffffa8b
     808:	4d746547 	cfldr64mi	mvdx6, [r4, #-284]!	; 0xfffffee4
     80c:	78657475 	stmdavc	r5!, {r0, r2, r4, r5, r6, sl, ip, sp, lr}^
     810:	646c6f48 	strbtvs	r6, [ip], #-3912	; 0xfffff0b8
     814:	78007265 	stmdavc	r0, {r0, r2, r5, r6, r9, ip, sp, lr}
     818:	75657551 	strbvc	r7, [r5, #-1361]!	; 0xfffffaaf
     81c:	65724365 	ldrbvs	r4, [r2, #-869]!	; 0xfffffc9b
     820:	4d657461 	cfstrdmi	mvd7, [r5, #-388]!	; 0xfffffe7c
     824:	78657475 	stmdavc	r5!, {r0, r2, r4, r5, r6, sl, ip, sp, lr}^
     828:	69547800 	ldmdbvs	r4, {fp, ip, sp, lr}^
     82c:	6e4f656d 	cdpvs	5, 4, cr6, cr15, cr13, {3}
     830:	65746e45 	ldrbvs	r6, [r4, #-3653]!	; 0xfffff1bb
     834:	676e6972 			; <UNDEFINED> instruction: 0x676e6972
     838:	4e787000 	cdpmi	0, 7, cr7, cr8, cr0, {0}
     83c:	00747865 	rsbseq	r7, r4, r5, ror #16
     840:	614d7875 	hvcvs	55173	; 0xd785
     844:	756f4378 	strbvc	r4, [pc, #-888]!	; 4d4 <_mainCRTStartup+0x64>
     848:	5400746e 	strpl	r7, [r0], #-1134	; 0xfffffb92
     84c:	4f656d69 	svcmi	0x00656d69
     850:	745f7475 	ldrbvc	r7, [pc], #-1141	; 858 <xQueueGenericReset+0x4a>
     854:	4f637000 	svcmi	0x00637000
     858:	69676972 	stmdbvs	r7!, {r1, r4, r5, r6, r8, fp, sp, lr}^
     85c:	526c616e 	rsbpl	r6, ip, #-2147483621	; 0x8000001b
     860:	50646165 	rsbpl	r6, r4, r5, ror #2
     864:	7469736f 	strbtvc	r7, [r9], #-879	; 0xfffffc91
     868:	006e6f69 	rsbeq	r6, lr, r9, ror #30
     86c:	75516375 	ldrbvc	r6, [r1, #-885]	; 0xfffffc8b
     870:	54657565 	strbtpl	r7, [r5], #-1381	; 0xfffffa9b
     874:	00657079 	rsbeq	r7, r5, r9, ror r0
     878:	73754a78 	cmnvc	r5, #120, 20	; 0x78000
     87c:	65655074 	strbvs	r5, [r5, #-116]!	; 0xffffff8c
     880:	676e696b 	strbvs	r6, [lr, -fp, ror #18]!
     884:	73694c00 	cmnvc	r9, #0, 24
     888:	00745f74 	rsbseq	r5, r4, r4, ror pc
     88c:	72576370 	subsvc	r6, r7, #112, 6	; 0xc0000001
     890:	54657469 	strbtpl	r7, [r5], #-1129	; 0xfffffb97
     894:	5f5f006f 	svcpl	0x005f006f
     898:	38746e69 	ldmdacc	r4!, {r0, r3, r5, r6, r9, sl, fp, sp, lr}^
     89c:	7500745f 	strvc	r7, [r0, #-1119]	; 0xfffffba1
     8a0:	65755178 	ldrbvs	r5, [r5, #-376]!	; 0xfffffe88
     8a4:	654c6575 	strbvs	r6, [ip, #-1397]	; 0xfffffa8b
     8a8:	6874676e 	ldmdavs	r4!, {r1, r2, r3, r5, r6, r8, r9, sl, sp, lr}^
     8ac:	75517800 	ldrbvc	r7, [r1, #-2048]	; 0xfffff800
     8b0:	54657565 	strbtpl	r7, [r5], #-1381	; 0xfffffa9b
     8b4:	4d656b61 	fstmdbxmi	r5!, {d22-d69}	;@ Deprecated
     8b8:	78657475 	stmdavc	r5!, {r0, r2, r4, r5, r6, sl, ip, sp, lr}^
     8bc:	75636552 	strbvc	r6, [r3, #-1362]!	; 0xfffffaae
     8c0:	76697372 			; <UNDEFINED> instruction: 0x76697372
     8c4:	63700065 	cmnvs	r0, #101	; 0x65
     8c8:	6f6c6c41 	svcvs	0x006c6c41
     8cc:	65746163 	ldrbvs	r6, [r4, #-355]!	; 0xfffffe9d
     8d0:	66754264 	ldrbtvs	r4, [r5], -r4, ror #4
     8d4:	00726566 	rsbseq	r6, r2, r6, ror #10
     8d8:	6f437670 	svcvs	0x00437670
     8dc:	6961746e 	stmdbvs	r1!, {r1, r2, r3, r5, r6, sl, ip, sp, lr}^
     8e0:	0072656e 	rsbseq	r6, r2, lr, ror #10
     8e4:	654c7875 	strbvs	r7, [ip, #-2165]	; 0xfffff78b
     8e8:	6874676e 	ldmdavs	r4!, {r1, r2, r3, r5, r6, r8, r9, sl, sp, lr}^
     8ec:	75517600 	ldrbvc	r7, [r1, #-1536]	; 0xfffffa00
     8f0:	57657565 	strbpl	r7, [r5, -r5, ror #10]!
     8f4:	46746961 	ldrbtmi	r6, [r4], -r1, ror #18
     8f8:	654d726f 	strbvs	r7, [sp, #-623]	; 0xfffffd91
     8fc:	67617373 			; <UNDEFINED> instruction: 0x67617373
     900:	73655265 	cmnvc	r5, #1342177286	; 0x50000006
     904:	63697274 	cmnvs	r9, #116, 4	; 0x40000007
     908:	00646574 	rsbeq	r6, r4, r4, ror r5
     90c:	65744978 	ldrbvs	r4, [r4, #-2424]!	; 0xfffff688
     910:	6c61566d 	stclvs	6, cr5, [r1], #-436	; 0xfffffe4c
     914:	78006575 	stmdavc	r0, {r0, r2, r4, r5, r6, r8, sl, sp, lr}
     918:	75657551 	strbvc	r7, [r5, #-1361]!	; 0xfffffaaf
     91c:	7a695365 	bvc	1a556b8 <__exidx_end+0x1a53910>
     920:	426e4965 	rsbmi	r4, lr, #1654784	; 0x194000
     924:	73657479 	cmnvc	r5, #2030043136	; 0x79000000
     928:	78527800 	ldmdavc	r2, {fp, ip, sp, lr}^
     92c:	6b636f4c 	blvs	18dc664 <__exidx_end+0x18da8bc>
     930:	49767000 	ldmdbmi	r6!, {ip, sp, lr}^
     934:	546d6574 	strbtpl	r6, [sp], #-1396	; 0xfffffa8c
     938:	6575516f 	ldrbvs	r5, [r5, #-367]!	; 0xfffffe91
     93c:	78006575 	stmdavc	r0, {r0, r2, r4, r5, r6, r8, sl, sp, lr}
     940:	6b736154 	blvs	1cd8e98 <__exidx_end+0x1cd70f0>
     944:	63656843 	cmnvs	r5, #4390912	; 0x430000
     948:	726f466b 	rsbvc	r4, pc, #112197632	; 0x6b00000
     94c:	656d6954 	strbvs	r6, [sp, #-2388]!	; 0xfffff6ac
     950:	0074754f 	rsbseq	r7, r4, pc, asr #10
     954:	65755178 	ldrbvs	r5, [r5, #-376]!	; 0xfffffe88
     958:	73496575 	movtvc	r6, #38261	; 0x9575
     95c:	75657551 	strbvc	r7, [r5, #-1361]!	; 0xfffffaaf
     960:	6c754665 	ldclvs	6, cr4, [r5], #-404	; 0xfffffe6c
     964:	6f72466c 	svcvs	0x0072466c
     968:	5253496d 	subspl	r4, r3, #1785856	; 0x1b4000
     96c:	51787500 	cmnpl	r8, r0, lsl #10
     970:	65756575 	ldrbvs	r6, [r5, #-1397]!	; 0xfffffa8b
     974:	7373654d 	cmnvc	r3, #322961408	; 0x13400000
     978:	73656761 	cmnvc	r5, #25427968	; 0x1840000
     97c:	74696157 	strbtvc	r6, [r9], #-343	; 0xfffffea9
     980:	00676e69 	rsbeq	r6, r7, r9, ror #28
     984:	61546370 	cmpvs	r4, r0, ror r3
     988:	70006c69 	andvc	r6, r0, r9, ror #24
     98c:	65755178 	ldrbvs	r5, [r5, #-376]!	; 0xfffffe88
     990:	76006575 			; <UNDEFINED> instruction: 0x76006575
     994:	6b736154 	blvs	1cd8eec <__exidx_end+0x1cd7144>
     998:	7373694d 	cmnvc	r3, #1261568	; 0x134000
     99c:	69596465 	ldmdbvs	r9, {r0, r2, r5, r6, sl, sp, lr}^
     9a0:	00646c65 	rsbeq	r6, r4, r5, ror #24
     9a4:	65527875 	ldrbvs	r7, [r2, #-2165]	; 0xfffff78b
     9a8:	73727563 	cmnvc	r2, #415236096	; 0x18c00000
     9ac:	43657669 	cmnmi	r5, #110100480	; 0x6900000
     9b0:	436c6c61 	cmnmi	ip, #24832	; 0x6100
     9b4:	746e756f 	strbtvc	r7, [lr], #-1391	; 0xfffffa91
     9b8:	75517800 	ldrbvc	r7, [r1, #-2048]	; 0xfffff800
     9bc:	50657565 	rsbpl	r7, r5, r5, ror #10
     9c0:	466b6565 	strbtmi	r6, [fp], -r5, ror #10
     9c4:	496d6f72 	stmdbmi	sp!, {r1, r4, r5, r6, r8, r9, sl, fp, sp, lr}^
     9c8:	76005253 			; <UNDEFINED> instruction: 0x76005253
     9cc:	7473694c 	ldrbtvc	r6, [r3], #-2380	; 0xfffff6b4
     9d0:	74696e49 	strbtvc	r6, [r9], #-3657	; 0xfffff1b7
     9d4:	696c6169 	stmdbvs	ip!, {r0, r3, r5, r6, r8, sp, lr}^
     9d8:	70006573 	andvc	r6, r0, r3, ror r5
     9dc:	6f437672 	svcvs	0x00437672
     9e0:	61447970 	hvcvs	18320	; 0x4790
     9e4:	72466174 	subvc	r6, r6, #116, 2
     9e8:	75516d6f 	ldrbvc	r6, [r1, #-3439]	; 0xfffff291
     9ec:	00657565 	rsbeq	r7, r5, r5, ror #10
     9f0:	726f5076 	rsbvc	r5, pc, #118	; 0x76
     9f4:	656c4374 	strbvs	r4, [ip, #-884]!	; 0xfffffc8c
     9f8:	6e497261 	cdpvs	2, 4, cr7, cr9, cr1, {3}
     9fc:	72726574 	rsbsvc	r6, r2, #116, 10	; 0x1d000000
     a00:	4d747075 	ldclmi	0, cr7, [r4, #-468]!	; 0xfffffe2c
     a04:	006b7361 	rsbeq	r7, fp, r1, ror #6
     a08:	774f7670 	smlsldxvc	r7, pc, r0, r6	; <UNPREDICTABLE>
     a0c:	0072656e 	rsbseq	r6, r2, lr, ror #10
     a10:	73615478 	cmnvc	r1, #120, 8	; 0x78000000
     a14:	7465476b 	strbtvc	r4, [r5], #-1899	; 0xfffff895
     a18:	72727543 	rsbsvc	r7, r2, #281018368	; 0x10c00000
     a1c:	54746e65 	ldrbtpl	r6, [r4], #-3685	; 0xfffff19b
     a20:	486b7361 	stmdami	fp!, {r0, r5, r6, r8, r9, ip, sp, lr}^
     a24:	6c646e61 	stclvs	14, cr6, [r4], #-388	; 0xfffffe7c
     a28:	63700065 	cmnvs	r0, #101	; 0x65
     a2c:	64616548 	strbtvs	r6, [r1], #-1352	; 0xfffffab8
     a30:	78547800 	ldmdavc	r4, {fp, ip, sp, lr}^
     a34:	6b636f4c 	blvs	18dc76c <__exidx_end+0x18da9c4>
     a38:	75517800 	ldrbvc	r7, [r1, #-2048]	; 0xfffff800
     a3c:	47657565 	strbmi	r7, [r5, -r5, ror #10]!
     a40:	4d657669 	stclmi	6, cr7, [r5, #-420]!	; 0xfffffe5c
     a44:	78657475 	stmdavc	r5!, {r0, r2, r4, r5, r6, sl, ip, sp, lr}^
     a48:	75636552 	strbvc	r6, [r3, #-1362]!	; 0xfffffaae
     a4c:	76697372 			; <UNDEFINED> instruction: 0x76697372
     a50:	72700065 	rsbsvc	r0, r0, #101	; 0x65
     a54:	6c6e5576 	cfstr64vs	mvdx5, [lr], #-472	; 0xfffffe28
     a58:	516b636f 	cmnpl	fp, pc, ror #6
     a5c:	65756575 	ldrbvs	r6, [r5, #-1397]!	; 0xfffffa8b
     a60:	75517800 	ldrbvc	r7, [r1, #-2048]	; 0xfffff800
     a64:	47657565 	strbmi	r7, [r5, -r5, ror #10]!
     a68:	72656e65 	rsbvc	r6, r5, #1616	; 0x650
     a6c:	65526369 	ldrbvs	r6, [r2, #-873]	; 0xfffffc97
     a70:	00746573 	rsbseq	r6, r4, r3, ror r5
     a74:	65755178 	ldrbvs	r5, [r5, #-376]!	; 0xfffffe88
     a78:	73496575 	movtvc	r6, #38261	; 0x9575
     a7c:	75657551 	strbvc	r7, [r5, #-1361]!	; 0xfffffaaf
     a80:	706d4565 	rsbvc	r4, sp, r5, ror #10
     a84:	72467974 	subvc	r7, r6, #116, 18	; 0x1d0000
     a88:	53496d6f 	movtpl	r6, #40303	; 0x9d6f
     a8c:	656d0052 	strbvs	r0, [sp, #-82]!	; 0xffffffae
     a90:	7970636d 	ldmdbvc	r0!, {r0, r2, r3, r5, r6, r8, r9, sp, lr}^
     a94:	55517800 	ldrbpl	r7, [r1, #-2048]	; 0xfffff800
     a98:	00455545 	subeq	r5, r5, r5, asr #10
     a9c:	73615478 	cmnvc	r1, #120, 8	; 0x78000000
     aa0:	7465476b 	strbtvc	r4, [r5], #-1899	; 0xfffff895
     aa4:	65686353 	strbvs	r6, [r8, #-851]!	; 0xfffffcad
     aa8:	656c7564 	strbvs	r7, [ip, #-1380]!	; 0xfffffa9c
     aac:	61745372 	cmnvs	r4, r2, ror r3
     ab0:	78006574 	stmdavc	r0, {r2, r4, r5, r6, r8, sl, sp, lr}
     ab4:	69736f50 	ldmdbvs	r3!, {r4, r6, r8, r9, sl, fp, sp, lr}^
     ab8:	6e6f6974 	mcrvs	9, 3, r6, cr15, cr4, {3}
     abc:	75517800 	ldrbvc	r7, [r1, #-2048]	; 0xfffff800
     ac0:	43657565 	cmnmi	r5, #423624704	; 0x19400000
     ac4:	74616572 	strbtvc	r6, [r1], #-1394	; 0xfffffa8e
     ac8:	756f4365 	strbvc	r4, [pc, #-869]!	; 76b <prvCopyDataToQueue+0x5d>
     acc:	6e69746e 	cdpvs	4, 6, cr7, cr9, cr14, {3}
     ad0:	6d655367 	stclvs	3, cr5, [r5, #-412]!	; 0xfffffe64
     ad4:	6f687061 	svcvs	0x00687061
     ad8:	70006572 	andvc	r6, r0, r2, ror r5
     adc:	65744978 	ldrbvs	r4, [r4, #-2424]!	; 0xfffff688
     ae0:	526f546d 	rsbpl	r5, pc, #1828716544	; 0x6d000000
     ae4:	766f6d65 	strbtvc	r6, [pc], -r5, ror #26
     ae8:	4c760065 	ldclmi	0, cr0, [r6], #-404	; 0xfffffe6c
     aec:	49747369 	ldmdbmi	r4!, {r0, r3, r5, r6, r8, r9, ip, sp, lr}^
     af0:	6974696e 	ldmdbvs	r4!, {r1, r2, r3, r5, r6, r8, fp, sp, lr}^
     af4:	73696c61 	cmnvc	r9, #24832	; 0x6100
     af8:	65744965 	ldrbvs	r4, [r4, #-2405]!	; 0xfffff69b
     afc:	4c76006d 	ldclmi	0, cr0, [r6], #-436	; 0xfffffe4c
     b00:	49747369 	ldmdbmi	r4!, {r0, r3, r5, r6, r8, r9, ip, sp, lr}^
     b04:	7265736e 	rsbvc	r7, r5, #-1207959551	; 0xb8000001
     b08:	646e4574 	strbtvs	r4, [lr], #-1396	; 0xfffffa8c
     b0c:	61567800 	cmpvs	r6, r0, lsl #16
     b10:	4f65756c 	svcmi	0x0065756c
     b14:	736e4966 	cmnvc	lr, #1671168	; 0x198000
     b18:	69747265 	ldmdbvs	r4!, {r0, r2, r5, r6, r9, ip, sp, lr}^
     b1c:	70006e6f 	andvc	r6, r0, pc, ror #28
     b20:	65744978 	ldrbvs	r4, [r4, #-2424]!	; 0xfffff688
     b24:	7870006d 	ldmdavc	r0!, {r0, r2, r3, r5, r6}^
     b28:	72657449 	rsbvc	r7, r5, #1224736768	; 0x49000000
     b2c:	726f7461 	rsbvc	r7, pc, #1627389952	; 0x61000000
     b30:	4c787500 	cfldr64mi	mvdx7, [r8], #-0
     b34:	52747369 	rsbspl	r7, r4, #-1543503871	; 0xa4000001
     b38:	766f6d65 	strbtvc	r6, [pc], -r5, ror #26
     b3c:	78700065 	ldmdavc	r0!, {r0, r2, r5, r6}^
     b40:	7473694c 	ldrbtvc	r6, [r3], #-2380	; 0xfffff6b4
     b44:	2f2e2e00 	svccs	0x002e2e00
     b48:	6c2f2e2e 	stcvs	14, cr2, [pc], #-184	; a98 <xQueueGenericReceive+0x2a>
     b4c:	2f736269 	svccs	0x00736269
     b50:	65657246 	strbvs	r7, [r5, #-582]!	; 0xfffffdba
     b54:	534f5452 	movtpl	r5, #62546	; 0xf452
     b58:	6372732f 	cmnvs	r2, #-1140850688	; 0xbc000000
     b5c:	73696c2f 	cmnvc	r9, #12032	; 0x2f00
     b60:	00632e74 	rsbeq	r2, r3, r4, ror lr
     b64:	654e7870 	strbvs	r7, [lr, #-2160]	; 0xfffff790
     b68:	73694c77 	cmnvc	r9, #30464	; 0x7700
     b6c:	65744974 	ldrbvs	r4, [r4, #-2420]!	; 0xfffff68c
     b70:	4c76006d 	ldclmi	0, cr0, [r6], #-436	; 0xfffffe4c
     b74:	49747369 	ldmdbmi	r4!, {r0, r3, r5, r6, r8, r9, ip, sp, lr}^
     b78:	7265736e 	rsbvc	r7, r5, #-1207959551	; 0xb8000001
     b7c:	63700074 	cmnvs	r0, #116	; 0x74
     b80:	6b736154 	blvs	1cd90d8 <__exidx_end+0x1cd7330>
     b84:	656d614e 	strbvs	r6, [sp, #-334]!	; 0xfffffeb2
     b88:	6f507800 	svcvs	0x00507800
     b8c:	74537472 	ldrbvc	r7, [r3], #-1138	; 0xfffffb8e
     b90:	53747261 	cmnpl	r4, #268435462	; 0x10000006
     b94:	64656863 	strbtvs	r6, [r5], #-2147	; 0xfffff79d
     b98:	72656c75 	rsbvc	r6, r5, #29952	; 0x7500
     b9c:	50787500 	rsbspl	r7, r8, r0, lsl #10
     ba0:	726f6972 	rsbvc	r6, pc, #1867776	; 0x1c8000
     ba4:	00797469 	rsbseq	r7, r9, r9, ror #8
     ba8:	6f437870 	svcvs	0x00437870
     bac:	4c74736e 	ldclmi	3, cr7, [r4], #-440	; 0xfffffe48
     bb0:	00747369 	rsbseq	r7, r4, r9, ror #6
     bb4:	546b7374 	strbtpl	r7, [fp], #-884	; 0xfffffc8c
     bb8:	436b7361 	cmnmi	fp, #-2080374783	; 0x84000001
     bbc:	72746e6f 	rsbsvc	r6, r4, #1776	; 0x6f0
     bc0:	6c426c6f 	mcrrvs	12, 6, r6, r2, cr15
     bc4:	006b636f 	rsbeq	r6, fp, pc, ror #6
     bc8:	69426c75 	stmdbvs	r2, {r0, r2, r4, r5, r6, sl, fp, sp, lr}^
     bcc:	6f547374 	svcvs	0x00547374
     bd0:	61656c43 	cmnvs	r5, r3, asr #24
     bd4:	456e4f72 	strbmi	r4, [lr, #-3954]!	; 0xfffff08e
     bd8:	00746978 	rsbseq	r6, r4, r8, ror r9
     bdc:	61547875 	cmpvs	r4, r5, ror r8
     be0:	65476b73 	strbvs	r6, [r7, #-2931]	; 0xfffff48d
     be4:	6d754e74 	ldclvs	14, cr4, [r5, #-464]!	; 0xfffffe30
     be8:	4f726562 	svcmi	0x00726562
     bec:	73615466 	cmnvc	r1, #1711276032	; 0x66000000
     bf0:	6500736b 	strvs	r7, [r0, #-875]	; 0xfffffc95
     bf4:	63416f4e 	movtvs	r6, #8014	; 0x1f4e
     bf8:	6e6f6974 	mcrvs	9, 3, r6, cr15, cr4, {3}
     bfc:	54787500 	ldrbtpl	r7, [r8], #-1280	; 0xfffffb00
     c00:	6552706f 	ldrbvs	r7, [r2, #-111]	; 0xffffff91
     c04:	50796461 	rsbspl	r6, r9, r1, ror #8
     c08:	726f6972 	rsbvc	r6, pc, #1867776	; 0x1c8000
     c0c:	00797469 	rsbseq	r7, r9, r9, ror #8
     c10:	73615478 	cmnvc	r1, #120, 8	; 0x78000000
     c14:	746f4e6b 	strbtvc	r4, [pc], #-3691	; c1c <vListInsertEnd+0x12>
     c18:	46796669 	ldrbtmi	r6, [r9], -r9, ror #12
     c1c:	496d6f72 	stmdbmi	sp!, {r1, r4, r5, r6, r8, r9, sl, fp, sp, lr}^
     c20:	70005253 	andvc	r5, r0, r3, asr r2
     c24:	65764578 	ldrbvs	r4, [r6, #-1400]!	; 0xfffffa88
     c28:	694c746e 	stmdbvs	ip, {r1, r2, r3, r5, r6, sl, ip, sp, lr}^
     c2c:	78007473 	stmdavc	r0, {r0, r1, r4, r5, r6, sl, ip, sp, lr}
     c30:	65686353 	strbvs	r6, [r8, #-851]!	; 0xfffffcad
     c34:	656c7564 	strbvs	r7, [ip, #-1380]!	; 0xfffffa9c
     c38:	6e755272 	mrcvs	2, 3, r5, cr5, cr2, {3}
     c3c:	676e696e 	strbvs	r6, [lr, -lr, ror #18]!
     c40:	61745300 	cmnvs	r4, r0, lsl #6
     c44:	79546b63 	ldmdbvc	r4, {r0, r1, r5, r6, r8, r9, fp, sp, lr}^
     c48:	745f6570 	ldrbvc	r6, [pc], #-1392	; c50 <vListInsert+0x2e>
     c4c:	52787000 	rsbspl	r7, r8, #0
     c50:	79646165 	stmdbvc	r4!, {r0, r2, r5, r6, r8, sp, lr}^
     c54:	6b736154 	blvs	1cd91ac <__exidx_end+0x1cd7404>
     c58:	73694c73 	cmnvc	r9, #29440	; 0x7300
     c5c:	65007374 	strvs	r7, [r0, #-884]	; 0xfffffc8c
     c60:	69746f4e 	ldmdbvs	r4!, {r1, r2, r3, r6, r8, r9, sl, fp, sp, lr}^
     c64:	64656966 	strbtvs	r6, [r5], #-2406	; 0xfffff69a
     c68:	61547800 	cmpvs	r4, r0, lsl #16
     c6c:	6f4e6b73 	svcvs	0x004e6b73
     c70:	79666974 	stmdbvc	r6!, {r2, r4, r5, r6, r8, fp, sp, lr}^
     c74:	61547800 	cmpvs	r4, r0, lsl #16
     c78:	6e496b73 	vmovvs.8	d9[3], r6
     c7c:	6d657263 	sfmvs	f7, 2, [r5, #-396]!	; 0xfffffe74
     c80:	54746e65 	ldrbtpl	r6, [r4], #-3685	; 0xfffff19b
     c84:	006b6369 	rsbeq	r6, fp, r9, ror #6
     c88:	6c654478 	cfstrdvs	mvd4, [r5], #-480	; 0xfffffe20
     c8c:	64657961 	strbtvs	r7, [r5], #-2401	; 0xfffff69f
     c90:	6b736154 	blvs	1cd91e8 <__exidx_end+0x1cd7440>
     c94:	7473694c 	ldrbtvc	r6, [r3], #-2380	; 0xfffff6b4
     c98:	44780031 	ldrbtmi	r0, [r8], #-49	; 0xffffffcf
     c9c:	79616c65 	stmdbvc	r1!, {r0, r2, r5, r6, sl, fp, sp, lr}^
     ca0:	61546465 	cmpvs	r4, r5, ror #8
     ca4:	694c6b73 	stmdbvs	ip, {r0, r1, r4, r5, r6, r8, r9, fp, sp, lr}^
     ca8:	00327473 	eorseq	r7, r2, r3, ror r4
     cac:	6e654778 	mcrvs	7, 3, r4, cr5, cr8, {3}
     cb0:	63697265 	cmnvs	r9, #1342177286	; 0x50000006
     cb4:	7473694c 	ldrbtvc	r6, [r3], #-2380	; 0xfffff6b4
     cb8:	6d657449 	cfstrdvs	mvd7, [r5, #-292]!	; 0xfffffedc
     cbc:	506c7500 	rsbpl	r7, ip, r0, lsl #10
     cc0:	6d617261 	sfmvs	f7, 2, [r1, #-388]!	; 0xfffffe7c
     cc4:	72657465 	rsbvc	r7, r5, #1694498816	; 0x65000000
     cc8:	72700073 	rsbsvc	r0, r0, #115	; 0x73
     ccc:	6c6c4176 	stfvse	f4, [ip], #-472	; 0xfffffe28
     cd0:	7461636f 	strbtvc	r6, [r1], #-879	; 0xfffffc91
     cd4:	42435465 	submi	r5, r3, #1694498816	; 0x65000000
     cd8:	53646e41 	cmnpl	r4, #1040	; 0x410
     cdc:	6b636174 	blvs	18d92b4 <__exidx_end+0x18d750c>
     ce0:	61547800 	cmpvs	r4, r0, lsl #16
     ce4:	6f546b73 	svcvs	0x00546b73
     ce8:	75736552 	ldrbvc	r6, [r3, #-1362]!	; 0xfffffaae
     cec:	6500656d 	strvs	r6, [r0, #-1389]	; 0xfffffa93
     cf0:	69746f4e 	ldmdbvs	r4!, {r1, r2, r3, r6, r8, r9, sl, fp, sp, lr}^
     cf4:	74537966 	ldrbvc	r7, [r3], #-2406	; 0xfffff69a
     cf8:	00657461 	rsbeq	r7, r5, r1, ror #8
     cfc:	6d695478 	cfstrdvs	mvd5, [r9, #-480]!	; 0xfffffe20
     d00:	72437265 	subvc	r7, r3, #1342177286	; 0x50000006
     d04:	65746165 	ldrbvs	r6, [r4, #-357]!	; 0xfffffe9b
     d08:	656d6954 	strbvs	r6, [sp, #-2388]!	; 0xfffff6ac
     d0c:	73615472 	cmnvc	r1, #1912602624	; 0x72000000
     d10:	7374006b 	cmnvc	r4, #107	; 0x6b
     d14:	4243546b 	submi	r5, r3, #1795162112	; 0x6b000000
     d18:	55787000 	ldrbpl	r7, [r8, #-0]!
     d1c:	6f6c626e 	svcvs	0x006c626e
     d20:	64656b63 	strbtvs	r6, [r5], #-2915	; 0xfffff49d
     d24:	00424354 	subeq	r4, r2, r4, asr r3
     d28:	74537375 	ldrbvc	r7, [r3], #-885	; 0xfffffc8b
     d2c:	446b6361 	strbtmi	r6, [fp], #-865	; 0xfffffc9f
     d30:	68747065 	ldmdavs	r4!, {r0, r2, r5, r6, ip, sp, lr}^
     d34:	6c437800 	mcrrvs	8, 0, r7, r3, cr0
     d38:	43726165 	cmnmi	r2, #1073741849	; 0x40000019
     d3c:	746e756f 	strbtvc	r7, [lr], #-1391	; 0xfffffa91
     d40:	78456e4f 	stmdavc	r5, {r0, r1, r2, r3, r6, r9, sl, fp, sp, lr}^
     d44:	65007469 	strvs	r7, [r0, #-1129]	; 0xfffffb97
     d48:	56746553 			; <UNDEFINED> instruction: 0x56746553
     d4c:	65756c61 	ldrbvs	r6, [r5, #-3169]!	; 0xfffff39f
     d50:	68746957 	ldmdavs	r4!, {r0, r1, r2, r4, r6, r8, fp, sp, lr}^
     d54:	7265764f 	rsbvc	r7, r5, #82837504	; 0x4f00000
     d58:	74697277 	strbtvc	r7, [r9], #-631	; 0xfffffd89
     d5c:	54780065 	ldrbtpl	r0, [r8], #-101	; 0xffffff9b
     d60:	476b7361 	strbmi	r7, [fp, -r1, ror #6]!
     d64:	69547465 	ldmdbvs	r4, {r0, r2, r5, r6, sl, ip, sp, lr}^
     d68:	6f436b63 	svcvs	0x00436b63
     d6c:	46746e75 			; <UNDEFINED> instruction: 0x46746e75
     d70:	496d6f72 	stmdbmi	sp!, {r1, r4, r5, r6, r8, r9, sl, fp, sp, lr}^
     d74:	75005253 	strvc	r5, [r0, #-595]	; 0xfffffdad
     d78:	76615378 			; <UNDEFINED> instruction: 0x76615378
     d7c:	6e496465 	cdpvs	4, 4, cr6, cr9, cr5, {3}
     d80:	72726574 	rsbsvc	r6, r2, #116, 10	; 0x1d000000
     d84:	53747075 	cmnpl	r4, #117	; 0x75
     d88:	65746174 	ldrbvs	r6, [r4, #-372]!	; 0xfffffe8c
     d8c:	426c7500 	rsbmi	r7, ip, #0, 10
     d90:	54737469 	ldrbtpl	r7, [r3], #-1129	; 0xfffffb97
     d94:	656c436f 	strbvs	r4, [ip, #-879]!	; 0xfffffc91
     d98:	6e4f7261 	cdpvs	2, 4, cr7, cr15, cr1, {3}
     d9c:	72746e45 	rsbsvc	r6, r4, #1104	; 0x450
     da0:	50780079 	rsbspl	r0, r8, r9, ror r0
     da4:	69646e65 	stmdbvs	r4!, {r0, r2, r5, r6, r9, sl, fp, sp, lr}^
     da8:	6552676e 	ldrbvs	r6, [r2, #-1902]	; 0xfffff892
     dac:	4c796461 	cfldrdmi	mvd6, [r9], #-388	; 0xfffffe7c
     db0:	00747369 	rsbseq	r7, r4, r9, ror #6
     db4:	73615478 	cmnvc	r1, #120, 8	; 0x78000000
     db8:	6157736b 	cmpvs	r7, fp, ror #6
     dbc:	6e697469 	cdpvs	4, 6, cr7, cr9, cr9, {3}
     dc0:	72655467 	rsbvc	r5, r5, #1728053248	; 0x67000000
     dc4:	616e696d 	cmnvs	lr, sp, ror #18
     dc8:	6e6f6974 	mcrvs	9, 3, r6, cr15, cr4, {3}
     dcc:	755f5f00 	ldrbvc	r5, [pc, #-3840]	; fffffed4 <__stack+0xdfff9ed4>
     dd0:	31746e69 	cmncc	r4, r9, ror #28
     dd4:	00745f36 	rsbseq	r5, r4, r6, lsr pc
     dd8:	73615478 	cmnvc	r1, #120, 8	; 0x78000000
     ddc:	7365526b 	cmnvc	r5, #-1342177274	; 0xb0000006
     de0:	46656d75 			; <UNDEFINED> instruction: 0x46656d75
     de4:	496d6f72 	stmdbmi	sp!, {r1, r4, r5, r6, r8, r9, sl, fp, sp, lr}^
     de8:	75005253 	strvc	r5, [r0, #-595]	; 0xfffffdad
     dec:	73615478 	cmnvc	r1, #120, 8	; 0x78000000
     df0:	7465476b 	strbtvc	r4, [r5], #-1899	; 0xfffff895
     df4:	63617453 	cmnvs	r1, #1392508928	; 0x53000000
     df8:	6769486b 	strbvs	r4, [r9, -fp, ror #16]!
     dfc:	74615768 	strbtvc	r5, [r1], #-1896	; 0xfffff898
     e00:	614d7265 	cmpvs	sp, r5, ror #4
     e04:	65006b72 	strvs	r6, [r0, #-2930]	; 0xfffff48e
     e08:	6769724f 	strbvs	r7, [r9, -pc, asr #4]!
     e0c:	6c616e69 	stclvs	14, cr6, [r1], #-420	; 0xfffffe5c
     e10:	69746f4e 	ldmdbvs	r4!, {r1, r2, r3, r6, r8, r9, sl, fp, sp, lr}^
     e14:	74537966 	ldrbvc	r7, [r3], #-2406	; 0xfffff69a
     e18:	00657461 	rsbeq	r7, r5, r1, ror #8
     e1c:	746f4e65 	strbtvc	r4, [pc], #-3685	; e24 <xTaskGenericCreate+0x138>
     e20:	41796669 	cmnmi	r9, r9, ror #12
     e24:	6f697463 	svcvs	0x00697463
     e28:	7875006e 	ldmdavc	r5!, {r1, r2, r3, r5, r6}^
     e2c:	6b736154 	blvs	1cd9384 <__exidx_end+0x1cd75dc>
     e30:	6c654473 	cfstrdvs	mvd4, [r5], #-460	; 0xfffffe34
     e34:	64657465 	strbtvs	r7, [r5], #-1125	; 0xfffffb9b
     e38:	63757000 	cmnvs	r5, #0
     e3c:	63617453 	cmnvs	r1, #1392508928	; 0x53000000
     e40:	7479426b 	ldrbtvc	r4, [r9], #-619	; 0xfffffd95
     e44:	54760065 	ldrbtpl	r0, [r6], #-101	; 0xffffff9b
     e48:	456b7361 	strbmi	r7, [fp, #-865]!	; 0xfffffc9f
     e4c:	6353646e 	cmpvs	r3, #1845493760	; 0x6e000000
     e50:	75646568 	strbvc	r6, [r4, #-1384]!	; 0xfffffa98
     e54:	0072656c 	rsbseq	r6, r2, ip, ror #10
     e58:	61547875 	cmpvs	r4, r5, ror r8
     e5c:	72506b73 	subsvc	r6, r0, #117760	; 0x1cc00
     e60:	69726f69 	ldmdbvs	r2!, {r0, r3, r5, r6, r8, r9, sl, fp, sp, lr}^
     e64:	65477974 	strbvs	r7, [r7, #-2420]	; 0xfffff68c
     e68:	43780074 	cmnmi	r8, #116	; 0x74
     e6c:	74736e6f 	ldrbtvc	r6, [r3], #-3695	; 0xfffff191
     e70:	6b636954 	blvs	18db3c8 <__exidx_end+0x18d9620>
     e74:	6e756f43 	cdpvs	15, 7, cr6, cr5, cr3, {2}
     e78:	53780074 	cmnpl	r8, #116	; 0x74
     e7c:	65707375 	ldrbvs	r7, [r0, #-885]!	; 0xfffffc8b
     e80:	6465646e 	strbtvs	r6, [r5], #-1134	; 0xfffffb92
     e84:	6b736154 	blvs	1cd93dc <__exidx_end+0x1cd7634>
     e88:	7473694c 	ldrbtvc	r6, [r3], #-2380	; 0xfffff6b4
     e8c:	4e637000 	cdpmi	0, 6, cr7, cr3, cr0, {0}
     e90:	00656d61 	rsbeq	r6, r5, r1, ror #26
     e94:	6f436c75 	svcvs	0x00436c75
     e98:	00746e75 	rsbseq	r6, r4, r5, ror lr
     e9c:	764f7870 			; <UNDEFINED> instruction: 0x764f7870
     ea0:	6c667265 	sfmvs	f7, 2, [r6], #-404	; 0xfffffe6c
     ea4:	6544776f 	strbvs	r7, [r4, #-1903]	; 0xfffff891
     ea8:	6579616c 	ldrbvs	r6, [r9, #-364]!	; 0xfffffe94
     eac:	73615464 	cmnvc	r1, #100, 8	; 0x64000000
     eb0:	73694c6b 	cmnvc	r9, #27392	; 0x6b00
     eb4:	6c750074 	ldclvs	0, cr0, [r5], #-464	; 0xfffffe30
     eb8:	69746f4e 	ldmdbvs	r4!, {r1, r2, r3, r6, r8, r9, sl, fp, sp, lr}^
     ebc:	64656966 	strbtvs	r6, [r5], #-2406	; 0xfffff69a
     ec0:	756c6156 	strbvc	r6, [ip, #-342]!	; 0xfffffeaa
     ec4:	78750065 	ldmdavc	r5!, {r0, r2, r5, r6}^
     ec8:	6574754d 	ldrbvs	r7, [r4, #-1357]!	; 0xfffffab3
     ecc:	48736578 	ldmdami	r3!, {r3, r4, r5, r6, r8, sl, sp, lr}^
     ed0:	00646c65 	rsbeq	r6, r4, r5, ror #24
     ed4:	74655365 	strbtvc	r5, [r5], #-869	; 0xfffffc9b
     ed8:	756c6156 	strbvc	r6, [ip, #-342]!	; 0xfffffeaa
     edc:	74695765 	strbtvc	r5, [r9], #-1893	; 0xfffff89b
     ee0:	74756f68 	ldrbtvc	r6, [r5], #-3944	; 0xfffff098
     ee4:	7265764f 	rsbvc	r7, r5, #82837504	; 0x4f00000
     ee8:	74697277 	strbtvc	r7, [r9], #-631	; 0xfffffd89
     eec:	54780065 	ldrbtpl	r0, [r8], #-101	; 0xffffff9b
     ef0:	4e6b7361 	cdpmi	3, 6, cr7, cr11, cr1, {3}
     ef4:	6669746f 	strbtvs	r7, [r9], -pc, ror #8
     ef8:	69615779 	stmdbvs	r1!, {r0, r3, r4, r5, r6, r8, r9, sl, ip, lr}^
     efc:	53780074 	cmnpl	r8, #116	; 0x74
     f00:	6c756f68 	ldclvs	15, cr6, [r5], #-416	; 0xfffffe60
     f04:	6c654464 	cfstrdvs	mvd4, [r5], #-400	; 0xfffffe70
     f08:	70007961 	andvc	r7, r0, r1, ror #18
     f0c:	64497672 	strbvs	r7, [r9], #-1650	; 0xfffff98e
     f10:	6154656c 	cmpvs	r4, ip, ror #10
     f14:	78006b73 	stmdavc	r0, {r0, r1, r4, r5, r6, r8, r9, fp, sp, lr}
     f18:	7473694c 	ldrbtvc	r6, [r3], #-2380	; 0xfffff6b4
     f1c:	6d457349 	stclvs	3, cr7, [r5, #-292]	; 0xfffffedc
     f20:	00797470 	rsbseq	r7, r9, r0, ror r4
     f24:	61546c75 	cmpvs	r4, r5, ror ip
     f28:	6f4e6b73 	svcvs	0x004e6b73
     f2c:	79666974 	stmdbvc	r6!, {r2, r4, r5, r6, r8, fp, sp, lr}^
     f30:	656b6154 	strbvs	r6, [fp, #-340]!	; 0xfffffeac
     f34:	4e787000 	cdpmi	0, 7, cr7, cr8, cr0, {0}
     f38:	43547765 	cmpmi	r4, #26476544	; 0x1940000
     f3c:	78700042 	ldmdavc	r0!, {r1, r6}^
     f40:	6b736154 	blvs	1cd9498 <__exidx_end+0x1cd76f0>
     f44:	65646f43 	strbvs	r6, [r4, #-3907]!	; 0xfffff0bd
     f48:	6d654d00 	stclvs	13, cr4, [r5, #-0]
     f4c:	5279726f 	rsbspl	r7, r9, #-268435450	; 0xf0000006
     f50:	6f696765 	svcvs	0x00696765
     f54:	00745f6e 	rsbseq	r5, r4, lr, ror #30
     f58:	78654e78 	stmdavc	r5!, {r3, r4, r5, r6, r9, sl, fp, lr}^
     f5c:	73615474 	cmnvc	r1, #116, 8	; 0x74000000
     f60:	626e556b 	rsbvs	r5, lr, #448790528	; 0x1ac00000
     f64:	6b636f6c 	blvs	18dcd1c <__exidx_end+0x18daf74>
     f68:	656d6954 	strbvs	r6, [sp, #-2388]!	; 0xfffff6ac
     f6c:	50787000 	rsbspl	r7, r8, r0
     f70:	4974726f 	ldmdbmi	r4!, {r0, r1, r2, r3, r5, r6, r9, ip, sp, lr}^
     f74:	6974696e 	ldmdbvs	r4!, {r1, r2, r3, r5, r6, r8, fp, sp, lr}^
     f78:	73696c61 	cmnvc	r9, #24832	; 0x6100
     f7c:	61745365 	cmnvs	r4, r5, ror #6
     f80:	78006b63 	stmdavc	r0, {r0, r1, r5, r6, r8, r9, fp, sp, lr}
     f84:	6b636954 	blvs	18db4dc <__exidx_end+0x18d9734>
     f88:	6e756f43 	cdpvs	15, 7, cr6, cr5, cr3, {2}
     f8c:	6c750074 	ldclvs	0, cr0, [r5], #-464	; 0xfffffe30
     f90:	75746552 	ldrbvc	r6, [r4, #-1362]!	; 0xfffffaae
     f94:	75006e72 	strvc	r6, [r0, #-3698]	; 0xfffff18e
     f98:	6e654c6c 	cdpvs	12, 6, cr4, cr5, cr12, {3}
     f9c:	49687467 	stmdbmi	r8!, {r0, r1, r2, r5, r6, sl, ip, sp, lr}^
     fa0:	7479426e 	ldrbtvc	r4, [r9], #-622	; 0xfffffd92
     fa4:	2e007365 	cdpcs	3, 0, cr7, cr0, cr5, {3}
     fa8:	2e2e2f2e 	cdpcs	15, 2, cr2, cr14, cr14, {1}
     fac:	62696c2f 	rsbvs	r6, r9, #12032	; 0x2f00
     fb0:	72462f73 	subvc	r2, r6, #460	; 0x1cc
     fb4:	54526565 	ldrbpl	r6, [r2], #-1381	; 0xfffffa9b
     fb8:	732f534f 			; <UNDEFINED> instruction: 0x732f534f
     fbc:	742f6372 	strtvc	r6, [pc], #-882	; fc4 <xTaskIncrementTick+0xa8>
     fc0:	736b7361 	cmnvc	fp, #-2080374783	; 0x84000001
     fc4:	7000632e 	andvc	r6, r0, lr, lsr #6
     fc8:	65527672 	ldrbvs	r7, [r2, #-1650]	; 0xfffff98e
     fcc:	4e746573 	mrcmi	5, 3, r6, cr4, cr3, {3}
     fd0:	54747865 	ldrbtpl	r7, [r4], #-2149	; 0xfffff79b
     fd4:	556b7361 	strbpl	r7, [fp, #-865]!	; 0xfffffc9f
     fd8:	6f6c626e 	svcvs	0x006c626e
     fdc:	69546b63 	ldmdbvs	r4, {r0, r1, r5, r6, r8, r9, fp, sp, lr}^
     fe0:	7500656d 	strvc	r6, [r0, #-1389]	; 0xfffffa93
     fe4:	77654e78 			; <UNDEFINED> instruction: 0x77654e78
     fe8:	6f697250 	svcvs	0x00697250
     fec:	79746972 	ldmdbvc	r4!, {r1, r4, r5, r6, r8, fp, sp, lr}^
     ff0:	73615400 	cmnvc	r1, #0, 8
     ff4:	6e75466b 	cdpvs	6, 7, cr4, cr5, cr11, {3}
     ff8:	6f697463 	svcvs	0x00697463
     ffc:	00745f6e 	rsbseq	r5, r4, lr, ror #30
    1000:	69615765 	stmdbvs	r1!, {r0, r2, r5, r6, r8, r9, sl, ip, lr}^
    1004:	676e6974 			; <UNDEFINED> instruction: 0x676e6974
    1008:	69746f4e 	ldmdbvs	r4!, {r1, r2, r3, r6, r8, r9, sl, fp, sp, lr}^
    100c:	61636966 	cmnvs	r3, r6, ror #18
    1010:	6e6f6974 	mcrvs	9, 3, r6, cr15, cr4, {3}
    1014:	6d656d00 	stclvs	13, cr6, [r5, #-0]
    1018:	00746573 	rsbseq	r6, r4, r3, ror r5
    101c:	69547870 	ldmdbvs	r4, {r4, r5, r6, fp, ip, sp, lr}^
    1020:	754f656d 	strbvc	r6, [pc, #-1389]	; abb <xQueueGenericReceive+0x4d>
    1024:	54780074 	ldrbtpl	r0, [r8], #-116	; 0xffffff8c
    1028:	736b6369 	cmnvc	fp, #-1543503871	; 0xa4000001
    102c:	65446f54 	strbvs	r6, [r4, #-3924]	; 0xfffff0ac
    1030:	0079616c 	rsbseq	r6, r9, ip, ror #2
    1034:	61547875 	cmpvs	r4, r5, ror r8
    1038:	72506b73 	subsvc	r6, r0, #117760	; 0x1cc00
    103c:	69726f69 	ldmdbvs	r2!, {r0, r3, r5, r6, r8, r9, sl, fp, sp, lr}^
    1040:	65477974 	strbvs	r7, [r7, #-2420]	; 0xfffff68c
    1044:	6f724674 	svcvs	0x00724674
    1048:	5253496d 	subspl	r4, r3, #1785856	; 0x1b4000
    104c:	61547800 	cmpvs	r4, r0, lsl #16
    1050:	65476b73 	strbvs	r6, [r7, #-2931]	; 0xfffff48d
    1054:	63695474 	cmnvs	r9, #116, 8	; 0x74000000
    1058:	756f436b 	strbvc	r4, [pc, #-875]!	; cf5 <xTaskGenericCreate+0x9>
    105c:	7500746e 	strvc	r7, [r0, #-1134]	; 0xfffffb92
    1060:	73615478 	cmnvc	r1, #120, 8	; 0x78000000
    1064:	6d754e6b 	ldclvs	14, cr4, [r5, #-428]!	; 0xfffffe54
    1068:	00726562 	rsbseq	r6, r2, r2, ror #10
    106c:	6b736154 	blvs	1cd95c4 <__exidx_end+0x1cd781c>
    1070:	646e6148 	strbtvs	r6, [lr], #-328	; 0xfffffeb8
    1074:	745f656c 	ldrbvc	r6, [pc], #-1388	; 107c <xTaskResumeAll+0x5c>
    1078:	63416500 	movtvs	r6, #5376	; 0x1500
    107c:	6e6f6974 	mcrvs	9, 3, r6, cr15, cr4, {3}
    1080:	54787500 	ldrbtpl	r7, [r8], #-1280	; 0xfffffb00
    1084:	526b7361 	rsbpl	r7, fp, #-2080374783	; 0x84000001
    1088:	74657365 	strbtvc	r7, [r5], #-869	; 0xfffffc9b
    108c:	6e657645 	cdpvs	6, 6, cr7, cr5, cr5, {2}
    1090:	65744974 	ldrbvs	r4, [r4, #-2420]!	; 0xfffff68c
    1094:	6c61566d 	stclvs	6, cr5, [r1], #-436	; 0xfffffe4c
    1098:	76006575 			; <UNDEFINED> instruction: 0x76006575
    109c:	6b736154 	blvs	1cd95f4 <__exidx_end+0x1cd784c>
    10a0:	6f697250 	svcvs	0x00697250
    10a4:	79746972 	ldmdbvc	r4!, {r1, r4, r5, r6, r8, fp, sp, lr}^
    10a8:	00746553 	rsbseq	r6, r4, r3, asr r5
    10ac:	746f4e65 	strbtvc	r4, [pc], #-3685	; 10b4 <xTaskResumeAll+0x94>
    10b0:	56796669 	ldrbtpl	r6, [r9], -r9, ror #12
    10b4:	65756c61 	ldrbvs	r6, [r5, #-3169]!	; 0xfffff39f
    10b8:	61547800 	cmpvs	r4, r0, lsl #16
    10bc:	6f546b73 	svcvs	0x00546b73
    10c0:	69746f4e 	ldmdbvs	r4!, {r1, r2, r3, r6, r8, r9, sl, fp, sp, lr}^
    10c4:	78007966 	stmdavc	r0, {r1, r2, r5, r6, r8, fp, ip, sp, lr}
    10c8:	6b736154 	blvs	1cd9620 <__exidx_end+0x1cd7878>
    10cc:	65536500 	ldrbvs	r6, [r3, #-1280]	; 0xfffffb00
    10d0:	74694274 	strbtvc	r4, [r9], #-628	; 0xfffffd8c
    10d4:	72700073 	rsbsvc	r0, r0, #115	; 0x73
    10d8:	696e4976 	stmdbvs	lr!, {r1, r2, r4, r5, r6, r8, fp, lr}^
    10dc:	6c616974 	stclvs	9, cr6, [r1], #-464	; 0xfffffe30
    10e0:	54657369 	strbtpl	r7, [r5], #-873	; 0xfffffc97
    10e4:	61564243 	cmpvs	r6, r3, asr #4
    10e8:	62616972 	rsbvs	r6, r1, #1867776	; 0x1c8000
    10ec:	0073656c 	rsbseq	r6, r3, ip, ror #10
    10f0:	4d454d78 	stclmi	13, cr4, [r5, #-480]	; 0xfffffe20
    10f4:	5f59524f 	svcpl	0x0059524f
    10f8:	49474552 	stmdbmi	r7, {r1, r4, r6, r8, sl, lr}^
    10fc:	76004e4f 	strvc	r4, [r0], -pc, asr #28
    1100:	6b736154 	blvs	1cd9658 <__exidx_end+0x1cd78b0>
    1104:	656c6544 	strbvs	r6, [ip, #-1348]!	; 0xfffffabc
    1108:	76006574 			; <UNDEFINED> instruction: 0x76006574
    110c:	6b736154 	blvs	1cd9664 <__exidx_end+0x1cd78bc>
    1110:	74697753 	strbtvc	r7, [r9], #-1875	; 0xfffff8ad
    1114:	6f436863 	svcvs	0x00436863
    1118:	7865746e 	stmdavc	r5!, {r1, r2, r3, r5, r6, sl, ip, sp, lr}^
    111c:	4e780074 	mrcmi	0, 3, r0, cr8, cr4, {3}
    1120:	664f6d75 			; <UNDEFINED> instruction: 0x664f6d75
    1124:	7265764f 	rsbvc	r7, r5, #82837504	; 0x4f00000
    1128:	776f6c66 	strbvc	r6, [pc, -r6, ror #24]!
    112c:	78700073 	ldmdavc	r0!, {r0, r1, r4, r5, r6}^
    1130:	72727543 	rsbsvc	r7, r2, #281018368	; 0x10c00000
    1134:	54746e65 	ldrbtpl	r6, [r4], #-3685	; 0xfffff19b
    1138:	76004243 	strvc	r4, [r0], -r3, asr #4
    113c:	6b736154 	blvs	1cd9694 <__exidx_end+0x1cd78ec>
    1140:	69746f4e 	ldmdbvs	r4!, {r1, r2, r3, r6, r8, r9, sl, fp, sp, lr}^
    1144:	69477966 	stmdbvs	r7, {r1, r2, r5, r6, r8, fp, ip, sp, lr}^
    1148:	72466576 	subvc	r6, r6, #494927872	; 0x1d800000
    114c:	53496d6f 	movtpl	r6, #40303	; 0x9d6f
    1150:	78700052 	ldmdavc	r0!, {r1, r4, r6}^
    1154:	616c6544 	cmnvs	ip, r4, asr #10
    1158:	54646579 	strbtpl	r6, [r4], #-1401	; 0xfffffa87
    115c:	4c6b7361 	stclmi	3, cr7, [fp], #-388	; 0xfffffe7c
    1160:	00747369 	rsbseq	r7, r4, r9, ror #6
    1164:	54767270 	ldrbtpl	r7, [r6], #-624	; 0xfffffd90
    1168:	496b7361 	stmdbmi	fp!, {r0, r5, r6, r8, r9, ip, sp, lr}^
    116c:	73615473 	cmnvc	r1, #1929379840	; 0x73000000
    1170:	7375536b 	cmnvc	r5, #-1409286143	; 0xac000001
    1174:	646e6570 	strbtvs	r6, [lr], #-1392	; 0xfffffa90
    1178:	78006465 	stmdavc	r0, {r0, r2, r5, r6, sl, sp, lr}
    117c:	74697753 	strbtvc	r7, [r9], #-1875	; 0xfffff8ad
    1180:	65526863 	ldrbvs	r6, [r2, #-2147]	; 0xfffff79d
    1184:	72697571 	rsbvc	r7, r9, #473956352	; 0x1c400000
    1188:	70006465 	andvc	r6, r0, r5, ror #8
    118c:	74754d78 	ldrbtvc	r4, [r5], #-3448	; 0xfffff288
    1190:	6f487865 	svcvs	0x00487865
    1194:	7265646c 	rsbvc	r6, r5, #108, 8	; 0x6c000000
    1198:	53787000 	cmnpl	r8, #0
    119c:	6b636174 	blvs	18d9774 <__exidx_end+0x18d79cc>
    11a0:	61547800 	cmpvs	r4, r0, lsl #16
    11a4:	6f546b73 	svcvs	0x00546b73
    11a8:	656c6544 	strbvs	r6, [ip, #-1348]!	; 0xfffffabc
    11ac:	75006574 	strvc	r6, [r0, #-1396]	; 0xfffffa8c
    11b0:	6c61566c 	stclvs	6, cr5, [r1], #-432	; 0xfffffe50
    11b4:	78006575 	stmdavc	r0, {r0, r2, r4, r5, r6, r8, sl, sp, lr}
    11b8:	6b736154 	blvs	1cd9710 <__exidx_end+0x1cd7968>
    11bc:	75536f54 	ldrbvc	r6, [r3, #-3924]	; 0xfffff0ac
    11c0:	6e657073 	mcrvs	0, 3, r7, cr5, cr3, {3}
    11c4:	50760064 	rsbspl	r0, r6, r4, rrx
    11c8:	4574726f 	ldrbmi	r7, [r4, #-623]!	; 0xfffffd91
    11cc:	6353646e 	cmpvs	r3, #1845493760	; 0x6e000000
    11d0:	75646568 	strbvc	r6, [r4, #-1384]!	; 0xfffffa98
    11d4:	0072656c 	rsbseq	r6, r2, ip, ror #10
    11d8:	72507870 	subsvc	r7, r0, #112, 16	; 0x700000
    11dc:	6f697665 	svcvs	0x00697665
    11e0:	61577375 	cmpvs	r7, r5, ror r3
    11e4:	6954656b 	ldmdbvs	r4, {r0, r1, r3, r5, r6, r8, sl, sp, lr}^
    11e8:	6500656d 	strvs	r6, [r0, #-1389]	; 0xfffffa93
    11ec:	57746f4e 	ldrbpl	r6, [r4, -lr, asr #30]!
    11f0:	69746961 	ldmdbvs	r4!, {r0, r5, r6, r8, fp, sp, lr}^
    11f4:	6f4e676e 	svcvs	0x004e676e
    11f8:	69666974 	stmdbvs	r6!, {r2, r4, r5, r6, r8, fp, sp, lr}^
    11fc:	69746163 	ldmdbvs	r4!, {r0, r1, r5, r6, r8, sp, lr}^
    1200:	70006e6f 	andvc	r6, r0, pc, ror #28
    1204:	6f4e6c75 	svcvs	0x004e6c75
    1208:	69666974 	stmdbvs	r6!, {r2, r4, r5, r6, r8, fp, sp, lr}^
    120c:	69746163 	ldmdbvs	r4!, {r0, r1, r5, r6, r8, sp, lr}^
    1210:	61566e6f 	cmpvs	r6, pc, ror #28
    1214:	0065756c 	rsbeq	r7, r5, ip, ror #10
    1218:	65507875 	ldrbvs	r7, [r0, #-2165]	; 0xfffff78b
    121c:	6465646e 	strbtvs	r6, [r5], #-1134	; 0xfffffb92
    1220:	6b636954 	blvs	18db778 <__exidx_end+0x18d99d0>
    1224:	75700073 	ldrbvc	r0, [r0, #-115]!	; 0xffffff8d
    1228:	646e4563 	strbtvs	r4, [lr], #-1379	; 0xfffffa9d
    122c:	7453664f 	ldrbvc	r6, [r3], #-1615	; 0xfffff9b1
    1230:	006b6361 	rsbeq	r6, fp, r1, ror #6
    1234:	63695478 	cmnvs	r9, #120, 8	; 0x78000000
    1238:	7000736b 	andvc	r7, r0, fp, ror #6
    123c:	73614276 	cmnvc	r1, #1610612743	; 0x60000007
    1240:	64644165 	strbtvs	r4, [r4], #-357	; 0xfffffe9b
    1244:	73736572 	cmnvc	r3, #478150656	; 0x1c800000
    1248:	54787000 	ldrbtpl	r7, [r8], #-0
    124c:	00706d65 	rsbseq	r6, r0, r5, ror #26
    1250:	73615476 	cmnvc	r1, #1979711488	; 0x76000000
    1254:	616c506b 	cmnvs	ip, fp, rrx
    1258:	6e4f6563 	cdpvs	5, 4, cr6, cr15, cr3, {3}
    125c:	726f6e55 	rsbvc	r6, pc, #1360	; 0x550
    1260:	65726564 	ldrbvs	r6, [r2, #-1380]!	; 0xfffffa9c
    1264:	65764564 	ldrbvs	r4, [r6, #-1380]!	; 0xfffffa9c
    1268:	694c746e 	stmdbvs	ip, {r1, r2, r3, r5, r6, sl, ip, sp, lr}^
    126c:	78007473 	stmdavc	r0, {r0, r1, r4, r5, r6, sl, ip, sp, lr}
    1270:	6b736154 	blvs	1cd97c8 <__exidx_end+0x1cd7a20>
    1274:	6f6d6552 	svcvs	0x006d6552
    1278:	72466576 	subvc	r6, r6, #494927872	; 0x1d800000
    127c:	6e556d6f 	cdpvs	13, 5, cr6, cr5, cr15, {3}
    1280:	6564726f 	strbvs	r7, [r4, #-623]!	; 0xfffffd91
    1284:	45646572 	strbmi	r6, [r4, #-1394]!	; 0xfffffa8e
    1288:	746e6576 	strbtvc	r6, [lr], #-1398	; 0xfffffa8a
    128c:	7473694c 	ldrbtvc	r6, [r3], #-2380	; 0xfffff6b4
    1290:	54787000 	ldrbtpl	r7, [r8], #-0
    1294:	736b6369 	cmnvc	fp, #-1543503871	; 0xa4000001
    1298:	61576f54 	cmpvs	r7, r4, asr pc
    129c:	75007469 	strvc	r7, [r0, #-1129]	; 0xfffffb97
    12a0:	73614278 	cmnvc	r1, #120, 4	; 0x80000007
    12a4:	69725065 	ldmdbvs	r2!, {r0, r2, r5, r6, ip, lr}^
    12a8:	7469726f 	strbtvc	r7, [r9], #-623	; 0xfffffd91
    12ac:	54760079 	ldrbtpl	r0, [r6], #-121	; 0xffffff87
    12b0:	446b7361 	strbtmi	r7, [fp], #-865	; 0xfffffc9f
    12b4:	79616c65 	stmdbvc	r1!, {r0, r2, r5, r6, sl, fp, sp, lr}^
    12b8:	69746e55 	ldmdbvs	r4!, {r0, r2, r4, r6, r9, sl, fp, sp, lr}^
    12bc:	7875006c 	ldmdavc	r5!, {r2, r3, r5, r6}^
    12c0:	6f697250 	svcvs	0x00697250
    12c4:	79746972 	ldmdbvc	r4!, {r1, r4, r5, r6, r8, fp, sp, lr}^
    12c8:	64657355 	strbtvs	r7, [r5], #-853	; 0xfffffcab
    12cc:	6e456e4f 	cdpvs	14, 4, cr6, cr5, cr15, {2}
    12d0:	00797274 	rsbseq	r7, r9, r4, ror r2
    12d4:	5f424354 	svcpl	0x00424354
    12d8:	72700074 	rsbsvc	r0, r0, #116	; 0x74
    12dc:	6c654476 	cfstrdvs	mvd4, [r5], #-472	; 0xfffffe28
    12e0:	54657465 	strbtpl	r7, [r5], #-1125	; 0xfffffb9b
    12e4:	76004243 	strvc	r4, [r0], -r3, asr #4
    12e8:	6b736154 	blvs	1cd9840 <__exidx_end+0x1cd7a98>
    12ec:	70737553 	rsbsvc	r7, r3, r3, asr r5
    12f0:	00646e65 	rsbeq	r6, r4, r5, ror #28
    12f4:	726c4178 	rsbvc	r4, ip, #120, 2
    12f8:	79646165 	stmdbvc	r4!, {r0, r2, r5, r6, r8, sp, lr}^
    12fc:	6c656959 	stclvs	9, cr6, [r5], #-356	; 0xfffffe9c
    1300:	00646564 	rsbeq	r6, r4, r4, ror #10
    1304:	54767270 	ldrbtpl	r7, [r6], #-624	; 0xfffffd90
    1308:	436b7361 	cmnmi	fp, #-2080374783	; 0x84000001
    130c:	6b636568 	blvs	18da8b4 <__exidx_end+0x18d8b0c>
    1310:	65657246 	strbvs	r7, [r5, #-582]!	; 0xfffffdba
    1314:	63617453 	cmnvs	r1, #1392508928	; 0x53000000
    1318:	6170536b 	cmnvs	r0, fp, ror #6
    131c:	78006563 	stmdavc	r0, {r0, r1, r5, r6, r8, sl, sp, lr}
    1320:	69676552 	stmdbvs	r7!, {r1, r4, r6, r8, sl, sp, lr}^
    1324:	00736e6f 	rsbseq	r6, r3, pc, ror #28
    1328:	41767270 	cmnmi	r6, r0, ror r2
    132c:	75436464 	strbvc	r6, [r3, #-1124]	; 0xfffffb9c
    1330:	6e657272 	mcrvs	2, 3, r7, cr5, cr2, {3}
    1334:	73615474 	cmnvc	r1, #116, 8	; 0x74000000
    1338:	446f546b 	strbtmi	r5, [pc], #-1131	; 1340 <xTaskCheckForTimeOut+0xc>
    133c:	79616c65 	stmdbvc	r1!, {r0, r2, r5, r6, sl, fp, sp, lr}^
    1340:	694c6465 	stmdbvs	ip, {r0, r2, r5, r6, sl, sp, lr}^
    1344:	75007473 	strvc	r7, [r0, #-1139]	; 0xfffffb8d
    1348:	72754378 	rsbsvc	r4, r5, #120, 6	; 0xe0000001
    134c:	746e6572 	strbtvc	r6, [lr], #-1394	; 0xfffffa8e
    1350:	626d754e 	rsbvs	r7, sp, #327155712	; 0x13800000
    1354:	664f7265 	strbvs	r7, [pc], -r5, ror #4
    1358:	6b736154 	blvs	1cd98b0 <__exidx_end+0x1cd7b08>
    135c:	54780073 	ldrbtpl	r0, [r8], #-115	; 0xffffff8d
    1360:	49656d69 	stmdbmi	r5!, {r0, r3, r5, r6, r8, sl, fp, sp, lr}^
    1364:	6572636e 	ldrbvs	r6, [r2, #-878]!	; 0xfffffc92
    1368:	746e656d 	strbtvc	r6, [lr], #-1389	; 0xfffffa93
    136c:	69547800 	ldmdbvs	r4, {fp, ip, sp, lr}^
    1370:	6f54656d 	svcvs	0x0054656d
    1374:	656b6157 	strbvs	r6, [fp, #-343]!	; 0xfffffea9
    1378:	54787000 	ldrbtpl	r7, [r8], #-0
    137c:	75004243 	strvc	r4, [r0, #-579]	; 0xfffffdbd
    1380:	68635378 	stmdavs	r3!, {r3, r4, r5, r6, r8, r9, ip, lr}^
    1384:	6c756465 	cfldrdvs	mvd6, [r5], #-404	; 0xfffffe6c
    1388:	75537265 	ldrbvc	r7, [r3, #-613]	; 0xfffffd9b
    138c:	6e657073 	mcrvs	0, 3, r7, cr5, cr3, {3}
    1390:	00646564 	rsbeq	r6, r4, r4, ror #10
    1394:	53787570 	cmnpl	r8, #112, 10	; 0x1c000000
    1398:	6b636174 	blvs	18d9970 <__exidx_end+0x18d7bc8>
    139c:	66667542 	strbtvs	r7, [r6], -r2, asr #10
    13a0:	70007265 	andvc	r7, r0, r5, ror #4
    13a4:	706f5478 	rsbvc	r5, pc, r8, ror r4	; <UNPREDICTABLE>
    13a8:	7453664f 	ldrbvc	r6, [r3], #-1615	; 0xfffff9b1
    13ac:	006b6361 	rsbeq	r6, fp, r1, ror #6
    13b0:	73615476 	cmnvc	r1, #1979711488	; 0x76000000
    13b4:	7365526b 	cmnvc	r5, #-1342177274	; 0xb0000006
    13b8:	00656d75 	rsbeq	r6, r5, r5, ror sp
    13bc:	49767270 	ldmdbmi	r6!, {r4, r5, r6, r9, ip, sp, lr}^
    13c0:	6974696e 	ldmdbvs	r4!, {r1, r2, r3, r5, r6, r8, fp, sp, lr}^
    13c4:	73696c61 	cmnvc	r9, #24832	; 0x6100
    13c8:	73615465 	cmnvc	r1, #1694498816	; 0x65000000
    13cc:	73694c6b 	cmnvc	r9, #27392	; 0x6b00
    13d0:	70007374 	andvc	r7, r0, r4, ror r3
    13d4:	65764578 	ldrbvs	r4, [r6, #-1400]!	; 0xfffffa88
    13d8:	694c746e 	stmdbvs	ip, {r1, r2, r3, r5, r6, sl, ip, sp, lr}^
    13dc:	74497473 	strbvc	r7, [r9], #-1139	; 0xfffffb8d
    13e0:	70006d65 	andvc	r6, r0, r5, ror #26
    13e4:	65724378 	ldrbvs	r4, [r2, #-888]!	; 0xfffffc88
    13e8:	64657461 	strbtvs	r7, [r5], #-1121	; 0xfffffb9f
    13ec:	6b736154 	blvs	1cd9944 <__exidx_end+0x1cd7b9c>
    13f0:	76727000 	ldrbtvc	r7, [r2], -r0
    13f4:	63656843 	cmnvs	r5, #4390912	; 0x430000
    13f8:	7361546b 	cmnvc	r1, #1795162112	; 0x6b000000
    13fc:	6157736b 	cmpvs	r7, fp, ror #6
    1400:	6e697469 	cdpvs	4, 6, cr7, cr9, cr9, {3}
    1404:	72655467 	rsbvc	r5, r5, #1728053248	; 0x67000000
    1408:	616e696d 	cmnvs	lr, sp, ror #18
    140c:	6e6f6974 	mcrvs	9, 3, r6, cr15, cr4, {3}
    1410:	43787500 	cmnmi	r8, #0, 10
    1414:	65727275 	ldrbvs	r7, [r2, #-629]!	; 0xfffffd8b
    1418:	6142746e 	cmpvs	r2, lr, ror #8
    141c:	72506573 	subsvc	r6, r0, #482344960	; 0x1cc00000
    1420:	69726f69 	ldmdbvs	r2!, {r0, r3, r5, r6, r8, r9, sl, fp, sp, lr}^
    1424:	78007974 	stmdavc	r0, {r2, r4, r5, r6, r8, fp, ip, sp, lr}
    1428:	6c656959 	stclvs	9, cr6, [r5], #-356	; 0xfffffe9c
    142c:	6e655064 	cdpvs	0, 6, cr5, cr5, cr4, {3}
    1430:	676e6964 	strbvs	r6, [lr, -r4, ror #18]!
    1434:	54787000 	ldrbtpl	r7, [r8], #-0
    1438:	72656d69 	rsbvc	r6, r5, #6720	; 0x1a40
    143c:	7473694c 	ldrbtvc	r6, [r3], #-2380	; 0xfffff6b4
    1440:	72655773 	rsbvc	r5, r5, #30146560	; 0x1cc0000
    1444:	69775365 	ldmdbvs	r7!, {r0, r2, r5, r6, r8, r9, ip, lr}^
    1448:	65686374 	strbvs	r6, [r8, #-884]!	; 0xfffffc8c
    144c:	72700064 	rsbsvc	r0, r0, #100	; 0x64
    1450:	6f725076 	svcvs	0x00725076
    1454:	73736563 	cmnvc	r3, #415236096	; 0x18c00000
    1458:	69707845 	ldmdbvs	r0!, {r0, r2, r6, fp, ip, sp, lr}^
    145c:	54646572 	strbtpl	r6, [r4], #-1394	; 0xfffffa8e
    1460:	72656d69 	rsbvc	r6, r5, #6720	; 0x1a40
    1464:	6f437800 	svcvs	0x00437800
    1468:	6e616d6d 	cdpvs	13, 6, cr6, cr1, cr13, {3}
    146c:	6d695464 	cfstrdvs	mvd5, [r9, #-400]!	; 0xfffffe70
    1470:	54780065 	ldrbtpl	r0, [r8], #-101	; 0xffffff9b
    1474:	72656d69 	rsbvc	r6, r5, #6720	; 0x1a40
    1478:	69726550 	ldmdbvs	r2!, {r4, r6, r8, sl, sp, lr}^
    147c:	6e49646f 	cdpvs	4, 4, cr6, cr9, cr15, {3}
    1480:	6b636954 	blvs	18db9d8 <__exidx_end+0x18d9c30>
    1484:	78700073 	ldmdavc	r0!, {r0, r1, r4, r5, r6}^
    1488:	6c6c6143 	stfvse	f6, [ip], #-268	; 0xfffffef4
    148c:	6b636162 	blvs	18d9a1c <__exidx_end+0x18d7c74>
    1490:	636e7546 	cmnvs	lr, #293601280	; 0x11800000
    1494:	6e6f6974 	mcrvs	9, 3, r6, cr15, cr4, {3}
    1498:	4c787000 	ldclmi	0, cr7, [r8], #-0
    149c:	57747369 	ldrbpl	r7, [r4, -r9, ror #6]!
    14a0:	6d457361 	stclvs	3, cr7, [r5, #-388]	; 0xfffffe7c
    14a4:	00797470 	rsbseq	r7, r9, r0, ror r4
    14a8:	6d695478 	cfstrdvs	mvd5, [r9, #-480]!	; 0xfffffe20
    14ac:	776f4e65 	strbvc	r4, [pc, -r5, ror #28]!
    14b0:	69547800 	ldmdbvs	r4, {fp, ip, sp, lr}^
    14b4:	5072656d 	rsbspl	r6, r2, sp, ror #10
    14b8:	6d617261 	sfmvs	f7, 2, [r1, #-388]!	; 0xfffffe7c
    14bc:	72657465 	rsbvc	r7, r5, #1694498816	; 0x65000000
    14c0:	63700073 	cmnvs	r0, #115	; 0x73
    14c4:	656d6954 	strbvs	r6, [sp, #-2388]!	; 0xfffff6ac
    14c8:	6d614e72 	stclvs	14, cr4, [r1, #-456]!	; 0xfffffe38
    14cc:	6c750065 	ldclvs	0, cr0, [r5], #-404	; 0xfffffe6c
    14d0:	61726150 	cmnvs	r2, r0, asr r1
    14d4:	6574656d 	ldrbvs	r6, [r4, #-1389]!	; 0xfffffa93
    14d8:	78003272 	stmdavc	r0, {r1, r4, r5, r6, r9, ip, sp}
    14dc:	656d6954 	strbvs	r6, [sp, #-2388]!	; 0xfffff6ac
    14e0:	6e655072 	mcrvs	0, 3, r5, cr5, cr2, {3}
    14e4:	6e754664 	cdpvs	6, 7, cr4, cr5, cr4, {3}
    14e8:	6f697463 	svcvs	0x00697463
    14ec:	6c61436e 	stclvs	3, cr4, [r1], #-440	; 0xfffffe48
    14f0:	6954006c 	ldmdbvs	r4, {r2, r3, r5, r6}^
    14f4:	5072656d 	rsbspl	r6, r2, sp, ror #10
    14f8:	6d617261 	sfmvs	f7, 2, [r1, #-388]!	; 0xfffffe7c
    14fc:	72657465 	rsbvc	r7, r5, #1694498816	; 0x65000000
    1500:	7800745f 	stmdavc	r0, {r0, r1, r2, r3, r4, r6, sl, ip, sp, lr}
    1504:	656d6954 	strbvs	r6, [sp, #-2388]!	; 0xfffff6ac
    1508:	65755172 	ldrbvs	r5, [r5, #-370]!	; 0xfffffe8e
    150c:	54006575 	strpl	r6, [r0], #-1397	; 0xfffffa8b
    1510:	72656d69 	rsbvc	r6, r5, #6720	; 0x1a40
    1514:	6c6c6143 	stfvse	f6, [ip], #-268	; 0xfffffef4
    1518:	6b636162 	blvs	18d9aa8 <__exidx_end+0x18d7d00>
    151c:	636e7546 	cmnvs	lr, #293601280	; 0x11800000
    1520:	6e6f6974 	mcrvs	9, 3, r6, cr15, cr4, {3}
    1524:	7800745f 	stmdavc	r0, {r0, r1, r2, r3, r4, r6, sl, ip, sp, lr}
    1528:	6d6d6f43 	stclvs	15, cr6, [sp, #-268]!	; 0xfffffef4
    152c:	49646e61 	stmdbmi	r4!, {r0, r5, r6, r9, sl, fp, sp, lr}^
    1530:	50780044 	rsbspl	r0, r8, r4, asr #32
    1534:	65636f72 	strbvs	r6, [r3, #-3954]!	; 0xfffff08e
    1538:	69547373 	ldmdbvs	r4, {r0, r1, r4, r5, r6, r8, r9, ip, sp, lr}^
    153c:	4e72656d 	cdpmi	5, 7, cr6, cr2, cr13, {3}
    1540:	5400776f 	strpl	r7, [r0], #-1903	; 0xfffff891
    1544:	72656d69 	rsbvc	r6, r5, #6720	; 0x1a40
    1548:	646e6148 	strbtvs	r6, [lr], #-328	; 0xfffffeb8
    154c:	745f656c 	ldrbvc	r6, [pc], #-1388	; 1554 <xTimerCreateTimerTask+0x1c>
    1550:	6c614300 	stclvs	3, cr4, [r1], #-0
    1554:	6361626c 	cmnvs	r1, #108, 4	; 0xc0000006
    1558:	7261506b 	rsbvc	r5, r1, #107	; 0x6b
    155c:	74656d61 	strbtvc	r6, [r5], #-3425	; 0xfffff29f
    1560:	5f737265 	svcpl	0x00737265
    1564:	78700074 	ldmdavc	r0!, {r2, r4, r5, r6}^
    1568:	5477654e 	ldrbtpl	r6, [r7], #-1358	; 0xfffffab2
    156c:	72656d69 	rsbvc	r6, r5, #6720	; 0x1a40
    1570:	704f7800 	subvc	r7, pc, r0, lsl #16
    1574:	6e6f6974 	mcrvs	9, 3, r6, cr15, cr4, {3}
    1578:	61566c61 	cmpvs	r6, r1, ror #24
    157c:	0065756c 	rsbeq	r7, r5, ip, ror #10
    1580:	6d695478 	cfstrdvs	mvd5, [r9, #-480]!	; 0xfffffe20
    1584:	73497265 	movtvc	r7, #37477	; 0x9265
    1588:	656d6954 	strbvs	r6, [sp, #-2388]!	; 0xfffff6ac
    158c:	74634172 	strbtvc	r4, [r3], #-370	; 0xfffffe8e
    1590:	00657669 	rsbeq	r7, r5, r9, ror #12
    1594:	69547670 	ldmdbvs	r4, {r4, r5, r6, r9, sl, ip, sp, lr}^
    1598:	4772656d 	ldrbmi	r6, [r2, -sp, ror #10]!
    159c:	69547465 	ldmdbvs	r4, {r0, r2, r5, r6, sl, ip, sp, lr}^
    15a0:	4972656d 	ldmdbmi	r2!, {r0, r2, r3, r5, r6, r8, sl, sp, lr}^
    15a4:	72700044 	rsbsvc	r0, r0, #68	; 0x44
    15a8:	736e4976 	cmnvc	lr, #1933312	; 0x1d8000
    15ac:	54747265 	ldrbtpl	r7, [r4], #-613	; 0xfffffd9b
    15b0:	72656d69 	rsbvc	r6, r5, #6720	; 0x1a40
    15b4:	63416e49 	movtvs	r6, #7753	; 0x1e49
    15b8:	65766974 	ldrbvs	r6, [r6, #-2420]!	; 0xfffff68c
    15bc:	7473694c 	ldrbtvc	r6, [r3], #-2380	; 0xfffff6b4
    15c0:	4f787000 	svcmi	0x00787000
    15c4:	66726576 			; <UNDEFINED> instruction: 0x66726576
    15c8:	54776f6c 	ldrbtpl	r6, [r7], #-3948	; 0xfffff094
    15cc:	72656d69 	rsbvc	r6, r5, #6720	; 0x1a40
    15d0:	7473694c 	ldrbtvc	r6, [r3], #-2380	; 0xfffff6b4
    15d4:	726d7400 	rsbvc	r7, sp, #0, 8
    15d8:	656d6954 	strbvs	r6, [sp, #-2388]!	; 0xfffff6ac
    15dc:	65755172 	ldrbvs	r5, [r5, #-370]!	; 0xfffffe8e
    15e0:	654d6575 	strbvs	r6, [sp, #-1397]	; 0xfffffa8b
    15e4:	67617373 			; <UNDEFINED> instruction: 0x67617373
    15e8:	54780065 	ldrbtpl	r0, [r8], #-101	; 0xffffff9b
    15ec:	52454d49 	subpl	r4, r5, #4672	; 0x1240
    15f0:	63417800 	movtvs	r7, #6144	; 0x1800
    15f4:	65766974 	ldrbvs	r6, [r6, #-2420]!	; 0xfffff68c
    15f8:	656d6954 	strbvs	r6, [sp, #-2388]!	; 0xfffff6ac
    15fc:	73694c72 	cmnvc	r9, #29184	; 0x7200
    1600:	78003174 	stmdavc	r0, {r2, r4, r5, r6, r8, ip, sp}
    1604:	69746341 	ldmdbvs	r4!, {r0, r6, r8, r9, sp, lr}^
    1608:	69546576 	ldmdbvs	r4, {r1, r2, r4, r5, r6, r8, sl, sp, lr}^
    160c:	4c72656d 	cfldr64mi	mvdx6, [r2], #-436	; 0xfffffe4c
    1610:	32747369 	rsbscc	r7, r4, #-1543503871	; 0xa4000001
    1614:	2f2e2e00 	svccs	0x002e2e00
    1618:	6c2f2e2e 	stcvs	14, cr2, [pc], #-184	; 1568 <xTimerCreateTimerTask+0x30>
    161c:	2f736269 	svccs	0x00736269
    1620:	65657246 	strbvs	r7, [r5, #-582]!	; 0xfffffdba
    1624:	534f5452 	movtpl	r5, #62546	; 0xf452
    1628:	6372732f 	cmnvs	r2, #-1140850688	; 0xbc000000
    162c:	6d69742f 	cfstrdvs	mvd7, [r9, #-188]!	; 0xffffff44
    1630:	2e737265 	cdpcs	2, 7, cr7, cr3, cr5, {3}
    1634:	6d740063 	ldclvs	0, cr0, [r4, #-396]!	; 0xfffffe74
    1638:	6c614372 	stclvs	3, cr4, [r1], #-456	; 0xfffffe38
    163c:	6361626c 	cmnvs	r1, #108, 4	; 0xc0000006
    1640:	7261506b 	rsbvc	r5, r1, #107	; 0x6b
    1644:	74656d61 	strbtvc	r6, [r5], #-3425	; 0xfffff29f
    1648:	00737265 	rsbseq	r7, r3, r5, ror #4
    164c:	6d695478 	cfstrdvs	mvd5, [r9, #-480]!	; 0xfffffe20
    1650:	72437265 	subvc	r7, r3, #1342177286	; 0x50000006
    1654:	65746165 	ldrbvs	r6, [r4, #-357]!	; 0xfffffe9b
    1658:	76727000 	ldrbtvc	r7, [r2], -r0
    165c:	706d6153 	rsbvc	r6, sp, r3, asr r1
    1660:	6954656c 	ldmdbvs	r4, {r2, r3, r5, r6, r8, sl, sp, lr}^
    1664:	6f4e656d 	svcvs	0x004e656d
    1668:	43780077 	cmnmi	r8, #119	; 0x77
    166c:	626c6c61 	rsbvs	r6, ip, #24832	; 0x6100
    1670:	506b6361 	rsbpl	r6, fp, r1, ror #6
    1674:	6d617261 	sfmvs	f7, 2, [r1, #-388]!	; 0xfffffe7c
    1678:	72657465 	rsbvc	r7, r5, #1694498816	; 0x65000000
    167c:	54780073 	ldrbtpl	r0, [r8], #-115	; 0xffffff8d
    1680:	72656d69 	rsbvc	r6, r5, #6720	; 0x1a40
    1684:	6e497349 	cdpvs	3, 4, cr7, cr9, cr9, {2}
    1688:	69746341 	ldmdbvs	r4!, {r0, r6, r8, r9, sp, lr}^
    168c:	694c6576 	stmdbvs	ip, {r1, r2, r4, r5, r6, r8, sl, sp, lr}^
    1690:	78007473 	stmdavc	r0, {r0, r1, r4, r5, r6, sl, ip, sp, lr}
    1694:	636e7546 	cmnvs	lr, #293601280	; 0x11800000
    1698:	6e6f6974 	mcrvs	9, 3, r6, cr15, cr4, {3}
    169c:	65506f54 	ldrbvs	r6, [r0, #-3924]	; 0xfffff0ac
    16a0:	7000646e 	andvc	r6, r0, lr, ror #8
    16a4:	77537672 			; <UNDEFINED> instruction: 0x77537672
    16a8:	68637469 	stmdavs	r3!, {r0, r3, r5, r6, sl, ip, sp, lr}^
    16ac:	656d6954 	strbvs	r6, [sp, #-2388]!	; 0xfffff6ac
    16b0:	73694c72 	cmnvc	r9, #29184	; 0x7200
    16b4:	78007374 	stmdavc	r0, {r2, r4, r5, r6, r8, r9, ip, sp, lr}
    16b8:	656d6954 	strbvs	r6, [sp, #-2388]!	; 0xfffff6ac
    16bc:	73694c72 	cmnvc	r9, #29184	; 0x7200
    16c0:	65744974 	ldrbvs	r4, [r4, #-2420]!	; 0xfffff68c
    16c4:	7670006d 	ldrbtvc	r0, [r0], -sp, rrx
    16c8:	61726150 	cmnvs	r2, r0, asr r1
    16cc:	6574656d 	ldrbvs	r6, [r4, #-1389]!	; 0xfffffa93
    16d0:	50003172 	andpl	r3, r0, r2, ror r1
    16d4:	65646e65 	strbvs	r6, [r4, #-3685]!	; 0xfffff19b
    16d8:	6e754664 	cdpvs	6, 7, cr4, cr5, cr4, {3}
    16dc:	6f697463 	svcvs	0x00697463
    16e0:	00745f6e 	rsbseq	r5, r4, lr, ror #30
    16e4:	6d695478 	cfstrdvs	mvd5, [r9, #-480]!	; 0xfffffe20
    16e8:	65477265 	strbvs	r7, [r7, #-613]	; 0xfffffd9b
    16ec:	6972656e 	ldmdbvs	r2!, {r1, r2, r3, r5, r6, r8, sl, sp, lr}^
    16f0:	6d6f4363 	stclvs	3, cr4, [pc, #-396]!	; 156c <xTimerCreateTimerTask+0x34>
    16f4:	646e616d 	strbtvs	r6, [lr], #-365	; 0xfffffe93
    16f8:	76727000 	ldrbtvc	r7, [r2], -r0
    16fc:	656d6954 	strbvs	r6, [sp, #-2388]!	; 0xfffff6ac
    1700:	73615472 	cmnvc	r1, #1912602624	; 0x72000000
    1704:	4e78006b 	cdpmi	0, 7, cr0, cr8, cr11, {3}
    1708:	45747865 	ldrbmi	r7, [r4, #-2149]!	; 0xfffff79b
    170c:	72697078 	rsbvc	r7, r9, #120	; 0x78
    1710:	6d695465 	cfstrdvs	mvd5, [r9, #-404]!	; 0xfffffe6c
    1714:	72700065 	rsbsvc	r0, r0, #101	; 0x65
    1718:	6f725076 	svcvs	0x00725076
    171c:	73736563 	cmnvc	r3, #415236096	; 0x18c00000
    1720:	65636552 	strbvs	r6, [r3, #-1362]!	; 0xfffffaae
    1724:	64657669 	strbtvs	r7, [r5], #-1641	; 0xfffff997
    1728:	6d6d6f43 	stclvs	15, cr6, [sp, #-268]!	; 0xfffffef4
    172c:	73646e61 	cmnvc	r4, #1552	; 0x610
    1730:	614c7800 	cmpvs	ip, r0, lsl #16
    1734:	69547473 	ldmdbvs	r4, {r0, r1, r4, r5, r6, sl, ip, sp, lr}^
    1738:	7000656d 	andvc	r6, r0, sp, ror #10
    173c:	72754378 	rsbsvc	r4, r5, #120, 6	; 0xe0000001
    1740:	746e6572 	strbtvc	r6, [lr], #-1394	; 0xfffffa8e
    1744:	656d6954 	strbvs	r6, [sp, #-2388]!	; 0xfffff6ac
    1748:	73694c72 	cmnvc	r9, #29184	; 0x7200
    174c:	4d780074 	ldclmi	0, cr0, [r8, #-464]!	; 0xfffffe30
    1750:	61737365 	cmnvs	r3, r5, ror #6
    1754:	70006567 	andvc	r6, r0, r7, ror #10
    1758:	6d695476 	cfstrdvs	mvd5, [r9, #-472]!	; 0xfffffe28
    175c:	44497265 	strbmi	r7, [r9], #-613	; 0xfffffd9b
    1760:	41787500 	cmnmi	r8, r0, lsl #10
    1764:	526f7475 	rsbpl	r7, pc, #1962934272	; 0x75000000
    1768:	616f6c65 	cmnvs	pc, r5, ror #24
    176c:	69540064 	ldmdbvs	r4, {r2, r5, r6}^
    1770:	5f72656d 	svcpl	0x0072656d
    1774:	4d780074 	ldclmi	0, cr0, [r8, #-464]!	; 0xfffffe30
    1778:	61737365 	cmnvs	r3, r5, ror #6
    177c:	44496567 	strbmi	r6, [r9], #-1383	; 0xfffffa99
    1780:	65614400 	strbvs	r4, [r1, #-1024]!	; 0xfffffc00
    1784:	546e6f6d 	strbtpl	r6, [lr], #-3949	; 0xfffff093
    1788:	4d6b7361 	stclmi	3, cr7, [fp, #-388]!	; 0xfffffe7c
    178c:	61737365 	cmnvs	r3, r5, ror #6
    1790:	745f6567 	ldrbvc	r6, [pc], #-1383	; 1798 <prvTimerTask+0x16c>
    1794:	65527800 	ldrbvs	r7, [r2, #-2048]	; 0xfffff800
    1798:	64616f6c 	strbtvs	r6, [r1], #-3948	; 0xfffff094
    179c:	656d6954 	strbvs	r6, [sp, #-2388]!	; 0xfffff6ac
    17a0:	65527800 	ldrbvs	r7, [r2, #-2048]	; 0xfffff800
    17a4:	746c7573 	strbtvc	r7, [ip], #-1395	; 0xfffffa8d
    17a8:	54787000 	ldrbtpl	r7, [r8], #-0
    17ac:	72656d69 	rsbvc	r6, r5, #6720	; 0x1a40
    17b0:	654d7800 	strbvs	r7, [sp, #-2048]	; 0xfffff800
    17b4:	67617373 			; <UNDEFINED> instruction: 0x67617373
    17b8:	6c615665 	stclvs	6, cr5, [r1], #-404	; 0xfffffe6c
    17bc:	70006575 	andvc	r6, r0, r5, ror r5
    17c0:	68437672 	stmdavs	r3, {r1, r4, r5, r6, r9, sl, ip, sp, lr}^
    17c4:	466b6365 	strbtmi	r6, [fp], -r5, ror #6
    17c8:	6156726f 	cmpvs	r6, pc, ror #4
    17cc:	4c64696c 	stclmi	9, cr6, [r4], #-432	; 0xfffffe50
    17d0:	41747369 	cmnmi	r4, r9, ror #6
    17d4:	7551646e 	ldrbvc	r6, [r1, #-1134]	; 0xfffffb92
    17d8:	00657565 	rsbeq	r7, r5, r5, ror #10
    17dc:	54726d74 	ldrbtpl	r6, [r2], #-3444	; 0xfffff28c
    17e0:	72656d69 	rsbvc	r6, r5, #6720	; 0x1a40
    17e4:	746e6f43 	strbtvc	r6, [lr], #-3907	; 0xfffff0bd
    17e8:	006c6f72 	rsbeq	r6, ip, r2, ror pc
    17ec:	69546370 	ldmdbvs	r4, {r4, r5, r6, r8, r9, sp, lr}^
    17f0:	4772656d 	ldrbmi	r6, [r2, -sp, ror #10]!
    17f4:	69547465 	ldmdbvs	r4, {r0, r2, r5, r6, sl, ip, sp, lr}^
    17f8:	4e72656d 	cdpmi	5, 7, cr6, cr2, cr13, {3}
    17fc:	00656d61 	rsbeq	r6, r5, r1, ror #26
    1800:	6d695478 	cfstrdvs	mvd5, [r9, #-480]!	; 0xfffffe20
    1804:	65507265 	ldrbvs	r7, [r0, #-613]	; 0xfffffd9b
    1808:	7546646e 	strbvc	r6, [r6, #-1134]	; 0xfffffb92
    180c:	6974636e 	ldmdbvs	r4!, {r1, r2, r3, r5, r6, r8, r9, sp, lr}^
    1810:	61436e6f 	cmpvs	r3, pc, ror #28
    1814:	72466c6c 	subvc	r6, r6, #108, 24	; 0x6c00
    1818:	53496d6f 	movtpl	r6, #40303	; 0x9d6f
    181c:	72700052 	rsbsvc	r0, r0, #82	; 0x52
    1820:	6f725076 	svcvs	0x00725076
    1824:	73736563 	cmnvc	r3, #415236096	; 0x18c00000
    1828:	656d6954 	strbvs	r6, [sp, #-2388]!	; 0xfffff6ac
    182c:	42724f72 	rsbsmi	r4, r2, #456	; 0x1c8
    1830:	6b636f6c 	blvs	18dd5e8 <__exidx_end+0x18db840>
    1834:	6b736154 	blvs	1cd9d8c <__exidx_end+0x1cd7fe4>
    1838:	654e7800 	strbvs	r7, [lr, #-2048]	; 0xfffff800
    183c:	78457478 	stmdavc	r5, {r3, r4, r5, r6, sl, ip, sp, lr}^
    1840:	79726970 	ldmdbvc	r2!, {r4, r5, r6, r8, fp, sp, lr}^
    1844:	656d6954 	strbvs	r6, [sp, #-2388]!	; 0xfffff6ac
    1848:	726d7400 	rsbvc	r7, sp, #0, 8
    184c:	656d6954 	strbvs	r6, [sp, #-2388]!	; 0xfffff6ac
    1850:	72615072 	rsbvc	r5, r1, #114	; 0x72
    1854:	74656d61 	strbtvc	r6, [r5], #-3425	; 0xfffff29f
    1858:	00737265 	rsbseq	r7, r3, r5, ror #4
    185c:	61437870 	hvcvs	14208	; 0x3780
    1860:	61626c6c 	cmnvs	r2, ip, ror #24
    1864:	70006b63 	andvc	r6, r0, r3, ror #22
    1868:	65477672 	strbvs	r7, [r7, #-1650]	; 0xfffff98e
    186c:	78654e74 	stmdavc	r5!, {r2, r4, r5, r6, r9, sl, fp, lr}^
    1870:	70784574 	rsbsvc	r4, r8, r4, ror r5
    1874:	54657269 	strbtpl	r7, [r5], #-617	; 0xfffffd97
    1878:	00656d69 	rsbeq	r6, r5, r9, ror #26
    187c:	2e2f2e2e 	cdpcs	14, 2, cr2, cr15, cr14, {1}
    1880:	696c2f2e 	stmdbvs	ip!, {r1, r2, r3, r5, r8, r9, sl, fp, sp}^
    1884:	462f7362 	strtmi	r7, [pc], -r2, ror #6
    1888:	52656572 	rsbpl	r6, r5, #478150656	; 0x1c800000
    188c:	2f534f54 	svccs	0x00534f54
    1890:	74726f70 	ldrbtvc	r6, [r2], #-3952	; 0xfffff090
    1894:	6363672f 	cmnvs	r3, #12320768	; 0xbc0000
    1898:	726f702f 	rsbvc	r7, pc, #47	; 0x2f
    189c:	00632e74 	rsbeq	r2, r3, r4, ror lr
    18a0:	54767270 	ldrbtpl	r7, [r6], #-624	; 0xfffffd90
    18a4:	456b7361 	strbmi	r7, [fp, #-865]!	; 0xfffffc9f
    18a8:	45746978 	ldrbmi	r6, [r4, #-2424]!	; 0xfffff688
    18ac:	726f7272 	rsbvc	r7, pc, #536870919	; 0x20000007
    18b0:	43787000 	cmnmi	r8, #0
    18b4:	0065646f 	rsbeq	r6, r5, pc, ror #8
    18b8:	6a746573 	bvs	1d1ae8c <__exidx_end+0x1d190e4>
    18bc:	7600706d 	strvc	r7, [r0], -sp, rrx
    18c0:	74726f50 	ldrbtvc	r6, [r2], #-3920	; 0xfffff0b0
    18c4:	74696e49 	strbtvc	r6, [r9], #-3657	; 0xfffff1b7
    18c8:	6b636954 	blvs	18dbe20 <__exidx_end+0x18da078>
    18cc:	656d6954 	strbvs	r6, [sp, #-2388]!	; 0xfffff6ac
    18d0:	50760072 	rsbspl	r0, r6, r2, ror r0
    18d4:	5374726f 	cmnpl	r4, #-268435450	; 0xf0000006
    18d8:	74726174 	ldrbtvc	r6, [r2], #-372	; 0xfffffe8c
    18dc:	6b636954 	blvs	18dbe34 <__exidx_end+0x18da08c>
    18e0:	656d6954 	strbvs	r6, [sp, #-2388]!	; 0xfffff6ac
    18e4:	78750072 	ldmdavc	r5!, {r1, r4, r5, r6}^
    18e8:	74697243 	strbtvc	r7, [r9], #-579	; 0xfffffdbd
    18ec:	6c616369 	stclvs	3, cr6, [r1], #-420	; 0xfffffe5c
    18f0:	7473654e 	ldrbtvc	r6, [r3], #-1358	; 0xfffffab2
    18f4:	00676e69 	rsbeq	r6, r7, r9, ror #28
    18f8:	726f5076 	rsbvc	r5, pc, #118	; 0x76
    18fc:	6f745374 	svcvs	0x00745374
    1900:	63695470 	cmnvs	r9, #112, 8	; 0x70000000
    1904:	6d69546b 	cfstrdvs	mvd5, [r9, #-428]!	; 0xfffffe54
    1908:	78007265 	stmdavc	r0, {r0, r2, r5, r6, r9, ip, sp, lr}
    190c:	706d754a 	rsbvc	r7, sp, sl, asr #10
    1910:	00667542 	rsbeq	r7, r6, r2, asr #10
    1914:	5f435653 	svcpl	0x00435653
    1918:	646e6148 	strbtvs	r6, [lr], #-328	; 0xfffffeb8
    191c:	0072656c 	rsbseq	r6, r2, ip, ror #10
    1920:	65477875 	strbvs	r7, [r7, #-2165]	; 0xfffff78b
    1924:	63695474 	cmnvs	r9, #116, 8	; 0x74000000
    1928:	756f436b 	strbvc	r4, [pc, #-875]!	; 15c5 <prvSwitchTimerLists+0x1>
    192c:	7265746e 	rsbvc	r7, r5, #1845493760	; 0x6e000000
    1930:	756c6156 	strbvc	r6, [ip, #-342]!	; 0xfffffeaa
    1934:	6c750065 	ldclvs	0, cr0, [r5], #-404	; 0xfffffe6c
    1938:	4d77654e 	cfldr64mi	mvdx6, [r7, #-312]!	; 0xfffffec8
    193c:	566b7361 	strbtpl	r7, [fp], -r1, ror #6
    1940:	65756c61 	ldrbvs	r6, [r5, #-3169]!	; 0xfffff39f
    1944:	73795300 	cmnvc	r9, #0, 6
    1948:	6b636954 	blvs	18dbea0 <__exidx_end+0x18da0f8>
    194c:	6e61485f 	mcrvs	8, 3, r4, cr1, cr15, {2}
    1950:	72656c64 	rsbvc	r6, r5, #100, 24	; 0x6400
    1954:	6f507600 	svcvs	0x00507600
    1958:	74537472 	ldrbvc	r7, [r3], #-1138	; 0xfffffb8e
    195c:	46747261 	ldrbtmi	r7, [r4], -r1, ror #4
    1960:	74737269 	ldrbtvc	r7, [r3], #-617	; 0xfffffd97
    1964:	6b736154 	blvs	1cd9ebc <__exidx_end+0x1cd8114>
    1968:	6e655000 	cdpvs	0, 6, cr5, cr5, cr0, {0}
    196c:	5f565364 	svcpl	0x00565364
    1970:	646e6148 	strbtvs	r6, [lr], #-328	; 0xfffffeb8
    1974:	0072656c 	rsbseq	r6, r2, ip, ror #10
    1978:	676e6f6c 	strbvs	r6, [lr, -ip, ror #30]!
    197c:	00706d6a 	rsbseq	r6, r0, sl, ror #26
    1980:	5f706d6a 	svcpl	0x00706d6a
    1984:	00667562 	rsbeq	r7, r6, r2, ror #10

Disassembly of section .debug_frame:

00000000 <.debug_frame>:
   0:	0000000c 	andeq	r0, r0, ip
   4:	ffffffff 			; <UNDEFINED> instruction: 0xffffffff
   8:	7c020001 	stcvc	0, cr0, [r2], {1}
   c:	000d0c0e 	andeq	r0, sp, lr, lsl #24
  10:	00000014 	andeq	r0, r0, r4, lsl r0
  14:	00000000 	andeq	r0, r0, r0
  18:	000004e8 	andeq	r0, r0, r8, ror #9
  1c:	000000b0 	strheq	r0, [r0], -r0	; <UNPREDICTABLE>
  20:	84080e43 	strhi	r0, [r8], #-3651	; 0xfffff1bd
  24:	00018e02 	andeq	r8, r1, r2, lsl #28
  28:	00000018 	andeq	r0, r0, r8, lsl r0
	...
  34:	0000010c 	andeq	r0, r0, ip, lsl #2
  38:	84100e42 	ldrhi	r0, [r0], #-3650	; 0xfffff1be
  3c:	86038504 	strhi	r8, [r3], -r4, lsl #10
  40:	00018e02 	andeq	r8, r1, r2, lsl #28
  44:	0000000c 	andeq	r0, r0, ip
  48:	ffffffff 			; <UNDEFINED> instruction: 0xffffffff
  4c:	7c020001 	stcvc	0, cr0, [r2], {1}
  50:	000d0c0e 	andeq	r0, sp, lr, lsl #24
  54:	0000001c 	andeq	r0, r0, ip, lsl r0
  58:	00000044 	andeq	r0, r0, r4, asr #32
  5c:	00000598 	muleq	r0, r8, r5
  60:	00000048 	andeq	r0, r0, r8, asr #32
  64:	80180e41 	andshi	r0, r8, r1, asr #28
  68:	82058106 	andhi	r8, r5, #-2147483647	; 0x80000001
  6c:	85038404 	strhi	r8, [r3, #-1028]	; 0xfffffbfc
  70:	00018e02 	andeq	r8, r1, r2, lsl #28
  74:	00000018 	andeq	r0, r0, r8, lsl r0
  78:	00000044 	andeq	r0, r0, r4, asr #32
  7c:	000005e0 	andeq	r0, r0, r0, ror #11
  80:	00000028 	andeq	r0, r0, r8, lsr #32
  84:	80100e42 	andshi	r0, r0, r2, asr #28
  88:	82038104 	andhi	r8, r3, #4, 2
  8c:	00018e02 	andeq	r8, r1, r2, lsl #28
  90:	00000018 	andeq	r0, r0, r8, lsl r0
  94:	00000044 	andeq	r0, r0, r4, asr #32
  98:	00000608 	andeq	r0, r0, r8, lsl #12
  9c:	00000058 	andeq	r0, r0, r8, asr r0
  a0:	840c0e42 	strhi	r0, [ip], #-3650	; 0xfffff1be
  a4:	8e028503 	cfsh32hi	mvfx8, mvfx2, #3
  a8:	00000001 	andeq	r0, r0, r1
  ac:	0000001c 	andeq	r0, r0, ip, lsl r0
  b0:	00000044 	andeq	r0, r0, r4, asr #32
  b4:	00000660 	andeq	r0, r0, r0, ror #12
  b8:	00000080 	andeq	r0, r0, r0, lsl #1
  bc:	80180e41 	andshi	r0, r8, r1, asr #28
  c0:	82058106 	andhi	r8, r5, #-2147483647	; 0x80000001
  c4:	84038304 	strhi	r8, [r3], #-772	; 0xfffffcfc
  c8:	00018e02 	andeq	r8, r1, r2, lsl #28
  cc:	0000000c 	andeq	r0, r0, ip
  d0:	ffffffff 			; <UNDEFINED> instruction: 0xffffffff
  d4:	7c020001 	stcvc	0, cr0, [r2], {1}
  d8:	000d0c0e 	andeq	r0, sp, lr, lsl #24
  dc:	00000014 	andeq	r0, r0, r4, lsl r0
  e0:	000000cc 	andeq	r0, r0, ip, asr #1
  e4:	000006e0 	andeq	r0, r0, r0, ror #13
  e8:	00000018 	andeq	r0, r0, r8, lsl r0
  ec:	84080e41 	strhi	r0, [r8], #-3649	; 0xfffff1bf
  f0:	00018e02 	andeq	r8, r1, r2, lsl #28
  f4:	00000014 	andeq	r0, r0, r4, lsl r0
  f8:	000000cc 	andeq	r0, r0, ip, asr #1
  fc:	000006f8 	strdeq	r0, [r0], -r8
 100:	00000016 	andeq	r0, r0, r6, lsl r0
 104:	84080e41 	strhi	r0, [r8], #-3649	; 0xfffff1bf
 108:	00018e02 	andeq	r8, r1, r2, lsl #28
 10c:	0000000c 	andeq	r0, r0, ip
 110:	ffffffff 			; <UNDEFINED> instruction: 0xffffffff
 114:	7c020001 	stcvc	0, cr0, [r2], {1}
 118:	000d0c0e 	andeq	r0, sp, lr, lsl #24
 11c:	00000018 	andeq	r0, r0, r8, lsl r0
 120:	0000010c 	andeq	r0, r0, ip, lsl #2
 124:	0000070e 	andeq	r0, r0, lr, lsl #14
 128:	00000072 	andeq	r0, r0, r2, ror r0
 12c:	84100e41 	ldrhi	r0, [r0], #-3649	; 0xfffff1bf
 130:	86038504 	strhi	r8, [r3], -r4, lsl #10
 134:	00018e02 	andeq	r8, r1, r2, lsl #28
 138:	00000014 	andeq	r0, r0, r4, lsl r0
 13c:	0000010c 	andeq	r0, r0, ip, lsl #2
 140:	00000780 	andeq	r0, r0, r0, lsl #15
 144:	00000024 	andeq	r0, r0, r4, lsr #32
 148:	84080e43 	strhi	r0, [r8], #-3651	; 0xfffff1bd
 14c:	00018e02 	andeq	r8, r1, r2, lsl #28
 150:	00000014 	andeq	r0, r0, r4, lsl r0
 154:	0000010c 	andeq	r0, r0, ip, lsl #2
 158:	000007a4 	andeq	r0, r0, r4, lsr #15
 15c:	0000006a 	andeq	r0, r0, sl, rrx
 160:	84080e41 	strhi	r0, [r8], #-3649	; 0xfffff1bf
 164:	00018e02 	andeq	r8, r1, r2, lsl #28
 168:	00000018 	andeq	r0, r0, r8, lsl r0
 16c:	0000010c 	andeq	r0, r0, ip, lsl #2
 170:	0000080e 	andeq	r0, r0, lr, lsl #16
 174:	00000068 	andeq	r0, r0, r8, rrx
 178:	84100e41 	ldrhi	r0, [r0], #-3649	; 0xfffff1bf
 17c:	86038504 	strhi	r8, [r3], -r4, lsl #10
 180:	00018e02 	andeq	r8, r1, r2, lsl #28
 184:	00000018 	andeq	r0, r0, r8, lsl r0
 188:	0000010c 	andeq	r0, r0, ip, lsl #2
 18c:	00000876 	andeq	r0, r0, r6, ror r8
 190:	0000004c 	andeq	r0, r0, ip, asr #32
 194:	84100e41 	ldrhi	r0, [r0], #-3649	; 0xfffff1bf
 198:	86038504 	strhi	r8, [r3], -r4, lsl #10
 19c:	00018e02 	andeq	r8, r1, r2, lsl #28
 1a0:	00000018 	andeq	r0, r0, r8, lsl r0
 1a4:	0000010c 	andeq	r0, r0, ip, lsl #2
 1a8:	00000000 	andeq	r0, r0, r0
 1ac:	0000001a 	andeq	r0, r0, sl, lsl r0
 1b0:	84100e41 	ldrhi	r0, [r0], #-3649	; 0xfffff1bf
 1b4:	86038504 	strhi	r8, [r3], -r4, lsl #10
 1b8:	00018e02 	andeq	r8, r1, r2, lsl #28
 1bc:	00000014 	andeq	r0, r0, r4, lsl r0
 1c0:	0000010c 	andeq	r0, r0, ip, lsl #2
 1c4:	00000000 	andeq	r0, r0, r0
 1c8:	0000002e 	andeq	r0, r0, lr, lsr #32
 1cc:	84080e41 	strhi	r0, [r8], #-3649	; 0xfffff1bf
 1d0:	00018e02 	andeq	r8, r1, r2, lsl #28
 1d4:	0000001c 	andeq	r0, r0, ip, lsl r0
 1d8:	0000010c 	andeq	r0, r0, ip, lsl #2
 1dc:	000008c2 	andeq	r0, r0, r2, asr #17
 1e0:	00000124 	andeq	r0, r0, r4, lsr #2
 1e4:	84140e41 	ldrhi	r0, [r4], #-3649	; 0xfffff1bf
 1e8:	86048505 	strhi	r8, [r4], -r5, lsl #10
 1ec:	8e028703 	cdphi	7, 0, cr8, cr2, cr3, {0}
 1f0:	280e4101 	stmdacs	lr, {r0, r8, lr}
 1f4:	00000018 	andeq	r0, r0, r8, lsl r0
 1f8:	0000010c 	andeq	r0, r0, ip, lsl #2
 1fc:	00000000 	andeq	r0, r0, r0
 200:	00000048 	andeq	r0, r0, r8, asr #32
 204:	84100e41 	ldrhi	r0, [r0], #-3649	; 0xfffff1bf
 208:	86038504 	strhi	r8, [r3], -r4, lsl #10
 20c:	00018e02 	andeq	r8, r1, r2, lsl #28
 210:	00000018 	andeq	r0, r0, r8, lsl r0
 214:	0000010c 	andeq	r0, r0, ip, lsl #2
 218:	00000000 	andeq	r0, r0, r0
 21c:	00000032 	andeq	r0, r0, r2, lsr r0
 220:	84100e41 	ldrhi	r0, [r0], #-3649	; 0xfffff1bf
 224:	86038504 	strhi	r8, [r3], -r4, lsl #10
 228:	00018e02 	andeq	r8, r1, r2, lsl #28
 22c:	00000020 	andeq	r0, r0, r0, lsr #32
 230:	0000010c 	andeq	r0, r0, ip, lsl #2
 234:	000009e6 	andeq	r0, r0, r6, ror #19
 238:	00000088 	andeq	r0, r0, r8, lsl #1
 23c:	80200e41 	eorhi	r0, r0, r1, asr #28
 240:	82078108 	andhi	r8, r7, #8, 2
 244:	85058406 	strhi	r8, [r5, #-1030]	; 0xfffffbfa
 248:	87038604 	strhi	r8, [r3, -r4, lsl #12]
 24c:	00018e02 	andeq	r8, r1, r2, lsl #28
 250:	0000001c 	andeq	r0, r0, ip, lsl r0
 254:	0000010c 	andeq	r0, r0, ip, lsl #2
 258:	00000000 	andeq	r0, r0, r0
 25c:	00000064 	andeq	r0, r0, r4, rrx
 260:	83180e41 	tsthi	r8, #1040	; 0x410
 264:	85058406 	strhi	r8, [r5, #-1030]	; 0xfffffbfa
 268:	87038604 	strhi	r8, [r3, -r4, lsl #12]
 26c:	00018e02 	andeq	r8, r1, r2, lsl #28
 270:	0000001c 	andeq	r0, r0, ip, lsl r0
 274:	0000010c 	andeq	r0, r0, ip, lsl #2
 278:	00000a6e 	andeq	r0, r0, lr, ror #20
 27c:	00000146 	andeq	r0, r0, r6, asr #2
 280:	84140e41 	ldrhi	r0, [r4], #-3649	; 0xfffff1bf
 284:	86048505 	strhi	r8, [r4], -r5, lsl #10
 288:	8e028703 	cdphi	7, 0, cr8, cr2, cr3, {0}
 28c:	280e4101 	stmdacs	lr, {r0, r8, lr}
 290:	00000018 	andeq	r0, r0, r8, lsl r0
 294:	0000010c 	andeq	r0, r0, ip, lsl #2
 298:	00000000 	andeq	r0, r0, r0
 29c:	0000003c 	andeq	r0, r0, ip, lsr r0
 2a0:	84100e41 	ldrhi	r0, [r0], #-3649	; 0xfffff1bf
 2a4:	86038504 	strhi	r8, [r3], -r4, lsl #10
 2a8:	00018e02 	andeq	r8, r1, r2, lsl #28
 2ac:	0000001c 	andeq	r0, r0, ip, lsl r0
 2b0:	0000010c 	andeq	r0, r0, ip, lsl #2
 2b4:	00000000 	andeq	r0, r0, r0
 2b8:	00000074 	andeq	r0, r0, r4, ror r0
 2bc:	83180e41 	tsthi	r8, #1040	; 0x410
 2c0:	85058406 	strhi	r8, [r5, #-1030]	; 0xfffffbfa
 2c4:	87038604 	strhi	r8, [r3, -r4, lsl #12]
 2c8:	00018e02 	andeq	r8, r1, r2, lsl #28
 2cc:	0000001c 	andeq	r0, r0, ip, lsl r0
 2d0:	0000010c 	andeq	r0, r0, ip, lsl #2
 2d4:	00000000 	andeq	r0, r0, r0
 2d8:	00000052 	andeq	r0, r0, r2, asr r0
 2dc:	83180e41 	tsthi	r8, #1040	; 0x410
 2e0:	85058406 	strhi	r8, [r5, #-1030]	; 0xfffffbfa
 2e4:	87038604 	strhi	r8, [r3, -r4, lsl #12]
 2e8:	00018e02 	andeq	r8, r1, r2, lsl #28
 2ec:	00000014 	andeq	r0, r0, r4, lsl r0
 2f0:	0000010c 	andeq	r0, r0, ip, lsl #2
 2f4:	00000000 	andeq	r0, r0, r0
 2f8:	0000001a 	andeq	r0, r0, sl, lsl r0
 2fc:	84080e41 	strhi	r0, [r8], #-3649	; 0xfffff1bf
 300:	00018e02 	andeq	r8, r1, r2, lsl #28
 304:	00000018 	andeq	r0, r0, r8, lsl r0
 308:	0000010c 	andeq	r0, r0, ip, lsl #2
 30c:	00000000 	andeq	r0, r0, r0
 310:	0000001e 	andeq	r0, r0, lr, lsl r0
 314:	84100e41 	ldrhi	r0, [r0], #-3649	; 0xfffff1bf
 318:	86038504 	strhi	r8, [r3], -r4, lsl #10
 31c:	00018e02 	andeq	r8, r1, r2, lsl #28
 320:	00000014 	andeq	r0, r0, r4, lsl r0
 324:	0000010c 	andeq	r0, r0, ip, lsl #2
 328:	00000000 	andeq	r0, r0, r0
 32c:	00000010 	andeq	r0, r0, r0, lsl r0
 330:	84080e41 	strhi	r0, [r8], #-3649	; 0xfffff1bf
 334:	00018e02 	andeq	r8, r1, r2, lsl #28
 338:	00000014 	andeq	r0, r0, r4, lsl r0
 33c:	0000010c 	andeq	r0, r0, ip, lsl #2
 340:	00000000 	andeq	r0, r0, r0
 344:	00000012 	andeq	r0, r0, r2, lsl r0
 348:	84080e41 	strhi	r0, [r8], #-3649	; 0xfffff1bf
 34c:	00018e02 	andeq	r8, r1, r2, lsl #28
 350:	00000014 	andeq	r0, r0, r4, lsl r0
 354:	0000010c 	andeq	r0, r0, ip, lsl #2
 358:	00000000 	andeq	r0, r0, r0
 35c:	00000014 	andeq	r0, r0, r4, lsl r0
 360:	84080e41 	strhi	r0, [r8], #-3649	; 0xfffff1bf
 364:	00018e02 	andeq	r8, r1, r2, lsl #28
 368:	00000014 	andeq	r0, r0, r4, lsl r0
 36c:	0000010c 	andeq	r0, r0, ip, lsl #2
 370:	00000000 	andeq	r0, r0, r0
 374:	00000018 	andeq	r0, r0, r8, lsl r0
 378:	84080e41 	strhi	r0, [r8], #-3649	; 0xfffff1bf
 37c:	00018e02 	andeq	r8, r1, r2, lsl #28
 380:	00000018 	andeq	r0, r0, r8, lsl r0
 384:	0000010c 	andeq	r0, r0, ip, lsl #2
 388:	00000bb4 			; <UNDEFINED> instruction: 0x00000bb4
 38c:	0000003a 	andeq	r0, r0, sl, lsr r0
 390:	84100e41 	ldrhi	r0, [r0], #-3649	; 0xfffff1bf
 394:	86038504 	strhi	r8, [r3], -r4, lsl #10
 398:	00018e02 	andeq	r8, r1, r2, lsl #28
 39c:	0000000c 	andeq	r0, r0, ip
 3a0:	ffffffff 			; <UNDEFINED> instruction: 0xffffffff
 3a4:	7c020001 	stcvc	0, cr0, [r2], {1}
 3a8:	000d0c0e 	andeq	r0, sp, lr, lsl #24
 3ac:	0000000c 	andeq	r0, r0, ip
 3b0:	0000039c 	muleq	r0, ip, r3
 3b4:	00000bee 	andeq	r0, r0, lr, ror #23
 3b8:	00000016 	andeq	r0, r0, r6, lsl r0
 3bc:	0000000c 	andeq	r0, r0, ip
 3c0:	0000039c 	muleq	r0, ip, r3
 3c4:	00000c04 	andeq	r0, r0, r4, lsl #24
 3c8:	00000006 	andeq	r0, r0, r6
 3cc:	0000000c 	andeq	r0, r0, ip
 3d0:	0000039c 	muleq	r0, ip, r3
 3d4:	00000c0a 	andeq	r0, r0, sl, lsl #24
 3d8:	00000018 	andeq	r0, r0, r8, lsl r0
 3dc:	00000018 	andeq	r0, r0, r8, lsl r0
 3e0:	0000039c 	muleq	r0, ip, r3
 3e4:	00000c22 	andeq	r0, r0, r2, lsr #24
 3e8:	00000030 	andeq	r0, r0, r0, lsr r0
 3ec:	840c0e43 	strhi	r0, [ip], #-3651	; 0xfffff1bd
 3f0:	8e028503 	cfsh32hi	mvfx8, mvfx2, #3
 3f4:	00000001 	andeq	r0, r0, r1
 3f8:	0000000c 	andeq	r0, r0, ip
 3fc:	0000039c 	muleq	r0, ip, r3
 400:	00000c52 	andeq	r0, r0, r2, asr ip
 404:	00000024 	andeq	r0, r0, r4, lsr #32
 408:	0000000c 	andeq	r0, r0, ip
 40c:	ffffffff 			; <UNDEFINED> instruction: 0xffffffff
 410:	7c020001 	stcvc	0, cr0, [r2], {1}
 414:	000d0c0e 	andeq	r0, sp, lr, lsl #24
 418:	0000000c 	andeq	r0, r0, ip
 41c:	00000408 	andeq	r0, r0, r8, lsl #8
 420:	00000c78 	andeq	r0, r0, r8, ror ip
 424:	00000028 	andeq	r0, r0, r8, lsr #32
 428:	00000014 	andeq	r0, r0, r4, lsl r0
 42c:	00000408 	andeq	r0, r0, r8, lsl #8
 430:	00000000 	andeq	r0, r0, r0
 434:	00000030 	andeq	r0, r0, r0, lsr r0
 438:	84080e41 	strhi	r0, [r8], #-3649	; 0xfffff1bf
 43c:	00018e02 	andeq	r8, r1, r2, lsl #28
 440:	00000014 	andeq	r0, r0, r4, lsl r0
 444:	00000408 	andeq	r0, r0, r8, lsl #8
 448:	00000ca0 	andeq	r0, r0, r0, lsr #25
 44c:	0000004c 	andeq	r0, r0, ip, asr #32
 450:	84080e41 	strhi	r0, [r8], #-3649	; 0xfffff1bf
 454:	00018e02 	andeq	r8, r1, r2, lsl #28
 458:	00000020 	andeq	r0, r0, r0, lsr #32
 45c:	00000408 	andeq	r0, r0, r8, lsl #8
 460:	00000cec 	andeq	r0, r0, ip, ror #25
 464:	000001ac 	andeq	r0, r0, ip, lsr #3
 468:	80200e41 	eorhi	r0, r0, r1, asr #28
 46c:	82078108 	andhi	r8, r7, #8, 2
 470:	85058406 	strhi	r8, [r5, #-1030]	; 0xfffffbfa
 474:	87038604 	strhi	r8, [r3, -r4, lsl #12]
 478:	00018e02 	andeq	r8, r1, r2, lsl #28
 47c:	00000018 	andeq	r0, r0, r8, lsl r0
 480:	00000408 	andeq	r0, r0, r8, lsl #8
 484:	00000000 	andeq	r0, r0, r0
 488:	0000008c 	andeq	r0, r0, ip, lsl #1
 48c:	84100e41 	ldrhi	r0, [r0], #-3649	; 0xfffff1bf
 490:	86038504 	strhi	r8, [r3], -r4, lsl #10
 494:	00018e02 	andeq	r8, r1, r2, lsl #28
 498:	00000014 	andeq	r0, r0, r4, lsl r0
 49c:	00000408 	andeq	r0, r0, r8, lsl #8
 4a0:	00000000 	andeq	r0, r0, r0
 4a4:	00000020 	andeq	r0, r0, r0, lsr #32
 4a8:	84080e41 	strhi	r0, [r8], #-3649	; 0xfffff1bf
 4ac:	00018e02 	andeq	r8, r1, r2, lsl #28
 4b0:	00000014 	andeq	r0, r0, r4, lsl r0
 4b4:	00000408 	andeq	r0, r0, r8, lsl #8
 4b8:	00000000 	andeq	r0, r0, r0
 4bc:	00000020 	andeq	r0, r0, r0, lsr #32
 4c0:	84080e41 	strhi	r0, [r8], #-3649	; 0xfffff1bf
 4c4:	00018e02 	andeq	r8, r1, r2, lsl #28
 4c8:	0000001c 	andeq	r0, r0, ip, lsl r0
 4cc:	00000408 	andeq	r0, r0, r8, lsl #8
 4d0:	00000000 	andeq	r0, r0, r0
 4d4:	000000a4 	andeq	r0, r0, r4, lsr #1
 4d8:	83180e41 	tsthi	r8, #1040	; 0x410
 4dc:	85058406 	strhi	r8, [r5, #-1030]	; 0xfffffbfa
 4e0:	87038604 	strhi	r8, [r3, -r4, lsl #12]
 4e4:	00018e02 	andeq	r8, r1, r2, lsl #28
 4e8:	00000018 	andeq	r0, r0, r8, lsl r0
 4ec:	00000408 	andeq	r0, r0, r8, lsl #8
 4f0:	00000000 	andeq	r0, r0, r0
 4f4:	00000064 	andeq	r0, r0, r4, rrx
 4f8:	84100e41 	ldrhi	r0, [r0], #-3649	; 0xfffff1bf
 4fc:	86038504 	strhi	r8, [r3], -r4, lsl #10
 500:	00018e02 	andeq	r8, r1, r2, lsl #28
 504:	0000001c 	andeq	r0, r0, ip, lsl r0
 508:	00000408 	andeq	r0, r0, r8, lsl #8
 50c:	00000000 	andeq	r0, r0, r0
 510:	0000007c 	andeq	r0, r0, ip, ror r0
 514:	83180e41 	tsthi	r8, #1040	; 0x410
 518:	85058406 	strhi	r8, [r5, #-1030]	; 0xfffffbfa
 51c:	87038604 	strhi	r8, [r3, -r4, lsl #12]
 520:	00018e02 	andeq	r8, r1, r2, lsl #28
 524:	00000018 	andeq	r0, r0, r8, lsl r0
 528:	00000408 	andeq	r0, r0, r8, lsl #8
 52c:	00000e98 	muleq	r0, r8, lr
 530:	0000005c 	andeq	r0, r0, ip, asr r0
 534:	840c0e41 	strhi	r0, [ip], #-3649	; 0xfffff1bf
 538:	8e028503 	cfsh32hi	mvfx8, mvfx2, #3
 53c:	200e4201 	andcs	r4, lr, r1, lsl #4
 540:	00000014 	andeq	r0, r0, r4, lsl r0
 544:	00000408 	andeq	r0, r0, r8, lsl #8
 548:	00000000 	andeq	r0, r0, r0
 54c:	00000018 	andeq	r0, r0, r8, lsl r0
 550:	84080e41 	strhi	r0, [r8], #-3649	; 0xfffff1bf
 554:	00018e02 	andeq	r8, r1, r2, lsl #28
 558:	0000000c 	andeq	r0, r0, ip
 55c:	00000408 	andeq	r0, r0, r8, lsl #8
 560:	00000ef4 	strdeq	r0, [r0], -r4
 564:	00000010 	andeq	r0, r0, r0, lsl r0
 568:	00000014 	andeq	r0, r0, r4, lsl r0
 56c:	00000408 	andeq	r0, r0, r8, lsl #8
 570:	00000f04 	andeq	r0, r0, r4, lsl #30
 574:	00000018 	andeq	r0, r0, r8, lsl r0
 578:	84080e41 	strhi	r0, [r8], #-3649	; 0xfffff1bf
 57c:	00018e02 	andeq	r8, r1, r2, lsl #28
 580:	00000014 	andeq	r0, r0, r4, lsl r0
 584:	00000408 	andeq	r0, r0, r8, lsl #8
 588:	00000000 	andeq	r0, r0, r0
 58c:	00000018 	andeq	r0, r0, r8, lsl r0
 590:	84080e41 	strhi	r0, [r8], #-3649	; 0xfffff1bf
 594:	00018e02 	andeq	r8, r1, r2, lsl #28
 598:	0000000c 	andeq	r0, r0, ip
 59c:	00000408 	andeq	r0, r0, r8, lsl #8
 5a0:	00000000 	andeq	r0, r0, r0
 5a4:	0000000c 	andeq	r0, r0, ip
 5a8:	00000020 	andeq	r0, r0, r0, lsr #32
 5ac:	00000408 	andeq	r0, r0, r8, lsl #8
 5b0:	00000f1c 	andeq	r0, r0, ip, lsl pc
 5b4:	00000104 	andeq	r0, r0, r4, lsl #2
 5b8:	80200e41 	eorhi	r0, r0, r1, asr #28
 5bc:	82078108 	andhi	r8, r7, #8, 2
 5c0:	85058406 	strhi	r8, [r5, #-1030]	; 0xfffffbfa
 5c4:	87038604 	strhi	r8, [r3, -r4, lsl #12]
 5c8:	00018e02 	andeq	r8, r1, r2, lsl #28
 5cc:	0000001c 	andeq	r0, r0, ip, lsl r0
 5d0:	00000408 	andeq	r0, r0, r8, lsl #8
 5d4:	00001020 	andeq	r1, r0, r0, lsr #32
 5d8:	000000d0 	ldrdeq	r0, [r0], -r0	; <UNPREDICTABLE>
 5dc:	83180e41 	tsthi	r8, #1040	; 0x410
 5e0:	85058406 	strhi	r8, [r5, #-1030]	; 0xfffffbfa
 5e4:	87038604 	strhi	r8, [r3, -r4, lsl #12]
 5e8:	00018e02 	andeq	r8, r1, r2, lsl #28
 5ec:	00000018 	andeq	r0, r0, r8, lsl r0
 5f0:	00000408 	andeq	r0, r0, r8, lsl #8
 5f4:	00000000 	andeq	r0, r0, r0
 5f8:	0000007c 	andeq	r0, r0, ip, ror r0
 5fc:	84100e41 	ldrhi	r0, [r0], #-3649	; 0xfffff1bf
 600:	86038504 	strhi	r8, [r3], -r4, lsl #10
 604:	00018e02 	andeq	r8, r1, r2, lsl #28
 608:	00000014 	andeq	r0, r0, r4, lsl r0
 60c:	00000408 	andeq	r0, r0, r8, lsl #8
 610:	000010f0 	strdeq	r1, [r0], -r0
 614:	0000004c 	andeq	r0, r0, ip, asr #32
 618:	84080e41 	strhi	r0, [r8], #-3649	; 0xfffff1bf
 61c:	00018e02 	andeq	r8, r1, r2, lsl #28
 620:	00000018 	andeq	r0, r0, r8, lsl r0
 624:	00000408 	andeq	r0, r0, r8, lsl #8
 628:	0000113c 	andeq	r1, r0, ip, lsr r1
 62c:	00000068 	andeq	r0, r0, r8, rrx
 630:	84100e41 	ldrhi	r0, [r0], #-3649	; 0xfffff1bf
 634:	86038504 	strhi	r8, [r3], -r4, lsl #10
 638:	00018e02 	andeq	r8, r1, r2, lsl #28
 63c:	00000014 	andeq	r0, r0, r4, lsl r0
 640:	00000408 	andeq	r0, r0, r8, lsl #8
 644:	000011a4 	andeq	r1, r0, r4, lsr #3
 648:	00000078 	andeq	r0, r0, r8, ror r0
 64c:	84080e41 	strhi	r0, [r8], #-3649	; 0xfffff1bf
 650:	00018e02 	andeq	r8, r1, r2, lsl #28
 654:	0000001c 	andeq	r0, r0, ip, lsl r0
 658:	00000408 	andeq	r0, r0, r8, lsl #8
 65c:	00000000 	andeq	r0, r0, r0
 660:	00000090 	muleq	r0, r0, r0
 664:	83180e41 	tsthi	r8, #1040	; 0x410
 668:	85058406 	strhi	r8, [r5, #-1030]	; 0xfffffbfa
 66c:	87038604 	strhi	r8, [r3, -r4, lsl #12]
 670:	00018e02 	andeq	r8, r1, r2, lsl #28
 674:	00000018 	andeq	r0, r0, r8, lsl r0
 678:	00000408 	andeq	r0, r0, r8, lsl #8
 67c:	0000121c 	andeq	r1, r0, ip, lsl r2
 680:	00000048 	andeq	r0, r0, r8, asr #32
 684:	84100e41 	ldrhi	r0, [r0], #-3649	; 0xfffff1bf
 688:	86038504 	strhi	r8, [r3], -r4, lsl #10
 68c:	00018e02 	andeq	r8, r1, r2, lsl #28
 690:	00000018 	andeq	r0, r0, r8, lsl r0
 694:	00000408 	andeq	r0, r0, r8, lsl #8
 698:	00000000 	andeq	r0, r0, r0
 69c:	00000064 	andeq	r0, r0, r4, rrx
 6a0:	84100e41 	ldrhi	r0, [r0], #-3649	; 0xfffff1bf
 6a4:	86038504 	strhi	r8, [r3], -r4, lsl #10
 6a8:	00018e02 	andeq	r8, r1, r2, lsl #28
 6ac:	00000018 	andeq	r0, r0, r8, lsl r0
 6b0:	00000408 	andeq	r0, r0, r8, lsl #8
 6b4:	00001264 	andeq	r1, r0, r4, ror #4
 6b8:	00000034 	andeq	r0, r0, r4, lsr r0
 6bc:	84100e41 	ldrhi	r0, [r0], #-3649	; 0xfffff1bf
 6c0:	86038504 	strhi	r8, [r3], -r4, lsl #10
 6c4:	00018e02 	andeq	r8, r1, r2, lsl #28
 6c8:	00000018 	andeq	r0, r0, r8, lsl r0
 6cc:	00000408 	andeq	r0, r0, r8, lsl #8
 6d0:	00001298 	muleq	r0, r8, r2
 6d4:	00000078 	andeq	r0, r0, r8, ror r0
 6d8:	84100e41 	ldrhi	r0, [r0], #-3649	; 0xfffff1bf
 6dc:	86038504 	strhi	r8, [r3], -r4, lsl #10
 6e0:	00018e02 	andeq	r8, r1, r2, lsl #28
 6e4:	00000018 	andeq	r0, r0, r8, lsl r0
 6e8:	00000408 	andeq	r0, r0, r8, lsl #8
 6ec:	00000000 	andeq	r0, r0, r0
 6f0:	00000074 	andeq	r0, r0, r4, ror r0
 6f4:	84100e41 	ldrhi	r0, [r0], #-3649	; 0xfffff1bf
 6f8:	86038504 	strhi	r8, [r3], -r4, lsl #10
 6fc:	00018e02 	andeq	r8, r1, r2, lsl #28
 700:	00000014 	andeq	r0, r0, r4, lsl r0
 704:	00000408 	andeq	r0, r0, r8, lsl #8
 708:	00001310 	andeq	r1, r0, r0, lsl r3
 70c:	00000024 	andeq	r0, r0, r4, lsr #32
 710:	84080e41 	strhi	r0, [r8], #-3649	; 0xfffff1bf
 714:	00018e02 	andeq	r8, r1, r2, lsl #28
 718:	00000018 	andeq	r0, r0, r8, lsl r0
 71c:	00000408 	andeq	r0, r0, r8, lsl #8
 720:	00001334 	andeq	r1, r0, r4, lsr r3
 724:	00000064 	andeq	r0, r0, r4, rrx
 728:	84100e41 	ldrhi	r0, [r0], #-3649	; 0xfffff1bf
 72c:	86038504 	strhi	r8, [r3], -r4, lsl #10
 730:	00018e02 	andeq	r8, r1, r2, lsl #28
 734:	0000000c 	andeq	r0, r0, ip
 738:	00000408 	andeq	r0, r0, r8, lsl #8
 73c:	00001398 	muleq	r0, r8, r3
 740:	0000000c 	andeq	r0, r0, ip
 744:	0000000c 	andeq	r0, r0, ip
 748:	00000408 	andeq	r0, r0, r8, lsl #8
 74c:	00000000 	andeq	r0, r0, r0
 750:	00000024 	andeq	r0, r0, r4, lsr #32
 754:	0000000c 	andeq	r0, r0, ip
 758:	00000408 	andeq	r0, r0, r8, lsl #8
 75c:	00000000 	andeq	r0, r0, r0
 760:	0000000c 	andeq	r0, r0, ip
 764:	0000000c 	andeq	r0, r0, ip
 768:	00000408 	andeq	r0, r0, r8, lsl #8
 76c:	000013a4 	andeq	r1, r0, r4, lsr #7
 770:	00000020 	andeq	r0, r0, r0, lsr #32
 774:	0000001c 	andeq	r0, r0, ip, lsl r0
 778:	00000408 	andeq	r0, r0, r8, lsl #8
 77c:	000013c4 	andeq	r1, r0, r4, asr #7
 780:	0000006c 	andeq	r0, r0, ip, rrx
 784:	83180e41 	tsthi	r8, #1040	; 0x410
 788:	85058406 	strhi	r8, [r5, #-1030]	; 0xfffffbfa
 78c:	87038604 	strhi	r8, [r3, -r4, lsl #12]
 790:	00018e02 	andeq	r8, r1, r2, lsl #28
 794:	00000018 	andeq	r0, r0, r8, lsl r0
 798:	00000408 	andeq	r0, r0, r8, lsl #8
 79c:	00001430 	andeq	r1, r0, r0, lsr r4
 7a0:	0000005c 	andeq	r0, r0, ip, asr r0
 7a4:	84100e41 	ldrhi	r0, [r0], #-3649	; 0xfffff1bf
 7a8:	86038504 	strhi	r8, [r3], -r4, lsl #10
 7ac:	00018e02 	andeq	r8, r1, r2, lsl #28
 7b0:	0000000c 	andeq	r0, r0, ip
 7b4:	00000408 	andeq	r0, r0, r8, lsl #8
 7b8:	00000000 	andeq	r0, r0, r0
 7bc:	00000018 	andeq	r0, r0, r8, lsl r0
 7c0:	0000000c 	andeq	r0, r0, ip
 7c4:	00000408 	andeq	r0, r0, r8, lsl #8
 7c8:	0000148c 	andeq	r1, r0, ip, lsl #9
 7cc:	00000018 	andeq	r0, r0, r8, lsl r0
 7d0:	00000018 	andeq	r0, r0, r8, lsl r0
 7d4:	00000408 	andeq	r0, r0, r8, lsl #8
 7d8:	00000000 	andeq	r0, r0, r0
 7dc:	00000088 	andeq	r0, r0, r8, lsl #1
 7e0:	84100e41 	ldrhi	r0, [r0], #-3649	; 0xfffff1bf
 7e4:	86038504 	strhi	r8, [r3], -r4, lsl #10
 7e8:	00018e02 	andeq	r8, r1, r2, lsl #28
 7ec:	00000020 	andeq	r0, r0, r0, lsr #32
 7f0:	00000408 	andeq	r0, r0, r8, lsl #8
 7f4:	00000000 	andeq	r0, r0, r0
 7f8:	0000009c 	muleq	r0, ip, r0
 7fc:	80200e41 	eorhi	r0, r0, r1, asr #28
 800:	82078108 	andhi	r8, r7, #8, 2
 804:	85058406 	strhi	r8, [r5, #-1030]	; 0xfffffbfa
 808:	87038604 	strhi	r8, [r3, -r4, lsl #12]
 80c:	00018e02 	andeq	r8, r1, r2, lsl #28
 810:	00000018 	andeq	r0, r0, r8, lsl r0
 814:	00000408 	andeq	r0, r0, r8, lsl #8
 818:	00000000 	andeq	r0, r0, r0
 81c:	000000a0 	andeq	r0, r0, r0, lsr #1
 820:	84100e41 	ldrhi	r0, [r0], #-3649	; 0xfffff1bf
 824:	86038504 	strhi	r8, [r3], -r4, lsl #10
 828:	00018e02 	andeq	r8, r1, r2, lsl #28
 82c:	00000020 	andeq	r0, r0, r0, lsr #32
 830:	00000408 	andeq	r0, r0, r8, lsl #8
 834:	00000000 	andeq	r0, r0, r0
 838:	000000c8 	andeq	r0, r0, r8, asr #1
 83c:	80200e41 	eorhi	r0, r0, r1, asr #28
 840:	82078108 	andhi	r8, r7, #8, 2
 844:	85058406 	strhi	r8, [r5, #-1030]	; 0xfffffbfa
 848:	87038604 	strhi	r8, [r3, -r4, lsl #12]
 84c:	00018e02 	andeq	r8, r1, r2, lsl #28
 850:	0000001c 	andeq	r0, r0, ip, lsl r0
 854:	00000408 	andeq	r0, r0, r8, lsl #8
 858:	00000000 	andeq	r0, r0, r0
 85c:	00000098 	muleq	r0, r8, r0
 860:	83180e41 	tsthi	r8, #1040	; 0x410
 864:	85058406 	strhi	r8, [r5, #-1030]	; 0xfffffbfa
 868:	87038604 	strhi	r8, [r3, -r4, lsl #12]
 86c:	00018e02 	andeq	r8, r1, r2, lsl #28
 870:	0000000c 	andeq	r0, r0, ip
 874:	ffffffff 			; <UNDEFINED> instruction: 0xffffffff
 878:	7c020001 	stcvc	0, cr0, [r2], {1}
 87c:	000d0c0e 	andeq	r0, sp, lr, lsl #24
 880:	0000001c 	andeq	r0, r0, ip, lsl r0
 884:	00000870 	andeq	r0, r0, r0, ror r8
 888:	000014a4 	andeq	r1, r0, r4, lsr #9
 88c:	00000058 	andeq	r0, r0, r8, asr r0
 890:	83180e41 	tsthi	r8, #1040	; 0x410
 894:	85058406 	strhi	r8, [r5, #-1030]	; 0xfffffbfa
 898:	87038604 	strhi	r8, [r3, -r4, lsl #12]
 89c:	00018e02 	andeq	r8, r1, r2, lsl #28
 8a0:	00000014 	andeq	r0, r0, r4, lsl r0
 8a4:	00000870 	andeq	r0, r0, r0, ror r8
 8a8:	000014fc 	strdeq	r1, [r0], -ip
 8ac:	0000003c 	andeq	r0, r0, ip, lsr r0
 8b0:	84080e41 	strhi	r0, [r8], #-3649	; 0xfffff1bf
 8b4:	00018e02 	andeq	r8, r1, r2, lsl #28
 8b8:	0000001c 	andeq	r0, r0, ip, lsl r0
 8bc:	00000870 	andeq	r0, r0, r0, ror r8
 8c0:	00001538 	andeq	r1, r0, r8, lsr r5
 8c4:	00000044 	andeq	r0, r0, r4, asr #32
 8c8:	80180e41 	andshi	r0, r8, r1, asr #28
 8cc:	82058106 	andhi	r8, r5, #-2147483647	; 0x80000001
 8d0:	84038304 	strhi	r8, [r3], #-772	; 0xfffffcfc
 8d4:	00018e02 	andeq	r8, r1, r2, lsl #28
 8d8:	00000020 	andeq	r0, r0, r0, lsr #32
 8dc:	00000870 	andeq	r0, r0, r0, ror r8
 8e0:	00000000 	andeq	r0, r0, r0
 8e4:	0000003c 	andeq	r0, r0, ip, lsr r0
 8e8:	80200e41 	eorhi	r0, r0, r1, asr #28
 8ec:	82078108 	andhi	r8, r7, #8, 2
 8f0:	85058406 	strhi	r8, [r5, #-1030]	; 0xfffffbfa
 8f4:	87038604 	strhi	r8, [r3, -r4, lsl #12]
 8f8:	00018e02 	andeq	r8, r1, r2, lsl #28
 8fc:	0000001c 	andeq	r0, r0, ip, lsl r0
 900:	00000870 	andeq	r0, r0, r0, ror r8
 904:	0000157c 	andeq	r1, r0, ip, ror r5
 908:	00000048 	andeq	r0, r0, r8, asr #32
 90c:	84140e41 	ldrhi	r0, [r4], #-3649	; 0xfffff1bf
 910:	86048505 	strhi	r8, [r4], -r5, lsl #10
 914:	8e028703 	cdphi	7, 0, cr8, cr2, cr3, {0}
 918:	280e4501 	stmdacs	lr, {r0, r8, sl, lr}
 91c:	00000020 	andeq	r0, r0, r0, lsr #32
 920:	00000870 	andeq	r0, r0, r0, ror r8
 924:	000015c4 	andeq	r1, r0, r4, asr #11
 928:	00000068 	andeq	r0, r0, r8, rrx
 92c:	80200e41 	eorhi	r0, r0, r1, asr #28
 930:	82078108 	andhi	r8, r7, #8, 2
 934:	85058406 	strhi	r8, [r5, #-1030]	; 0xfffffbfa
 938:	87038604 	strhi	r8, [r3, -r4, lsl #12]
 93c:	00018e02 	andeq	r8, r1, r2, lsl #28
 940:	0000001c 	andeq	r0, r0, ip, lsl r0
 944:	00000870 	andeq	r0, r0, r0, ror r8
 948:	0000162c 	andeq	r1, r0, ip, lsr #12
 94c:	00000188 	andeq	r0, r0, r8, lsl #3
 950:	84140e41 	ldrhi	r0, [r4], #-3649	; 0xfffff1bf
 954:	86048505 	strhi	r8, [r4], -r5, lsl #10
 958:	8e028703 	cdphi	7, 0, cr8, cr2, cr3, {0}
 95c:	380e4101 	stmdacc	lr, {r0, r8, lr}
 960:	0000000c 	andeq	r0, r0, ip
 964:	00000870 	andeq	r0, r0, r0, ror r8
 968:	00000000 	andeq	r0, r0, r0
 96c:	00000004 	andeq	r0, r0, r4
 970:	00000014 	andeq	r0, r0, r4, lsl r0
 974:	00000870 	andeq	r0, r0, r0, ror r8
 978:	00000000 	andeq	r0, r0, r0
 97c:	00000016 	andeq	r0, r0, r6, lsl r0
 980:	84080e41 	strhi	r0, [r8], #-3649	; 0xfffff1bf
 984:	00018e02 	andeq	r8, r1, r2, lsl #28
 988:	0000000c 	andeq	r0, r0, ip
 98c:	00000870 	andeq	r0, r0, r0, ror r8
 990:	00000000 	andeq	r0, r0, r0
 994:	00000004 	andeq	r0, r0, r4
 998:	0000001c 	andeq	r0, r0, ip, lsl r0
 99c:	00000870 	andeq	r0, r0, r0, ror r8
 9a0:	00000000 	andeq	r0, r0, r0
 9a4:	00000028 	andeq	r0, r0, r8, lsr #32
 9a8:	80180e41 	andshi	r0, r8, r1, asr #28
 9ac:	82058106 	andhi	r8, r5, #-2147483647	; 0x80000001
 9b0:	84038304 	strhi	r8, [r3], #-772	; 0xfffffcfc
 9b4:	00018e02 	andeq	r8, r1, r2, lsl #28
 9b8:	00000018 	andeq	r0, r0, r8, lsl r0
 9bc:	00000870 	andeq	r0, r0, r0, ror r8
 9c0:	00000000 	andeq	r0, r0, r0
 9c4:	00000034 	andeq	r0, r0, r4, lsr r0
 9c8:	840c0e41 	strhi	r0, [ip], #-3649	; 0xfffff1bf
 9cc:	8e028503 	cfsh32hi	mvfx8, mvfx2, #3
 9d0:	200e4601 	andcs	r4, lr, r1, lsl #12
 9d4:	0000000c 	andeq	r0, r0, ip
 9d8:	ffffffff 			; <UNDEFINED> instruction: 0xffffffff
 9dc:	7c020001 	stcvc	0, cr0, [r2], {1}
 9e0:	000d0c0e 	andeq	r0, sp, lr, lsl #24
 9e4:	00000014 	andeq	r0, r0, r4, lsl r0
 9e8:	000009d4 	ldrdeq	r0, [r0], -r4
 9ec:	000017b4 			; <UNDEFINED> instruction: 0x000017b4
 9f0:	00000020 	andeq	r0, r0, r0, lsr #32
 9f4:	84080e41 	strhi	r0, [r8], #-3649	; 0xfffff1bf
 9f8:	00018e02 	andeq	r8, r1, r2, lsl #28
 9fc:	00000014 	andeq	r0, r0, r4, lsl r0
 a00:	000009d4 	ldrdeq	r0, [r0], -r4
 a04:	000017d4 	ldrdeq	r1, [r0], -r4
 a08:	00000040 	andeq	r0, r0, r0, asr #32
 a0c:	84080e42 	strhi	r0, [r8], #-3650	; 0xfffff1be
 a10:	00018e02 	andeq	r8, r1, r2, lsl #28
 a14:	0000000c 	andeq	r0, r0, ip
 a18:	000009d4 	ldrdeq	r0, [r0], -r4
 a1c:	00000000 	andeq	r0, r0, r0
 a20:	0000000c 	andeq	r0, r0, ip
 a24:	0000000c 	andeq	r0, r0, ip
 a28:	000009d4 	ldrdeq	r0, [r0], -r4
 a2c:	00000000 	andeq	r0, r0, r0
 a30:	0000000c 	andeq	r0, r0, ip
 a34:	00000014 	andeq	r0, r0, r4, lsl r0
 a38:	000009d4 	ldrdeq	r0, [r0], -r4
 a3c:	00000000 	andeq	r0, r0, r0
 a40:	00000018 	andeq	r0, r0, r8, lsl r0
 a44:	84080e43 	strhi	r0, [r8], #-3651	; 0xfffff1bd
 a48:	00018e02 	andeq	r8, r1, r2, lsl #28
 a4c:	0000000c 	andeq	r0, r0, ip
 a50:	000009d4 	ldrdeq	r0, [r0], -r4
 a54:	00001814 	andeq	r1, r0, r4, lsl r8
 a58:	00000018 	andeq	r0, r0, r8, lsl r0
 a5c:	0000000c 	andeq	r0, r0, ip
 a60:	000009d4 	ldrdeq	r0, [r0], -r4
 a64:	00000000 	andeq	r0, r0, r0
 a68:	0000000c 	andeq	r0, r0, ip
 a6c:	0000000c 	andeq	r0, r0, ip
 a70:	000009d4 	ldrdeq	r0, [r0], -r4
 a74:	0000182c 	andeq	r1, r0, ip, lsr #16
 a78:	00000012 	andeq	r0, r0, r2, lsl r0
 a7c:	00000014 	andeq	r0, r0, r4, lsl r0
 a80:	000009d4 	ldrdeq	r0, [r0], -r4
 a84:	00001844 	andeq	r1, r0, r4, asr #16
 a88:	00000040 	andeq	r0, r0, r0, asr #32
 a8c:	84080e42 	strhi	r0, [r8], #-3650	; 0xfffff1be
 a90:	00018e02 	andeq	r8, r1, r2, lsl #28
 a94:	0000000c 	andeq	r0, r0, ip
 a98:	000009d4 	ldrdeq	r0, [r0], -r4
 a9c:	00001884 	andeq	r1, r0, r4, lsl #17
 aa0:	00000028 	andeq	r0, r0, r8, lsr #32
 aa4:	0000000c 	andeq	r0, r0, ip
 aa8:	000009d4 	ldrdeq	r0, [r0], -r4
 aac:	000018ac 	andeq	r1, r0, ip, lsr #17
 ab0:	00000044 	andeq	r0, r0, r4, asr #32
 ab4:	0000000c 	andeq	r0, r0, ip
 ab8:	000009d4 	ldrdeq	r0, [r0], -r4
 abc:	000018f0 	strdeq	r1, [r0], -r0
 ac0:	0000000a 	andeq	r0, r0, sl
 ac4:	00000014 	andeq	r0, r0, r4, lsl r0
 ac8:	000009d4 	ldrdeq	r0, [r0], -r4
 acc:	000018fc 	strdeq	r1, [r0], -ip
 ad0:	0000001c 	andeq	r0, r0, ip, lsl r0
 ad4:	84080e41 	strhi	r0, [r8], #-3649	; 0xfffff1bf
 ad8:	00018e02 	andeq	r8, r1, r2, lsl #28
 adc:	00000014 	andeq	r0, r0, r4, lsl r0
 ae0:	000009d4 	ldrdeq	r0, [r0], -r4
 ae4:	00001918 	andeq	r1, r0, r8, lsl r9
 ae8:	0000001c 	andeq	r0, r0, ip, lsl r0
 aec:	84080e41 	strhi	r0, [r8], #-3649	; 0xfffff1bf
 af0:	00018e02 	andeq	r8, r1, r2, lsl #28
 af4:	0000000c 	andeq	r0, r0, ip
 af8:	000009d4 	ldrdeq	r0, [r0], -r4
 afc:	00001934 	andeq	r1, r0, r4, lsr r9
 b00:	00000006 	andeq	r0, r0, r6
 b04:	00000014 	andeq	r0, r0, r4, lsl r0
 b08:	000009d4 	ldrdeq	r0, [r0], -r4
 b0c:	0000193c 	andeq	r1, r0, ip, lsr r9
 b10:	00000018 	andeq	r0, r0, r8, lsl r0
 b14:	84080e41 	strhi	r0, [r8], #-3649	; 0xfffff1bf
 b18:	00018e02 	andeq	r8, r1, r2, lsl #28
 b1c:	00000014 	andeq	r0, r0, r4, lsl r0
 b20:	000009d4 	ldrdeq	r0, [r0], -r4
 b24:	00001954 	andeq	r1, r0, r4, asr r9
 b28:	0000001a 	andeq	r0, r0, sl, lsl r0
 b2c:	84080e41 	strhi	r0, [r8], #-3649	; 0xfffff1bf
 b30:	00018e02 	andeq	r8, r1, r2, lsl #28
 b34:	0000000c 	andeq	r0, r0, ip
 b38:	ffffffff 			; <UNDEFINED> instruction: 0xffffffff
 b3c:	7c010001 	stcvc	0, cr0, [r1], {1}
 b40:	000d0c0e 	andeq	r0, sp, lr, lsl #24
 b44:	0000000c 	andeq	r0, r0, ip
 b48:	00000b34 	andeq	r0, r0, r4, lsr fp
 b4c:	000019bd 			; <UNDEFINED> instruction: 0x000019bd
 b50:	0000010a 	andeq	r0, r0, sl, lsl #2
 b54:	0000000c 	andeq	r0, r0, ip
 b58:	ffffffff 			; <UNDEFINED> instruction: 0xffffffff
 b5c:	7c020001 	stcvc	0, cr0, [r2], {1}
 b60:	000d0c0e 	andeq	r0, sp, lr, lsl #24
 b64:	00000014 	andeq	r0, r0, r4, lsl r0
 b68:	00000b54 	andeq	r0, r0, r4, asr fp
 b6c:	00001ad4 	ldrdeq	r1, [r0], -r4
 b70:	0000002c 	andeq	r0, r0, ip, lsr #32
 b74:	84080e42 	strhi	r0, [r8], #-3650	; 0xfffff1be
 b78:	00018e02 	andeq	r8, r1, r2, lsl #28
 b7c:	0000000c 	andeq	r0, r0, ip
 b80:	ffffffff 			; <UNDEFINED> instruction: 0xffffffff
 b84:	7c020001 	stcvc	0, cr0, [r2], {1}
 b88:	000d0c0e 	andeq	r0, sp, lr, lsl #24
 b8c:	00000018 	andeq	r0, r0, r8, lsl r0
 b90:	00000b7c 	andeq	r0, r0, ip, ror fp
 b94:	00001b00 	andeq	r1, r0, r0, lsl #22
 b98:	0000004c 	andeq	r0, r0, ip, asr #32
 b9c:	84100e42 	ldrhi	r0, [r0], #-3650	; 0xfffff1be
 ba0:	86038504 	strhi	r8, [r3], -r4, lsl #10
 ba4:	00018e02 	andeq	r8, r1, r2, lsl #28
 ba8:	0000000c 	andeq	r0, r0, ip
 bac:	ffffffff 			; <UNDEFINED> instruction: 0xffffffff
 bb0:	7c020001 	stcvc	0, cr0, [r2], {1}
 bb4:	000d0c0e 	andeq	r0, sp, lr, lsl #24
 bb8:	00000014 	andeq	r0, r0, r4, lsl r0
 bbc:	00000ba8 	andeq	r0, r0, r8, lsr #23
 bc0:	00001b4c 	andeq	r1, r0, ip, asr #22
 bc4:	00000014 	andeq	r0, r0, r4, lsl r0
 bc8:	84080e41 	strhi	r0, [r8], #-3649	; 0xfffff1bf
 bcc:	00018e02 	andeq	r8, r1, r2, lsl #28
 bd0:	00000014 	andeq	r0, r0, r4, lsl r0
 bd4:	00000ba8 	andeq	r0, r0, r8, lsr #23
 bd8:	00001b60 	andeq	r1, r0, r0, ror #22
 bdc:	00000014 	andeq	r0, r0, r4, lsl r0
 be0:	84080e41 	strhi	r0, [r8], #-3649	; 0xfffff1bf
 be4:	00018e02 	andeq	r8, r1, r2, lsl #28
 be8:	0000000c 	andeq	r0, r0, ip
 bec:	ffffffff 			; <UNDEFINED> instruction: 0xffffffff
 bf0:	7c020001 	stcvc	0, cr0, [r2], {1}
 bf4:	000d0c0e 	andeq	r0, sp, lr, lsl #24
 bf8:	00000014 	andeq	r0, r0, r4, lsl r0
 bfc:	00000be8 	andeq	r0, r0, r8, ror #23
 c00:	00001b74 	andeq	r1, r0, r4, ror fp
 c04:	00000012 	andeq	r0, r0, r2, lsl r0
 c08:	84080e42 	strhi	r0, [r8], #-3650	; 0xfffff1be
 c0c:	00018e02 	andeq	r8, r1, r2, lsl #28
 c10:	0000000c 	andeq	r0, r0, ip
 c14:	ffffffff 			; <UNDEFINED> instruction: 0xffffffff
 c18:	7c020001 	stcvc	0, cr0, [r2], {1}
 c1c:	000d0c0e 	andeq	r0, sp, lr, lsl #24
 c20:	0000000c 	andeq	r0, r0, ip
 c24:	00000c10 	andeq	r0, r0, r0, lsl ip
 c28:	00001b86 	andeq	r1, r0, r6, lsl #23
 c2c:	00000010 	andeq	r0, r0, r0, lsl r0
 c30:	0000000c 	andeq	r0, r0, ip
 c34:	ffffffff 			; <UNDEFINED> instruction: 0xffffffff
 c38:	7c020001 	stcvc	0, cr0, [r2], {1}
 c3c:	000d0c0e 	andeq	r0, sp, lr, lsl #24
 c40:	00000018 	andeq	r0, r0, r8, lsl r0
 c44:	00000c30 	andeq	r0, r0, r0, lsr ip
 c48:	00001b98 	muleq	r0, r8, fp
 c4c:	00000098 	muleq	r0, r8, r0
 c50:	84100e41 	ldrhi	r0, [r0], #-3649	; 0xfffff1bf
 c54:	86038504 	strhi	r8, [r3], -r4, lsl #10
 c58:	00018e02 	andeq	r8, r1, r2, lsl #28
 c5c:	0000000c 	andeq	r0, r0, ip
 c60:	ffffffff 			; <UNDEFINED> instruction: 0xffffffff
 c64:	7c020001 	stcvc	0, cr0, [r2], {1}
 c68:	000d0c0e 	andeq	r0, sp, lr, lsl #24
 c6c:	00000018 	andeq	r0, r0, r8, lsl r0
 c70:	00000c5c 	andeq	r0, r0, ip, asr ip
 c74:	00001c30 	andeq	r1, r0, r0, lsr ip
 c78:	000000c0 	andeq	r0, r0, r0, asr #1
 c7c:	84100e42 	ldrhi	r0, [r0], #-3650	; 0xfffff1be
 c80:	86038504 	strhi	r8, [r3], -r4, lsl #10
 c84:	00018e02 	andeq	r8, r1, r2, lsl #28
 c88:	0000000c 	andeq	r0, r0, ip
 c8c:	ffffffff 			; <UNDEFINED> instruction: 0xffffffff
 c90:	7c020001 	stcvc	0, cr0, [r2], {1}
 c94:	000d0c0e 	andeq	r0, sp, lr, lsl #24
 c98:	00000018 	andeq	r0, r0, r8, lsl r0
 c9c:	00000c88 	andeq	r0, r0, r8, lsl #25
 ca0:	00001cf0 	strdeq	r1, [r0], -r0
 ca4:	00000024 	andeq	r0, r0, r4, lsr #32
 ca8:	84100e42 	ldrhi	r0, [r0], #-3650	; 0xfffff1be
 cac:	86038504 	strhi	r8, [r3], -r4, lsl #10
 cb0:	00018e02 	andeq	r8, r1, r2, lsl #28
 cb4:	0000000c 	andeq	r0, r0, ip
 cb8:	ffffffff 			; <UNDEFINED> instruction: 0xffffffff
 cbc:	7c020001 	stcvc	0, cr0, [r2], {1}
 cc0:	000d0c0e 	andeq	r0, sp, lr, lsl #24
 cc4:	0000000c 	andeq	r0, r0, ip
 cc8:	00000cb4 			; <UNDEFINED> instruction: 0x00000cb4
 ccc:	00001d48 	andeq	r1, r0, r8, asr #26
 cd0:	00000002 	andeq	r0, r0, r2
 cd4:	0000000c 	andeq	r0, r0, ip
 cd8:	00000cb4 			; <UNDEFINED> instruction: 0x00000cb4
 cdc:	00001d4a 	andeq	r1, r0, sl, asr #26
 ce0:	00000002 	andeq	r0, r0, r2
 ce4:	0000000c 	andeq	r0, r0, ip
 ce8:	ffffffff 			; <UNDEFINED> instruction: 0xffffffff
 cec:	7c020001 	stcvc	0, cr0, [r2], {1}
 cf0:	000d0c0e 	andeq	r0, sp, lr, lsl #24
 cf4:	00000018 	andeq	r0, r0, r8, lsl r0
 cf8:	00000ce4 	andeq	r0, r0, r4, ror #25
 cfc:	00000000 	andeq	r0, r0, r0
 d00:	0000001a 	andeq	r0, r0, sl, lsl r0
 d04:	84100e41 	ldrhi	r0, [r0], #-3649	; 0xfffff1bf
 d08:	86038504 	strhi	r8, [r3], -r4, lsl #10
 d0c:	00018e02 	andeq	r8, r1, r2, lsl #28
 d10:	00000018 	andeq	r0, r0, r8, lsl r0
 d14:	00000ce4 	andeq	r0, r0, r4, ror #25
 d18:	00000000 	andeq	r0, r0, r0
 d1c:	000000cc 	andeq	r0, r0, ip, asr #1
 d20:	84100e42 	ldrhi	r0, [r0], #-3650	; 0xfffff1be
 d24:	86038504 	strhi	r8, [r3], -r4, lsl #10
 d28:	00018e02 	andeq	r8, r1, r2, lsl #28
 d2c:	0000000c 	andeq	r0, r0, ip
 d30:	ffffffff 			; <UNDEFINED> instruction: 0xffffffff
 d34:	7c020001 	stcvc	0, cr0, [r2], {1}
 d38:	000d0c0e 	andeq	r0, sp, lr, lsl #24
 d3c:	0000000c 	andeq	r0, r0, ip
 d40:	00000d2c 	andeq	r0, r0, ip, lsr #26
 d44:	00001d4c 	andeq	r1, r0, ip, asr #26
 d48:	0000001c 	andeq	r0, r0, ip, lsl r0
 d4c:	0000000c 	andeq	r0, r0, ip
 d50:	ffffffff 			; <UNDEFINED> instruction: 0xffffffff
 d54:	7c020001 	stcvc	0, cr0, [r2], {1}
 d58:	000d0c0e 	andeq	r0, sp, lr, lsl #24
 d5c:	0000000c 	andeq	r0, r0, ip
 d60:	00000d4c 	andeq	r0, r0, ip, asr #26
 d64:	00001d68 	andeq	r1, r0, r8, ror #26
 d68:	00000002 	andeq	r0, r0, r2
