Archive member included to satisfy reference by file (symbol)

../../../../../../../../../usb/usb_core/device/lib/bm/armgcc/MKL46Z4/debug/libusbd_bm.a(adapter_sdk.c.obj)
                              CMakeFiles/dev_hid_mouse_bm.dir/home/laurie/RTES/KSDK_1.3.0/examples/frdmkl46z/demo_apps/usb/device/hid/hid_mouse/mouse.c.obj (OS_Task_create)
../../../../../../../../../usb/usb_core/device/lib/bm/armgcc/MKL46Z4/debug/libusbd_bm.a(usb_class.c.obj)
                              CMakeFiles/dev_hid_mouse_bm.dir/home/laurie/RTES/KSDK_1.3.0/examples/frdmkl46z/demo_apps/usb/device/hid/hid_mouse/mouse.c.obj (USB_Class_Periodic_Task)
../../../../../../../../../usb/usb_core/device/lib/bm/armgcc/MKL46Z4/debug/libusbd_bm.a(usb_hid.c.obj)
                              CMakeFiles/dev_hid_mouse_bm.dir/home/laurie/RTES/KSDK_1.3.0/examples/frdmkl46z/demo_apps/usb/device/hid/hid_mouse/mouse.c.obj (USB_Class_HID_Init)
../../../../../../../../../usb/usb_core/device/lib/bm/armgcc/MKL46Z4/debug/libusbd_bm.a(usb_dev.c.obj)
                              ../../../../../../../../../usb/usb_core/device/lib/bm/armgcc/MKL46Z4/debug/libusbd_bm.a(usb_class.c.obj) (usb_device_get_status)
../../../../../../../../../usb/usb_core/device/lib/bm/armgcc/MKL46Z4/debug/libusbd_bm.a(usb_framework.c.obj)
                              ../../../../../../../../../usb/usb_core/device/lib/bm/armgcc/MKL46Z4/debug/libusbd_bm.a(usb_dev.c.obj) (USB_Control_Service)
../../../../../../../../../usb/usb_core/device/lib/bm/armgcc/MKL46Z4/debug/libusbd_bm.a(device_khci_interface.c.obj)
                              ../../../../../../../../../usb/usb_core/device/lib/bm/armgcc/MKL46Z4/debug/libusbd_bm.a(usb_dev.c.obj) (_usb_khci_dev_function_table)
../../../../../../../../../usb/usb_core/device/lib/bm/armgcc/MKL46Z4/debug/libusbd_bm.a(khci_dev.c.obj)
                              ../../../../../../../../../usb/usb_core/device/lib/bm/armgcc/MKL46Z4/debug/libusbd_bm.a(device_khci_interface.c.obj) (usb_dci_khci_get_xd)
../../../../../../../../../usb/usb_core/device/lib/bm/armgcc/MKL46Z4/debug/libusbd_bm.a(usb_dev_bsp.c.obj)
                              ../../../../../../../../../usb/usb_core/device/lib/bm/armgcc/MKL46Z4/debug/libusbd_bm.a(usb_dev.c.obj) (usb_dev_soc_init)
../../../../../../../../../lib/ksdk_platform_lib/armgcc/KL46Z4/debug/libksdk_platform.a(fsl_os_abstraction_bm.c.obj)
                              ../../../../../../../../../usb/usb_core/device/lib/bm/armgcc/MKL46Z4/debug/libusbd_bm.a(adapter_sdk.c.obj) (OSA_SemaCreate)
../../../../../../../../../lib/ksdk_platform_lib/armgcc/KL46Z4/debug/libksdk_platform.a(fsl_clock_manager.c.obj)
                              CMakeFiles/dev_hid_mouse_bm.dir/home/laurie/RTES/KSDK_1.3.0/examples/frdmkl46z/board.c.obj (CLOCK_SYS_BootToPee)
../../../../../../../../../lib/ksdk_platform_lib/armgcc/KL46Z4/debug/libksdk_platform.a(fsl_clock_manager_common.c.obj)
                              ../../../../../../../../../lib/ksdk_platform_lib/armgcc/KL46Z4/debug/libksdk_platform.a(fsl_clock_manager.c.obj) (g_oscBase)
../../../../../../../../../lib/ksdk_platform_lib/armgcc/KL46Z4/debug/libksdk_platform.a(fsl_clock_MKL46Z4.c.obj)
                              CMakeFiles/dev_hid_mouse_bm.dir/home/laurie/RTES/KSDK_1.3.0/examples/frdmkl46z/board.c.obj (CLOCK_SYS_SetSimConfigration)
../../../../../../../../../lib/ksdk_platform_lib/armgcc/KL46Z4/debug/libksdk_platform.a(fsl_interrupt_manager.c.obj)
                              ../../../../../../../../../lib/ksdk_platform_lib/armgcc/KL46Z4/debug/libksdk_platform.a(fsl_os_abstraction_bm.c.obj) (INT_SYS_InstallHandler)
../../../../../../../../../lib/ksdk_platform_lib/armgcc/KL46Z4/debug/libksdk_platform.a(fsl_lpsci_hal.c.obj)
                              CMakeFiles/dev_hid_mouse_bm.dir/home/laurie/RTES/KSDK_1.3.0/platform/utilities/src/fsl_debug_console.c.obj (LPSCI_HAL_SetBaudRate)
../../../../../../../../../lib/ksdk_platform_lib/armgcc/KL46Z4/debug/libksdk_platform.a(fsl_lptmr_hal.c.obj)
                              ../../../../../../../../../lib/ksdk_platform_lib/armgcc/KL46Z4/debug/libksdk_platform.a(fsl_os_abstraction_bm.c.obj) (LPTMR_HAL_SetTimerWorkingMode)
../../../../../../../../../lib/ksdk_platform_lib/armgcc/KL46Z4/debug/libksdk_platform.a(fsl_mcg_hal.c.obj)
                              ../../../../../../../../../lib/ksdk_platform_lib/armgcc/KL46Z4/debug/libksdk_platform.a(fsl_clock_manager.c.obj) (g_xtal0ClkFreq)
../../../../../../../../../lib/ksdk_platform_lib/armgcc/KL46Z4/debug/libksdk_platform.a(fsl_mcg_hal_modes.c.obj)
                              ../../../../../../../../../lib/ksdk_platform_lib/armgcc/KL46Z4/debug/libksdk_platform.a(fsl_clock_manager.c.obj) (CLOCK_HAL_GetMcgMode)
../../../../../../../../../lib/ksdk_platform_lib/armgcc/KL46Z4/debug/libksdk_platform.a(fsl_osc_hal.c.obj)
                              ../../../../../../../../../lib/ksdk_platform_lib/armgcc/KL46Z4/debug/libksdk_platform.a(fsl_clock_manager.c.obj) (OSC_HAL_SetCapacitor)
../../../../../../../../../lib/ksdk_platform_lib/armgcc/KL46Z4/debug/libksdk_platform.a(fsl_sim_hal_MKL46Z4.c.obj)
                              ../../../../../../../../../lib/ksdk_platform_lib/armgcc/KL46Z4/debug/libksdk_platform.a(fsl_clock_MKL46Z4.c.obj) (CLOCK_HAL_SetOutDiv)
../../../../../../../../../lib/ksdk_platform_lib/armgcc/KL46Z4/debug/libksdk_platform.a(fsl_uart_hal.c.obj)
                              CMakeFiles/dev_hid_mouse_bm.dir/home/laurie/RTES/KSDK_1.3.0/platform/utilities/src/fsl_debug_console.c.obj (UART_HAL_SetBaudRate)
/home/laurie/gcc-arm/bin/../lib/gcc/arm-none-eabi/5.4.1/../../../../arm-none-eabi/lib/armv6-m/libc_nano.a(lib_a-assert.o)
                              CMakeFiles/dev_hid_mouse_bm.dir/home/laurie/RTES/KSDK_1.3.0/examples/frdmkl46z/pin_mux.c.obj (__assert_func)
/home/laurie/gcc-arm/bin/../lib/gcc/arm-none-eabi/5.4.1/../../../../arm-none-eabi/lib/armv6-m/libc_nano.a(lib_a-calloc.o)
                              ../../../../../../../../../lib/ksdk_platform_lib/armgcc/KL46Z4/debug/libksdk_platform.a(fsl_os_abstraction_bm.c.obj) (calloc)
/home/laurie/gcc-arm/bin/../lib/gcc/arm-none-eabi/5.4.1/../../../../arm-none-eabi/lib/armv6-m/libc_nano.a(lib_a-errno.o)
                              CMakeFiles/dev_hid_mouse_bm.dir/home/laurie/RTES/KSDK_1.3.0/platform/utilities/src/fsl_misc_utilities.c.obj (__errno)
/home/laurie/gcc-arm/bin/../lib/gcc/arm-none-eabi/5.4.1/../../../../arm-none-eabi/lib/armv6-m/libc_nano.a(lib_a-exit.o)
                              /home/laurie/gcc-arm/bin/../lib/gcc/arm-none-eabi/5.4.1/../../../../arm-none-eabi/lib/armv6-m/crt0.o (exit)
/home/laurie/gcc-arm/bin/../lib/gcc/arm-none-eabi/5.4.1/../../../../arm-none-eabi/lib/armv6-m/libc_nano.a(lib_a-fprintf.o)
                              /home/laurie/gcc-arm/bin/../lib/gcc/arm-none-eabi/5.4.1/../../../../arm-none-eabi/lib/armv6-m/libc_nano.a(lib_a-assert.o) (fiprintf)
/home/laurie/gcc-arm/bin/../lib/gcc/arm-none-eabi/5.4.1/../../../../arm-none-eabi/lib/armv6-m/libc_nano.a(lib_a-impure.o)
                              /home/laurie/gcc-arm/bin/../lib/gcc/arm-none-eabi/5.4.1/../../../../arm-none-eabi/lib/armv6-m/libc_nano.a(lib_a-exit.o) (_global_impure_ptr)
/home/laurie/gcc-arm/bin/../lib/gcc/arm-none-eabi/5.4.1/../../../../arm-none-eabi/lib/armv6-m/libc_nano.a(lib_a-init.o)
                              /home/laurie/gcc-arm/bin/../lib/gcc/arm-none-eabi/5.4.1/../../../../arm-none-eabi/lib/armv6-m/crt0.o (__libc_init_array)
/home/laurie/gcc-arm/bin/../lib/gcc/arm-none-eabi/5.4.1/../../../../arm-none-eabi/lib/armv6-m/libc_nano.a(lib_a-malloc.o)
                              ../../../../../../../../../lib/ksdk_platform_lib/armgcc/KL46Z4/debug/libksdk_platform.a(fsl_os_abstraction_bm.c.obj) (malloc)
/home/laurie/gcc-arm/bin/../lib/gcc/arm-none-eabi/5.4.1/../../../../arm-none-eabi/lib/armv6-m/libc_nano.a(lib_a-memcpy-stub.o)
                              ../../../../../../../../../usb/usb_core/device/lib/bm/armgcc/MKL46Z4/debug/libusbd_bm.a(usb_hid.c.obj) (memcpy)
/home/laurie/gcc-arm/bin/../lib/gcc/arm-none-eabi/5.4.1/../../../../arm-none-eabi/lib/armv6-m/libc_nano.a(lib_a-memset.o)
                              /home/laurie/gcc-arm/bin/../lib/gcc/arm-none-eabi/5.4.1/../../../../arm-none-eabi/lib/armv6-m/crt0.o (memset)
/home/laurie/gcc-arm/bin/../lib/gcc/arm-none-eabi/5.4.1/../../../../arm-none-eabi/lib/armv6-m/libc_nano.a(lib_a-nano-callocr.o)
                              /home/laurie/gcc-arm/bin/../lib/gcc/arm-none-eabi/5.4.1/../../../../arm-none-eabi/lib/armv6-m/libc_nano.a(lib_a-calloc.o) (_calloc_r)
/home/laurie/gcc-arm/bin/../lib/gcc/arm-none-eabi/5.4.1/../../../../arm-none-eabi/lib/armv6-m/libc_nano.a(lib_a-nano-freer.o)
                              /home/laurie/gcc-arm/bin/../lib/gcc/arm-none-eabi/5.4.1/../../../../arm-none-eabi/lib/armv6-m/libc_nano.a(lib_a-malloc.o) (_free_r)
/home/laurie/gcc-arm/bin/../lib/gcc/arm-none-eabi/5.4.1/../../../../arm-none-eabi/lib/armv6-m/libc_nano.a(lib_a-nano-mallocr.o)
                              /home/laurie/gcc-arm/bin/../lib/gcc/arm-none-eabi/5.4.1/../../../../arm-none-eabi/lib/armv6-m/libc_nano.a(lib_a-malloc.o) (_malloc_r)
/home/laurie/gcc-arm/bin/../lib/gcc/arm-none-eabi/5.4.1/../../../../arm-none-eabi/lib/armv6-m/libc_nano.a(lib_a-nano-vfprintf.o)
                              /home/laurie/gcc-arm/bin/../lib/gcc/arm-none-eabi/5.4.1/../../../../arm-none-eabi/lib/armv6-m/libc_nano.a(lib_a-fprintf.o) (_vfprintf_r)
/home/laurie/gcc-arm/bin/../lib/gcc/arm-none-eabi/5.4.1/../../../../arm-none-eabi/lib/armv6-m/libc_nano.a(lib_a-nano-vfprintf_i.o)
                              /home/laurie/gcc-arm/bin/../lib/gcc/arm-none-eabi/5.4.1/../../../../arm-none-eabi/lib/armv6-m/libc_nano.a(lib_a-nano-vfprintf.o) (_printf_i)
/home/laurie/gcc-arm/bin/../lib/gcc/arm-none-eabi/5.4.1/../../../../arm-none-eabi/lib/armv6-m/libc_nano.a(lib_a-sbrkr.o)
                              /home/laurie/gcc-arm/bin/../lib/gcc/arm-none-eabi/5.4.1/../../../../arm-none-eabi/lib/armv6-m/libc_nano.a(lib_a-nano-mallocr.o) (_sbrk_r)
/home/laurie/gcc-arm/bin/../lib/gcc/arm-none-eabi/5.4.1/../../../../arm-none-eabi/lib/armv6-m/libc_nano.a(lib_a-strlen.o)
                              CMakeFiles/dev_hid_mouse_bm.dir/home/laurie/RTES/KSDK_1.3.0/platform/utilities/src/print_scan.c.obj (strlen)
/home/laurie/gcc-arm/bin/../lib/gcc/arm-none-eabi/5.4.1/../../../../arm-none-eabi/lib/armv6-m/libc_nano.a(lib_a-wbuf.o)
                              /home/laurie/gcc-arm/bin/../lib/gcc/arm-none-eabi/5.4.1/../../../../arm-none-eabi/lib/armv6-m/libc_nano.a(lib_a-nano-vfprintf.o) (__swbuf_r)
/home/laurie/gcc-arm/bin/../lib/gcc/arm-none-eabi/5.4.1/../../../../arm-none-eabi/lib/armv6-m/libc_nano.a(lib_a-wsetup.o)
                              /home/laurie/gcc-arm/bin/../lib/gcc/arm-none-eabi/5.4.1/../../../../arm-none-eabi/lib/armv6-m/libc_nano.a(lib_a-nano-vfprintf.o) (__swsetup_r)
/home/laurie/gcc-arm/bin/../lib/gcc/arm-none-eabi/5.4.1/../../../../arm-none-eabi/lib/armv6-m/libc_nano.a(lib_a-abort.o)
                              /home/laurie/gcc-arm/bin/../lib/gcc/arm-none-eabi/5.4.1/../../../../arm-none-eabi/lib/armv6-m/libc_nano.a(lib_a-assert.o) (abort)
/home/laurie/gcc-arm/bin/../lib/gcc/arm-none-eabi/5.4.1/../../../../arm-none-eabi/lib/armv6-m/libc_nano.a(lib_a-fflush.o)
                              /home/laurie/gcc-arm/bin/../lib/gcc/arm-none-eabi/5.4.1/../../../../arm-none-eabi/lib/armv6-m/libc_nano.a(lib_a-wbuf.o) (_fflush_r)
/home/laurie/gcc-arm/bin/../lib/gcc/arm-none-eabi/5.4.1/../../../../arm-none-eabi/lib/armv6-m/libc_nano.a(lib_a-findfp.o)
                              /home/laurie/gcc-arm/bin/../lib/gcc/arm-none-eabi/5.4.1/../../../../arm-none-eabi/lib/armv6-m/libc_nano.a(lib_a-nano-vfprintf.o) (__sinit)
/home/laurie/gcc-arm/bin/../lib/gcc/arm-none-eabi/5.4.1/../../../../arm-none-eabi/lib/armv6-m/libc_nano.a(lib_a-fvwrite.o)
                              /home/laurie/gcc-arm/bin/../lib/gcc/arm-none-eabi/5.4.1/../../../../arm-none-eabi/lib/armv6-m/libc_nano.a(lib_a-nano-vfprintf.o) (__sfvwrite_r)
/home/laurie/gcc-arm/bin/../lib/gcc/arm-none-eabi/5.4.1/../../../../arm-none-eabi/lib/armv6-m/libc_nano.a(lib_a-fwalk.o)
                              /home/laurie/gcc-arm/bin/../lib/gcc/arm-none-eabi/5.4.1/../../../../arm-none-eabi/lib/armv6-m/libc_nano.a(lib_a-findfp.o) (_fwalk)
/home/laurie/gcc-arm/bin/../lib/gcc/arm-none-eabi/5.4.1/../../../../arm-none-eabi/lib/armv6-m/libc_nano.a(lib_a-makebuf.o)
                              /home/laurie/gcc-arm/bin/../lib/gcc/arm-none-eabi/5.4.1/../../../../arm-none-eabi/lib/armv6-m/libc_nano.a(lib_a-wsetup.o) (__smakebuf_r)
/home/laurie/gcc-arm/bin/../lib/gcc/arm-none-eabi/5.4.1/../../../../arm-none-eabi/lib/armv6-m/libc_nano.a(lib_a-memchr-stub.o)
                              /home/laurie/gcc-arm/bin/../lib/gcc/arm-none-eabi/5.4.1/../../../../arm-none-eabi/lib/armv6-m/libc_nano.a(lib_a-nano-vfprintf.o) (memchr)
/home/laurie/gcc-arm/bin/../lib/gcc/arm-none-eabi/5.4.1/../../../../arm-none-eabi/lib/armv6-m/libc_nano.a(lib_a-memmove.o)
                              /home/laurie/gcc-arm/bin/../lib/gcc/arm-none-eabi/5.4.1/../../../../arm-none-eabi/lib/armv6-m/libc_nano.a(lib_a-fvwrite.o) (memmove)
/home/laurie/gcc-arm/bin/../lib/gcc/arm-none-eabi/5.4.1/../../../../arm-none-eabi/lib/armv6-m/libc_nano.a(lib_a-mlock.o)
                              /home/laurie/gcc-arm/bin/../lib/gcc/arm-none-eabi/5.4.1/../../../../arm-none-eabi/lib/armv6-m/libc_nano.a(lib_a-nano-freer.o) (__malloc_lock)
/home/laurie/gcc-arm/bin/../lib/gcc/arm-none-eabi/5.4.1/../../../../arm-none-eabi/lib/armv6-m/libc_nano.a(lib_a-nano-reallocr.o)
                              /home/laurie/gcc-arm/bin/../lib/gcc/arm-none-eabi/5.4.1/../../../../arm-none-eabi/lib/armv6-m/libc_nano.a(lib_a-fvwrite.o) (_realloc_r)
/home/laurie/gcc-arm/bin/../lib/gcc/arm-none-eabi/5.4.1/../../../../arm-none-eabi/lib/armv6-m/libc_nano.a(lib_a-reent.o)
                              /home/laurie/gcc-arm/bin/../lib/gcc/arm-none-eabi/5.4.1/../../../../arm-none-eabi/lib/armv6-m/libc_nano.a(lib_a-sbrkr.o) (errno)
/home/laurie/gcc-arm/bin/../lib/gcc/arm-none-eabi/5.4.1/../../../../arm-none-eabi/lib/armv6-m/libc_nano.a(lib_a-signal.o)
                              /home/laurie/gcc-arm/bin/../lib/gcc/arm-none-eabi/5.4.1/../../../../arm-none-eabi/lib/armv6-m/libc_nano.a(lib_a-abort.o) (raise)
/home/laurie/gcc-arm/bin/../lib/gcc/arm-none-eabi/5.4.1/../../../../arm-none-eabi/lib/armv6-m/libc_nano.a(lib_a-signalr.o)
                              /home/laurie/gcc-arm/bin/../lib/gcc/arm-none-eabi/5.4.1/../../../../arm-none-eabi/lib/armv6-m/libc_nano.a(lib_a-signal.o) (_kill_r)
/home/laurie/gcc-arm/bin/../lib/gcc/arm-none-eabi/5.4.1/../../../../arm-none-eabi/lib/armv6-m/libc_nano.a(lib_a-stdio.o)
                              /home/laurie/gcc-arm/bin/../lib/gcc/arm-none-eabi/5.4.1/../../../../arm-none-eabi/lib/armv6-m/libc_nano.a(lib_a-findfp.o) (__sread)
/home/laurie/gcc-arm/bin/../lib/gcc/arm-none-eabi/5.4.1/../../../../arm-none-eabi/lib/armv6-m/libc_nano.a(lib_a-writer.o)
                              /home/laurie/gcc-arm/bin/../lib/gcc/arm-none-eabi/5.4.1/../../../../arm-none-eabi/lib/armv6-m/libc_nano.a(lib_a-stdio.o) (_write_r)
/home/laurie/gcc-arm/bin/../lib/gcc/arm-none-eabi/5.4.1/../../../../arm-none-eabi/lib/armv6-m/libc_nano.a(lib_a-closer.o)
                              /home/laurie/gcc-arm/bin/../lib/gcc/arm-none-eabi/5.4.1/../../../../arm-none-eabi/lib/armv6-m/libc_nano.a(lib_a-stdio.o) (_close_r)
/home/laurie/gcc-arm/bin/../lib/gcc/arm-none-eabi/5.4.1/../../../../arm-none-eabi/lib/armv6-m/libc_nano.a(lib_a-fstatr.o)
                              /home/laurie/gcc-arm/bin/../lib/gcc/arm-none-eabi/5.4.1/../../../../arm-none-eabi/lib/armv6-m/libc_nano.a(lib_a-makebuf.o) (_fstat_r)
/home/laurie/gcc-arm/bin/../lib/gcc/arm-none-eabi/5.4.1/../../../../arm-none-eabi/lib/armv6-m/libc_nano.a(lib_a-isattyr.o)
                              /home/laurie/gcc-arm/bin/../lib/gcc/arm-none-eabi/5.4.1/../../../../arm-none-eabi/lib/armv6-m/libc_nano.a(lib_a-makebuf.o) (_isatty_r)
/home/laurie/gcc-arm/bin/../lib/gcc/arm-none-eabi/5.4.1/../../../../arm-none-eabi/lib/armv6-m/libc_nano.a(lib_a-lseekr.o)
                              /home/laurie/gcc-arm/bin/../lib/gcc/arm-none-eabi/5.4.1/../../../../arm-none-eabi/lib/armv6-m/libc_nano.a(lib_a-stdio.o) (_lseek_r)
/home/laurie/gcc-arm/bin/../lib/gcc/arm-none-eabi/5.4.1/../../../../arm-none-eabi/lib/armv6-m/libc_nano.a(lib_a-nano-msizer.o)
                              /home/laurie/gcc-arm/bin/../lib/gcc/arm-none-eabi/5.4.1/../../../../arm-none-eabi/lib/armv6-m/libc_nano.a(lib_a-nano-reallocr.o) (_malloc_usable_size_r)
/home/laurie/gcc-arm/bin/../lib/gcc/arm-none-eabi/5.4.1/../../../../arm-none-eabi/lib/armv6-m/libc_nano.a(lib_a-readr.o)
                              /home/laurie/gcc-arm/bin/../lib/gcc/arm-none-eabi/5.4.1/../../../../arm-none-eabi/lib/armv6-m/libc_nano.a(lib_a-stdio.o) (_read_r)
/home/laurie/gcc-arm/bin/../lib/gcc/arm-none-eabi/5.4.1/armv6-m/libgcc.a(_udivsi3.o)
                              CMakeFiles/dev_hid_mouse_bm.dir/home/laurie/RTES/KSDK_1.3.0/platform/utilities/src/print_scan.c.obj (__aeabi_uidiv)
/home/laurie/gcc-arm/bin/../lib/gcc/arm-none-eabi/5.4.1/armv6-m/libgcc.a(_divsi3.o)
                              CMakeFiles/dev_hid_mouse_bm.dir/home/laurie/RTES/KSDK_1.3.0/platform/utilities/src/print_scan.c.obj (__aeabi_idiv)
/home/laurie/gcc-arm/bin/../lib/gcc/arm-none-eabi/5.4.1/armv6-m/libgcc.a(_dvmd_tls.o)
                              /home/laurie/gcc-arm/bin/../lib/gcc/arm-none-eabi/5.4.1/armv6-m/libgcc.a(_udivsi3.o) (__aeabi_idiv0)
/home/laurie/gcc-arm/bin/../lib/gcc/arm-none-eabi/5.4.1/../../../../arm-none-eabi/lib/armv6-m/libnosys.a(close.o)
                              /home/laurie/gcc-arm/bin/../lib/gcc/arm-none-eabi/5.4.1/../../../../arm-none-eabi/lib/armv6-m/libc_nano.a(lib_a-closer.o) (_close)
/home/laurie/gcc-arm/bin/../lib/gcc/arm-none-eabi/5.4.1/../../../../arm-none-eabi/lib/armv6-m/libnosys.a(fstat.o)
                              /home/laurie/gcc-arm/bin/../lib/gcc/arm-none-eabi/5.4.1/../../../../arm-none-eabi/lib/armv6-m/libc_nano.a(lib_a-fstatr.o) (_fstat)
/home/laurie/gcc-arm/bin/../lib/gcc/arm-none-eabi/5.4.1/../../../../arm-none-eabi/lib/armv6-m/libnosys.a(getpid.o)
                              /home/laurie/gcc-arm/bin/../lib/gcc/arm-none-eabi/5.4.1/../../../../arm-none-eabi/lib/armv6-m/libc_nano.a(lib_a-signalr.o) (_getpid)
/home/laurie/gcc-arm/bin/../lib/gcc/arm-none-eabi/5.4.1/../../../../arm-none-eabi/lib/armv6-m/libnosys.a(isatty.o)
                              /home/laurie/gcc-arm/bin/../lib/gcc/arm-none-eabi/5.4.1/../../../../arm-none-eabi/lib/armv6-m/libc_nano.a(lib_a-isattyr.o) (_isatty)
/home/laurie/gcc-arm/bin/../lib/gcc/arm-none-eabi/5.4.1/../../../../arm-none-eabi/lib/armv6-m/libnosys.a(kill.o)
                              /home/laurie/gcc-arm/bin/../lib/gcc/arm-none-eabi/5.4.1/../../../../arm-none-eabi/lib/armv6-m/libc_nano.a(lib_a-signalr.o) (_kill)
/home/laurie/gcc-arm/bin/../lib/gcc/arm-none-eabi/5.4.1/../../../../arm-none-eabi/lib/armv6-m/libnosys.a(lseek.o)
                              /home/laurie/gcc-arm/bin/../lib/gcc/arm-none-eabi/5.4.1/../../../../arm-none-eabi/lib/armv6-m/libc_nano.a(lib_a-lseekr.o) (_lseek)
/home/laurie/gcc-arm/bin/../lib/gcc/arm-none-eabi/5.4.1/../../../../arm-none-eabi/lib/armv6-m/libnosys.a(_exit.o)
                              /home/laurie/gcc-arm/bin/../lib/gcc/arm-none-eabi/5.4.1/../../../../arm-none-eabi/lib/armv6-m/libc_nano.a(lib_a-exit.o) (_exit)

Allocating common symbols
Common symbol       size              file

errno               0x4               /home/laurie/gcc-arm/bin/../lib/gcc/arm-none-eabi/5.4.1/../../../../arm-none-eabi/lib/armv6-m/libc_nano.a(lib_a-reent.o)

Discarded input sections

 .text          0x00000000        0x0 /home/laurie/gcc-arm/bin/../lib/gcc/arm-none-eabi/5.4.1/armv6-m/crti.o
 .data          0x00000000        0x0 /home/laurie/gcc-arm/bin/../lib/gcc/arm-none-eabi/5.4.1/armv6-m/crti.o
 .bss           0x00000000        0x0 /home/laurie/gcc-arm/bin/../lib/gcc/arm-none-eabi/5.4.1/armv6-m/crti.o
 .data          0x00000000        0x4 /home/laurie/gcc-arm/bin/../lib/gcc/arm-none-eabi/5.4.1/armv6-m/crtbegin.o
 .data          0x00000000        0x0 /home/laurie/gcc-arm/bin/../lib/gcc/arm-none-eabi/5.4.1/../../../../arm-none-eabi/lib/armv6-m/crt0.o
 .bss           0x00000000        0x0 /home/laurie/gcc-arm/bin/../lib/gcc/arm-none-eabi/5.4.1/../../../../arm-none-eabi/lib/armv6-m/crt0.o
 .ARM.extab     0x00000000        0x0 /home/laurie/gcc-arm/bin/../lib/gcc/arm-none-eabi/5.4.1/../../../../arm-none-eabi/lib/armv6-m/crt0.o
 .text          0x00000000        0x0 CMakeFiles/dev_hid_mouse_bm.dir/home/laurie/RTES/KSDK_1.3.0/platform/utilities/src/fsl_misc_utilities.c.obj
 .data          0x00000000        0x0 CMakeFiles/dev_hid_mouse_bm.dir/home/laurie/RTES/KSDK_1.3.0/platform/utilities/src/fsl_misc_utilities.c.obj
 .bss           0x00000000        0x0 CMakeFiles/dev_hid_mouse_bm.dir/home/laurie/RTES/KSDK_1.3.0/platform/utilities/src/fsl_misc_utilities.c.obj
 .rodata        0x00000000       0x3e CMakeFiles/dev_hid_mouse_bm.dir/home/laurie/RTES/KSDK_1.3.0/platform/utilities/src/fsl_misc_utilities.c.obj
 .text.assert_func
                0x00000000       0x28 CMakeFiles/dev_hid_mouse_bm.dir/home/laurie/RTES/KSDK_1.3.0/platform/utilities/src/fsl_misc_utilities.c.obj
 .data          0x00000000        0x0 CMakeFiles/dev_hid_mouse_bm.dir/home/laurie/RTES/KSDK_1.3.0/platform/devices/MKL46Z4/startup/gcc/startup_MKL46Z4.S.obj
 .bss           0x00000000        0x0 CMakeFiles/dev_hid_mouse_bm.dir/home/laurie/RTES/KSDK_1.3.0/platform/devices/MKL46Z4/startup/gcc/startup_MKL46Z4.S.obj
 .text          0x00000000        0x0 CMakeFiles/dev_hid_mouse_bm.dir/home/laurie/RTES/KSDK_1.3.0/examples/frdmkl46z/demo_apps/usb/device/hid/hid_mouse/mouse.c.obj
 .data          0x00000000        0x0 CMakeFiles/dev_hid_mouse_bm.dir/home/laurie/RTES/KSDK_1.3.0/examples/frdmkl46z/demo_apps/usb/device/hid/hid_mouse/mouse.c.obj
 .bss           0x00000000        0x0 CMakeFiles/dev_hid_mouse_bm.dir/home/laurie/RTES/KSDK_1.3.0/examples/frdmkl46z/demo_apps/usb/device/hid/hid_mouse/mouse.c.obj
 .text.APP_task
                0x00000000       0x10 CMakeFiles/dev_hid_mouse_bm.dir/home/laurie/RTES/KSDK_1.3.0/examples/frdmkl46z/demo_apps/usb/device/hid/hid_mouse/mouse.c.obj
 .text          0x00000000        0x0 CMakeFiles/dev_hid_mouse_bm.dir/home/laurie/RTES/KSDK_1.3.0/examples/frdmkl46z/demo_apps/usb/device/hid/hid_mouse/usb_descriptor.c.obj
 .data          0x00000000        0x0 CMakeFiles/dev_hid_mouse_bm.dir/home/laurie/RTES/KSDK_1.3.0/examples/frdmkl46z/demo_apps/usb/device/hid/hid_mouse/usb_descriptor.c.obj
 .bss           0x00000000        0x0 CMakeFiles/dev_hid_mouse_bm.dir/home/laurie/RTES/KSDK_1.3.0/examples/frdmkl46z/demo_apps/usb/device/hid/hid_mouse/usb_descriptor.c.obj
 .text          0x00000000        0x0 CMakeFiles/dev_hid_mouse_bm.dir/home/laurie/RTES/KSDK_1.3.0/examples/frdmkl46z/demo_apps/usb/device/hid/hid_mouse/hardware_init.c.obj
 .data          0x00000000        0x0 CMakeFiles/dev_hid_mouse_bm.dir/home/laurie/RTES/KSDK_1.3.0/examples/frdmkl46z/demo_apps/usb/device/hid/hid_mouse/hardware_init.c.obj
 .bss           0x00000000        0x0 CMakeFiles/dev_hid_mouse_bm.dir/home/laurie/RTES/KSDK_1.3.0/examples/frdmkl46z/demo_apps/usb/device/hid/hid_mouse/hardware_init.c.obj
 .text          0x00000000        0x0 CMakeFiles/dev_hid_mouse_bm.dir/home/laurie/RTES/KSDK_1.3.0/examples/frdmkl46z/gpio_pins.c.obj
 .data          0x00000000        0x0 CMakeFiles/dev_hid_mouse_bm.dir/home/laurie/RTES/KSDK_1.3.0/examples/frdmkl46z/gpio_pins.c.obj
 .bss           0x00000000        0x0 CMakeFiles/dev_hid_mouse_bm.dir/home/laurie/RTES/KSDK_1.3.0/examples/frdmkl46z/gpio_pins.c.obj
 .data.switchPins
                0x00000000       0x18 CMakeFiles/dev_hid_mouse_bm.dir/home/laurie/RTES/KSDK_1.3.0/examples/frdmkl46z/gpio_pins.c.obj
 .data.ledPins  0x00000000       0x24 CMakeFiles/dev_hid_mouse_bm.dir/home/laurie/RTES/KSDK_1.3.0/examples/frdmkl46z/gpio_pins.c.obj
 .debug_info    0x00000000      0x29d CMakeFiles/dev_hid_mouse_bm.dir/home/laurie/RTES/KSDK_1.3.0/examples/frdmkl46z/gpio_pins.c.obj
 .debug_abbrev  0x00000000       0x95 CMakeFiles/dev_hid_mouse_bm.dir/home/laurie/RTES/KSDK_1.3.0/examples/frdmkl46z/gpio_pins.c.obj
 .debug_aranges
                0x00000000       0x18 CMakeFiles/dev_hid_mouse_bm.dir/home/laurie/RTES/KSDK_1.3.0/examples/frdmkl46z/gpio_pins.c.obj
 .debug_line    0x00000000      0x1f1 CMakeFiles/dev_hid_mouse_bm.dir/home/laurie/RTES/KSDK_1.3.0/examples/frdmkl46z/gpio_pins.c.obj
 .debug_str     0x00000000      0x4f0 CMakeFiles/dev_hid_mouse_bm.dir/home/laurie/RTES/KSDK_1.3.0/examples/frdmkl46z/gpio_pins.c.obj
 .comment       0x00000000       0x6f CMakeFiles/dev_hid_mouse_bm.dir/home/laurie/RTES/KSDK_1.3.0/examples/frdmkl46z/gpio_pins.c.obj
 .ARM.attributes
                0x00000000       0x32 CMakeFiles/dev_hid_mouse_bm.dir/home/laurie/RTES/KSDK_1.3.0/examples/frdmkl46z/gpio_pins.c.obj
 .text          0x00000000        0x0 CMakeFiles/dev_hid_mouse_bm.dir/home/laurie/RTES/KSDK_1.3.0/examples/frdmkl46z/pin_mux.c.obj
 .data          0x00000000        0x0 CMakeFiles/dev_hid_mouse_bm.dir/home/laurie/RTES/KSDK_1.3.0/examples/frdmkl46z/pin_mux.c.obj
 .bss           0x00000000        0x0 CMakeFiles/dev_hid_mouse_bm.dir/home/laurie/RTES/KSDK_1.3.0/examples/frdmkl46z/pin_mux.c.obj
 .text.PORT_HAL_SetPullMode
                0x00000000       0x4c CMakeFiles/dev_hid_mouse_bm.dir/home/laurie/RTES/KSDK_1.3.0/examples/frdmkl46z/pin_mux.c.obj
 .text.PORT_HAL_SetPullCmd
                0x00000000       0x4c CMakeFiles/dev_hid_mouse_bm.dir/home/laurie/RTES/KSDK_1.3.0/examples/frdmkl46z/pin_mux.c.obj
 .text.PORT_HAL_SetPassiveFilterCmd
                0x00000000       0x4c CMakeFiles/dev_hid_mouse_bm.dir/home/laurie/RTES/KSDK_1.3.0/examples/frdmkl46z/pin_mux.c.obj
 .text.configure_gpio_pins
                0x00000000       0x7c CMakeFiles/dev_hid_mouse_bm.dir/home/laurie/RTES/KSDK_1.3.0/examples/frdmkl46z/pin_mux.c.obj
 .text.configure_i2c_pins
                0x00000000       0xe8 CMakeFiles/dev_hid_mouse_bm.dir/home/laurie/RTES/KSDK_1.3.0/examples/frdmkl46z/pin_mux.c.obj
 .text.configure_rtc_pins
                0x00000000       0x20 CMakeFiles/dev_hid_mouse_bm.dir/home/laurie/RTES/KSDK_1.3.0/examples/frdmkl46z/pin_mux.c.obj
 .text.configure_uart_pins
                0x00000000       0x38 CMakeFiles/dev_hid_mouse_bm.dir/home/laurie/RTES/KSDK_1.3.0/examples/frdmkl46z/pin_mux.c.obj
 .text.configure_tsi_pins
                0x00000000       0x38 CMakeFiles/dev_hid_mouse_bm.dir/home/laurie/RTES/KSDK_1.3.0/examples/frdmkl46z/pin_mux.c.obj
 .text.configure_spi_pins
                0x00000000       0x88 CMakeFiles/dev_hid_mouse_bm.dir/home/laurie/RTES/KSDK_1.3.0/examples/frdmkl46z/pin_mux.c.obj
 .text.configure_tpm_pins
                0x00000000       0x2c CMakeFiles/dev_hid_mouse_bm.dir/home/laurie/RTES/KSDK_1.3.0/examples/frdmkl46z/pin_mux.c.obj
 .text.configure_cmp_pins
                0x00000000       0x2c CMakeFiles/dev_hid_mouse_bm.dir/home/laurie/RTES/KSDK_1.3.0/examples/frdmkl46z/pin_mux.c.obj
 .text.configure_i2s_pins
                0x00000000       0x6c CMakeFiles/dev_hid_mouse_bm.dir/home/laurie/RTES/KSDK_1.3.0/examples/frdmkl46z/pin_mux.c.obj
 .text.configure_lcd_pins
                0x00000000       0xb0 CMakeFiles/dev_hid_mouse_bm.dir/home/laurie/RTES/KSDK_1.3.0/examples/frdmkl46z/pin_mux.c.obj
 .text.configure_dac_pins
                0x00000000       0x2c CMakeFiles/dev_hid_mouse_bm.dir/home/laurie/RTES/KSDK_1.3.0/examples/frdmkl46z/pin_mux.c.obj
 .rodata.__func__.5095
                0x00000000       0x14 CMakeFiles/dev_hid_mouse_bm.dir/home/laurie/RTES/KSDK_1.3.0/examples/frdmkl46z/pin_mux.c.obj
 .rodata.__func__.5089
                0x00000000       0x15 CMakeFiles/dev_hid_mouse_bm.dir/home/laurie/RTES/KSDK_1.3.0/examples/frdmkl46z/pin_mux.c.obj
 .rodata.__func__.5107
                0x00000000       0x1d CMakeFiles/dev_hid_mouse_bm.dir/home/laurie/RTES/KSDK_1.3.0/examples/frdmkl46z/pin_mux.c.obj
 .text          0x00000000        0x0 CMakeFiles/dev_hid_mouse_bm.dir/home/laurie/RTES/KSDK_1.3.0/examples/frdmkl46z/board.c.obj
 .data          0x00000000        0x0 CMakeFiles/dev_hid_mouse_bm.dir/home/laurie/RTES/KSDK_1.3.0/examples/frdmkl46z/board.c.obj
 .bss           0x00000000        0x0 CMakeFiles/dev_hid_mouse_bm.dir/home/laurie/RTES/KSDK_1.3.0/examples/frdmkl46z/board.c.obj
 .rodata.g_defaultClockConfigVlpr
                0x00000000       0x14 CMakeFiles/dev_hid_mouse_bm.dir/home/laurie/RTES/KSDK_1.3.0/examples/frdmkl46z/board.c.obj
 .text.BOARD_InitRtcOsc
                0x00000000        0xc CMakeFiles/dev_hid_mouse_bm.dir/home/laurie/RTES/KSDK_1.3.0/examples/frdmkl46z/board.c.obj
 .text.usb_host_board_init
                0x00000000       0x34 CMakeFiles/dev_hid_mouse_bm.dir/home/laurie/RTES/KSDK_1.3.0/examples/frdmkl46z/board.c.obj
 .text          0x00000000        0x0 CMakeFiles/dev_hid_mouse_bm.dir/home/laurie/RTES/KSDK_1.3.0/platform/utilities/src/fsl_debug_console.c.obj
 .data          0x00000000        0x0 CMakeFiles/dev_hid_mouse_bm.dir/home/laurie/RTES/KSDK_1.3.0/platform/utilities/src/fsl_debug_console.c.obj
 .bss           0x00000000        0x0 CMakeFiles/dev_hid_mouse_bm.dir/home/laurie/RTES/KSDK_1.3.0/platform/utilities/src/fsl_debug_console.c.obj
 .text.DbgConsole_DeInit
                0x00000000       0x4c CMakeFiles/dev_hid_mouse_bm.dir/home/laurie/RTES/KSDK_1.3.0/platform/utilities/src/fsl_debug_console.c.obj
 .text.debug_putchar
                0x00000000       0x30 CMakeFiles/dev_hid_mouse_bm.dir/home/laurie/RTES/KSDK_1.3.0/platform/utilities/src/fsl_debug_console.c.obj
 .text.debug_scanf
                0x00000000       0xa8 CMakeFiles/dev_hid_mouse_bm.dir/home/laurie/RTES/KSDK_1.3.0/platform/utilities/src/fsl_debug_console.c.obj
 .text.debug_getchar
                0x00000000       0x34 CMakeFiles/dev_hid_mouse_bm.dir/home/laurie/RTES/KSDK_1.3.0/platform/utilities/src/fsl_debug_console.c.obj
 .text          0x00000000        0x0 CMakeFiles/dev_hid_mouse_bm.dir/home/laurie/RTES/KSDK_1.3.0/platform/utilities/src/print_scan.c.obj
 .data          0x00000000        0x0 CMakeFiles/dev_hid_mouse_bm.dir/home/laurie/RTES/KSDK_1.3.0/platform/utilities/src/print_scan.c.obj
 .bss           0x00000000        0x0 CMakeFiles/dev_hid_mouse_bm.dir/home/laurie/RTES/KSDK_1.3.0/platform/utilities/src/print_scan.c.obj
 .text._sputc   0x00000000       0x28 CMakeFiles/dev_hid_mouse_bm.dir/home/laurie/RTES/KSDK_1.3.0/platform/utilities/src/print_scan.c.obj
 .text.scan_prv
                0x00000000      0x758 CMakeFiles/dev_hid_mouse_bm.dir/home/laurie/RTES/KSDK_1.3.0/platform/utilities/src/print_scan.c.obj
 .rodata.scan_prv
                0x00000000      0x13c CMakeFiles/dev_hid_mouse_bm.dir/home/laurie/RTES/KSDK_1.3.0/platform/utilities/src/print_scan.c.obj
 .text.scan_ignore_white_space
                0x00000000       0x8c CMakeFiles/dev_hid_mouse_bm.dir/home/laurie/RTES/KSDK_1.3.0/platform/utilities/src/print_scan.c.obj
 .text          0x00000000        0x0 CMakeFiles/dev_hid_mouse_bm.dir/home/laurie/RTES/KSDK_1.3.0/platform/devices/MKL46Z4/startup/system_MKL46Z4.c.obj
 .data          0x00000000        0x0 CMakeFiles/dev_hid_mouse_bm.dir/home/laurie/RTES/KSDK_1.3.0/platform/devices/MKL46Z4/startup/system_MKL46Z4.c.obj
 .bss           0x00000000        0x0 CMakeFiles/dev_hid_mouse_bm.dir/home/laurie/RTES/KSDK_1.3.0/platform/devices/MKL46Z4/startup/system_MKL46Z4.c.obj
 .text.SystemCoreClockUpdate
                0x00000000      0x240 CMakeFiles/dev_hid_mouse_bm.dir/home/laurie/RTES/KSDK_1.3.0/platform/devices/MKL46Z4/startup/system_MKL46Z4.c.obj
 .text          0x00000000        0x0 CMakeFiles/dev_hid_mouse_bm.dir/home/laurie/RTES/KSDK_1.3.0/platform/devices/startup.c.obj
 .data          0x00000000        0x0 CMakeFiles/dev_hid_mouse_bm.dir/home/laurie/RTES/KSDK_1.3.0/platform/devices/startup.c.obj
 .bss           0x00000000        0x0 CMakeFiles/dev_hid_mouse_bm.dir/home/laurie/RTES/KSDK_1.3.0/platform/devices/startup.c.obj
 .text          0x00000000        0x0 ../../../../../../../../../usb/usb_core/device/lib/bm/armgcc/MKL46Z4/debug/libusbd_bm.a(adapter_sdk.c.obj)
 .data          0x00000000        0x0 ../../../../../../../../../usb/usb_core/device/lib/bm/armgcc/MKL46Z4/debug/libusbd_bm.a(adapter_sdk.c.obj)
 .bss           0x00000000        0x0 ../../../../../../../../../usb/usb_core/device/lib/bm/armgcc/MKL46Z4/debug/libusbd_bm.a(adapter_sdk.c.obj)
 .text.OS_Gpio_init
                0x00000000       0x1c ../../../../../../../../../usb/usb_core/device/lib/bm/armgcc/MKL46Z4/debug/libusbd_bm.a(adapter_sdk.c.obj)
 .text.OS_Gpio_set_functionality
                0x00000000       0x14 ../../../../../../../../../usb/usb_core/device/lib/bm/armgcc/MKL46Z4/debug/libusbd_bm.a(adapter_sdk.c.obj)
 .text.OS_Gpio_set_value
                0x00000000       0x14 ../../../../../../../../../usb/usb_core/device/lib/bm/armgcc/MKL46Z4/debug/libusbd_bm.a(adapter_sdk.c.obj)
 .text.OS_Gpio_deinit
                0x00000000       0x14 ../../../../../../../../../usb/usb_core/device/lib/bm/armgcc/MKL46Z4/debug/libusbd_bm.a(adapter_sdk.c.obj)
 .text.OS_Task_delete
                0x00000000       0x24 ../../../../../../../../../usb/usb_core/device/lib/bm/armgcc/MKL46Z4/debug/libusbd_bm.a(adapter_sdk.c.obj)
 .text.OS_Event_create
                0x00000000       0x4c ../../../../../../../../../usb/usb_core/device/lib/bm/armgcc/MKL46Z4/debug/libusbd_bm.a(adapter_sdk.c.obj)
 .text.OS_Event_destroy
                0x00000000       0x30 ../../../../../../../../../usb/usb_core/device/lib/bm/armgcc/MKL46Z4/debug/libusbd_bm.a(adapter_sdk.c.obj)
 .text.OS_MsgQ_create
                0x00000000       0x68 ../../../../../../../../../usb/usb_core/device/lib/bm/armgcc/MKL46Z4/debug/libusbd_bm.a(adapter_sdk.c.obj)
 .text.OS_MsgQ_destroy
                0x00000000       0x2c ../../../../../../../../../usb/usb_core/device/lib/bm/armgcc/MKL46Z4/debug/libusbd_bm.a(adapter_sdk.c.obj)
 .text.OS_Sem_create
                0x00000000       0x44 ../../../../../../../../../usb/usb_core/device/lib/bm/armgcc/MKL46Z4/debug/libusbd_bm.a(adapter_sdk.c.obj)
 .text.OS_Sem_destroy
                0x00000000       0x2c ../../../../../../../../../usb/usb_core/device/lib/bm/armgcc/MKL46Z4/debug/libusbd_bm.a(adapter_sdk.c.obj)
 .text.OS_Event_check_bit
                0x00000000       0x24 ../../../../../../../../../usb/usb_core/device/lib/bm/armgcc/MKL46Z4/debug/libusbd_bm.a(adapter_sdk.c.obj)
 .text.OS_Event_set
                0x00000000       0x2c ../../../../../../../../../usb/usb_core/device/lib/bm/armgcc/MKL46Z4/debug/libusbd_bm.a(adapter_sdk.c.obj)
 .text.OS_Event_clear
                0x00000000       0x2c ../../../../../../../../../usb/usb_core/device/lib/bm/armgcc/MKL46Z4/debug/libusbd_bm.a(adapter_sdk.c.obj)
 .text.OS_Event_wait
                0x00000000       0x78 ../../../../../../../../../usb/usb_core/device/lib/bm/armgcc/MKL46Z4/debug/libusbd_bm.a(adapter_sdk.c.obj)
 .text.OS_Sem_post
                0x00000000       0x24 ../../../../../../../../../usb/usb_core/device/lib/bm/armgcc/MKL46Z4/debug/libusbd_bm.a(adapter_sdk.c.obj)
 .text.OS_Sem_wait
                0x00000000       0x60 ../../../../../../../../../usb/usb_core/device/lib/bm/armgcc/MKL46Z4/debug/libusbd_bm.a(adapter_sdk.c.obj)
 .text.OS_MsgQ_recv
                0x00000000       0x6c ../../../../../../../../../usb/usb_core/device/lib/bm/armgcc/MKL46Z4/debug/libusbd_bm.a(adapter_sdk.c.obj)
 .text.OS_MsgQ_send
                0x00000000       0x2c ../../../../../../../../../usb/usb_core/device/lib/bm/armgcc/MKL46Z4/debug/libusbd_bm.a(adapter_sdk.c.obj)
 .text.OS_MsgQ_Is_Empty
                0x00000000       0x28 ../../../../../../../../../usb/usb_core/device/lib/bm/armgcc/MKL46Z4/debug/libusbd_bm.a(adapter_sdk.c.obj)
 .text          0x00000000        0x0 ../../../../../../../../../usb/usb_core/device/lib/bm/armgcc/MKL46Z4/debug/libusbd_bm.a(usb_class.c.obj)
 .data          0x00000000        0x0 ../../../../../../../../../usb/usb_core/device/lib/bm/armgcc/MKL46Z4/debug/libusbd_bm.a(usb_class.c.obj)
 .bss           0x00000000        0x0 ../../../../../../../../../usb/usb_core/device/lib/bm/armgcc/MKL46Z4/debug/libusbd_bm.a(usb_class.c.obj)
 .text.USB_Class_Free_Handle
                0x00000000       0x70 ../../../../../../../../../usb/usb_core/device/lib/bm/armgcc/MKL46Z4/debug/libusbd_bm.a(usb_class.c.obj)
 .text.USB_Class_Deinit
                0x00000000       0x24 ../../../../../../../../../usb/usb_core/device/lib/bm/armgcc/MKL46Z4/debug/libusbd_bm.a(usb_class.c.obj)
 .text.USB_Class_Periodic_Task
                0x00000000        0xc ../../../../../../../../../usb/usb_core/device/lib/bm/armgcc/MKL46Z4/debug/libusbd_bm.a(usb_class.c.obj)
 .text          0x00000000        0x0 ../../../../../../../../../usb/usb_core/device/lib/bm/armgcc/MKL46Z4/debug/libusbd_bm.a(usb_hid.c.obj)
 .data          0x00000000        0x0 ../../../../../../../../../usb/usb_core/device/lib/bm/armgcc/MKL46Z4/debug/libusbd_bm.a(usb_hid.c.obj)
 .bss           0x00000000        0x0 ../../../../../../../../../usb/usb_core/device/lib/bm/armgcc/MKL46Z4/debug/libusbd_bm.a(usb_hid.c.obj)
 .text.USB_Class_HID_Deinit
                0x00000000       0x7c ../../../../../../../../../usb/usb_core/device/lib/bm/armgcc/MKL46Z4/debug/libusbd_bm.a(usb_hid.c.obj)
 .text.USB_Class_HID_Cancel
                0x00000000       0x5c ../../../../../../../../../usb/usb_core/device/lib/bm/armgcc/MKL46Z4/debug/libusbd_bm.a(usb_hid.c.obj)
 .text.USB_Class_HID_Recv_Data
                0x00000000       0x5c ../../../../../../../../../usb/usb_core/device/lib/bm/armgcc/MKL46Z4/debug/libusbd_bm.a(usb_hid.c.obj)
 .text          0x00000000        0x0 ../../../../../../../../../usb/usb_core/device/lib/bm/armgcc/MKL46Z4/debug/libusbd_bm.a(usb_dev.c.obj)
 .data          0x00000000        0x0 ../../../../../../../../../usb/usb_core/device/lib/bm/armgcc/MKL46Z4/debug/libusbd_bm.a(usb_dev.c.obj)
 .bss           0x00000000        0x0 ../../../../../../../../../usb/usb_core/device/lib/bm/armgcc/MKL46Z4/debug/libusbd_bm.a(usb_dev.c.obj)
 .text._usb_device_shutdown
                0x00000000       0x44 ../../../../../../../../../usb/usb_core/device/lib/bm/armgcc/MKL46Z4/debug/libusbd_bm.a(usb_dev.c.obj)
 .text.usb_device_deinit
                0x00000000       0x48 ../../../../../../../../../usb/usb_core/device/lib/bm/armgcc/MKL46Z4/debug/libusbd_bm.a(usb_dev.c.obj)
 .text.usb_device_unregister_service
                0x00000000       0x94 ../../../../../../../../../usb/usb_core/device/lib/bm/armgcc/MKL46Z4/debug/libusbd_bm.a(usb_dev.c.obj)
 .text.usb_device_deinit_endpoint
                0x00000000       0x8c ../../../../../../../../../usb/usb_core/device/lib/bm/armgcc/MKL46Z4/debug/libusbd_bm.a(usb_dev.c.obj)
 .text.usb_device_cancel_transfer
                0x00000000       0xa4 ../../../../../../../../../usb/usb_core/device/lib/bm/armgcc/MKL46Z4/debug/libusbd_bm.a(usb_dev.c.obj)
 .text          0x00000000        0x0 ../../../../../../../../../usb/usb_core/device/lib/bm/armgcc/MKL46Z4/debug/libusbd_bm.a(usb_framework.c.obj)
 .data          0x00000000        0x0 ../../../../../../../../../usb/usb_core/device/lib/bm/armgcc/MKL46Z4/debug/libusbd_bm.a(usb_framework.c.obj)
 .bss           0x00000000        0x0 ../../../../../../../../../usb/usb_core/device/lib/bm/armgcc/MKL46Z4/debug/libusbd_bm.a(usb_framework.c.obj)
 .text.USB_Framework_Reset
                0x00000000       0x14 ../../../../../../../../../usb/usb_core/device/lib/bm/armgcc/MKL46Z4/debug/libusbd_bm.a(usb_framework.c.obj)
 .text          0x00000000        0x0 ../../../../../../../../../usb/usb_core/device/lib/bm/armgcc/MKL46Z4/debug/libusbd_bm.a(device_khci_interface.c.obj)
 .data          0x00000000        0x0 ../../../../../../../../../usb/usb_core/device/lib/bm/armgcc/MKL46Z4/debug/libusbd_bm.a(device_khci_interface.c.obj)
 .bss           0x00000000        0x0 ../../../../../../../../../usb/usb_core/device/lib/bm/armgcc/MKL46Z4/debug/libusbd_bm.a(device_khci_interface.c.obj)
 .text          0x00000000        0x0 ../../../../../../../../../usb/usb_core/device/lib/bm/armgcc/MKL46Z4/debug/libusbd_bm.a(khci_dev.c.obj)
 .data          0x00000000        0x0 ../../../../../../../../../usb/usb_core/device/lib/bm/armgcc/MKL46Z4/debug/libusbd_bm.a(khci_dev.c.obj)
 .bss           0x00000000        0x0 ../../../../../../../../../usb/usb_core/device/lib/bm/armgcc/MKL46Z4/debug/libusbd_bm.a(khci_dev.c.obj)
 .text          0x00000000        0x0 ../../../../../../../../../usb/usb_core/device/lib/bm/armgcc/MKL46Z4/debug/libusbd_bm.a(usb_dev_bsp.c.obj)
 .data          0x00000000        0x0 ../../../../../../../../../usb/usb_core/device/lib/bm/armgcc/MKL46Z4/debug/libusbd_bm.a(usb_dev_bsp.c.obj)
 .bss           0x00000000        0x0 ../../../../../../../../../usb/usb_core/device/lib/bm/armgcc/MKL46Z4/debug/libusbd_bm.a(usb_dev_bsp.c.obj)
 .text          0x00000000        0x0 ../../../../../../../../../lib/ksdk_platform_lib/armgcc/KL46Z4/debug/libksdk_platform.a(fsl_os_abstraction_bm.c.obj)
 .data          0x00000000        0x0 ../../../../../../../../../lib/ksdk_platform_lib/armgcc/KL46Z4/debug/libksdk_platform.a(fsl_os_abstraction_bm.c.obj)
 .bss           0x00000000        0x0 ../../../../../../../../../lib/ksdk_platform_lib/armgcc/KL46Z4/debug/libksdk_platform.a(fsl_os_abstraction_bm.c.obj)
 .text.OSA_SemaCreate
                0x00000000       0x50 ../../../../../../../../../lib/ksdk_platform_lib/armgcc/KL46Z4/debug/libksdk_platform.a(fsl_os_abstraction_bm.c.obj)
 .text.OSA_SemaWait
                0x00000000       0xc8 ../../../../../../../../../lib/ksdk_platform_lib/armgcc/KL46Z4/debug/libksdk_platform.a(fsl_os_abstraction_bm.c.obj)
 .text.OSA_SemaPost
                0x00000000       0x54 ../../../../../../../../../lib/ksdk_platform_lib/armgcc/KL46Z4/debug/libksdk_platform.a(fsl_os_abstraction_bm.c.obj)
 .text.OSA_SemaDestroy
                0x00000000       0x30 ../../../../../../../../../lib/ksdk_platform_lib/armgcc/KL46Z4/debug/libksdk_platform.a(fsl_os_abstraction_bm.c.obj)
 .text.OSA_EventCreate
                0x00000000       0x5c ../../../../../../../../../lib/ksdk_platform_lib/armgcc/KL46Z4/debug/libksdk_platform.a(fsl_os_abstraction_bm.c.obj)
 .text.OSA_EventWait
                0x00000000      0x128 ../../../../../../../../../lib/ksdk_platform_lib/armgcc/KL46Z4/debug/libksdk_platform.a(fsl_os_abstraction_bm.c.obj)
 .text.OSA_EventGetFlags
                0x00000000       0x38 ../../../../../../../../../lib/ksdk_platform_lib/armgcc/KL46Z4/debug/libksdk_platform.a(fsl_os_abstraction_bm.c.obj)
 .text.OSA_EventSet
                0x00000000       0x4c ../../../../../../../../../lib/ksdk_platform_lib/armgcc/KL46Z4/debug/libksdk_platform.a(fsl_os_abstraction_bm.c.obj)
 .text.OSA_EventClear
                0x00000000       0x50 ../../../../../../../../../lib/ksdk_platform_lib/armgcc/KL46Z4/debug/libksdk_platform.a(fsl_os_abstraction_bm.c.obj)
 .text.OSA_EventDestroy
                0x00000000       0x34 ../../../../../../../../../lib/ksdk_platform_lib/armgcc/KL46Z4/debug/libksdk_platform.a(fsl_os_abstraction_bm.c.obj)
 .text.OSA_TaskDestroy
                0x00000000       0x78 ../../../../../../../../../lib/ksdk_platform_lib/armgcc/KL46Z4/debug/libksdk_platform.a(fsl_os_abstraction_bm.c.obj)
 .text.OSA_TaskYield
                0x00000000        0xc ../../../../../../../../../lib/ksdk_platform_lib/armgcc/KL46Z4/debug/libksdk_platform.a(fsl_os_abstraction_bm.c.obj)
 .text.OSA_TaskGetHandler
                0x00000000       0x14 ../../../../../../../../../lib/ksdk_platform_lib/armgcc/KL46Z4/debug/libksdk_platform.a(fsl_os_abstraction_bm.c.obj)
 .text.OSA_TaskGetPriority
                0x00000000       0x14 ../../../../../../../../../lib/ksdk_platform_lib/armgcc/KL46Z4/debug/libksdk_platform.a(fsl_os_abstraction_bm.c.obj)
 .text.OSA_TaskSetPriority
                0x00000000       0x18 ../../../../../../../../../lib/ksdk_platform_lib/armgcc/KL46Z4/debug/libksdk_platform.a(fsl_os_abstraction_bm.c.obj)
 .text.OSA_MsgQCreate
                0x00000000       0x7c ../../../../../../../../../lib/ksdk_platform_lib/armgcc/KL46Z4/debug/libksdk_platform.a(fsl_os_abstraction_bm.c.obj)
 .text.OSA_MsgQPut
                0x00000000       0xdc ../../../../../../../../../lib/ksdk_platform_lib/armgcc/KL46Z4/debug/libksdk_platform.a(fsl_os_abstraction_bm.c.obj)
 .text.OSA_MsgQGet
                0x00000000      0x104 ../../../../../../../../../lib/ksdk_platform_lib/armgcc/KL46Z4/debug/libksdk_platform.a(fsl_os_abstraction_bm.c.obj)
 .text.OSA_MsgQDestroy
                0x00000000       0x40 ../../../../../../../../../lib/ksdk_platform_lib/armgcc/KL46Z4/debug/libksdk_platform.a(fsl_os_abstraction_bm.c.obj)
 .text.OSA_MemAlloc
                0x00000000       0x1c ../../../../../../../../../lib/ksdk_platform_lib/armgcc/KL46Z4/debug/libksdk_platform.a(fsl_os_abstraction_bm.c.obj)
 .text.OSA_TimeDelay
                0x00000000       0x34 ../../../../../../../../../lib/ksdk_platform_lib/armgcc/KL46Z4/debug/libksdk_platform.a(fsl_os_abstraction_bm.c.obj)
 .text.OSA_PollAllOtherTasks
                0x00000000       0x5c ../../../../../../../../../lib/ksdk_platform_lib/armgcc/KL46Z4/debug/libksdk_platform.a(fsl_os_abstraction_bm.c.obj)
 .rodata.__func__.6631
                0x00000000        0xf ../../../../../../../../../lib/ksdk_platform_lib/armgcc/KL46Z4/debug/libksdk_platform.a(fsl_os_abstraction_bm.c.obj)
 .rodata.__func__.6637
                0x00000000        0xd ../../../../../../../../../lib/ksdk_platform_lib/armgcc/KL46Z4/debug/libksdk_platform.a(fsl_os_abstraction_bm.c.obj)
 .rodata.__func__.6641
                0x00000000        0xd ../../../../../../../../../lib/ksdk_platform_lib/armgcc/KL46Z4/debug/libksdk_platform.a(fsl_os_abstraction_bm.c.obj)
 .rodata.__func__.6645
                0x00000000       0x10 ../../../../../../../../../lib/ksdk_platform_lib/armgcc/KL46Z4/debug/libksdk_platform.a(fsl_os_abstraction_bm.c.obj)
 .rodata.__func__.6668
                0x00000000       0x10 ../../../../../../../../../lib/ksdk_platform_lib/armgcc/KL46Z4/debug/libksdk_platform.a(fsl_os_abstraction_bm.c.obj)
 .rodata.__func__.6677
                0x00000000        0xe ../../../../../../../../../lib/ksdk_platform_lib/armgcc/KL46Z4/debug/libksdk_platform.a(fsl_os_abstraction_bm.c.obj)
 .rodata.__func__.6682
                0x00000000       0x12 ../../../../../../../../../lib/ksdk_platform_lib/armgcc/KL46Z4/debug/libksdk_platform.a(fsl_os_abstraction_bm.c.obj)
 .rodata.__func__.6687
                0x00000000        0xd ../../../../../../../../../lib/ksdk_platform_lib/armgcc/KL46Z4/debug/libksdk_platform.a(fsl_os_abstraction_bm.c.obj)
 .rodata.__func__.6692
                0x00000000        0xf ../../../../../../../../../lib/ksdk_platform_lib/armgcc/KL46Z4/debug/libksdk_platform.a(fsl_os_abstraction_bm.c.obj)
 .rodata.__func__.6696
                0x00000000       0x11 ../../../../../../../../../lib/ksdk_platform_lib/armgcc/KL46Z4/debug/libksdk_platform.a(fsl_os_abstraction_bm.c.obj)
 .rodata.__func__.6723
                0x00000000       0x10 ../../../../../../../../../lib/ksdk_platform_lib/armgcc/KL46Z4/debug/libksdk_platform.a(fsl_os_abstraction_bm.c.obj)
 .rodata.__func__.6742
                0x00000000        0xf ../../../../../../../../../lib/ksdk_platform_lib/armgcc/KL46Z4/debug/libksdk_platform.a(fsl_os_abstraction_bm.c.obj)
 .rodata.__func__.6747
                0x00000000        0xc ../../../../../../../../../lib/ksdk_platform_lib/armgcc/KL46Z4/debug/libksdk_platform.a(fsl_os_abstraction_bm.c.obj)
 .rodata.__func__.6759
                0x00000000        0xc ../../../../../../../../../lib/ksdk_platform_lib/armgcc/KL46Z4/debug/libksdk_platform.a(fsl_os_abstraction_bm.c.obj)
 .rodata.__func__.6770
                0x00000000       0x10 ../../../../../../../../../lib/ksdk_platform_lib/armgcc/KL46Z4/debug/libksdk_platform.a(fsl_os_abstraction_bm.c.obj)
 .text          0x00000000        0x0 ../../../../../../../../../lib/ksdk_platform_lib/armgcc/KL46Z4/debug/libksdk_platform.a(fsl_clock_manager.c.obj)
 .data          0x00000000        0x0 ../../../../../../../../../lib/ksdk_platform_lib/armgcc/KL46Z4/debug/libksdk_platform.a(fsl_clock_manager.c.obj)
 .bss           0x00000000        0x0 ../../../../../../../../../lib/ksdk_platform_lib/armgcc/KL46Z4/debug/libksdk_platform.a(fsl_clock_manager.c.obj)
 .text.SIM_HAL_EnableClock
                0x00000000       0x5c ../../../../../../../../../lib/ksdk_platform_lib/armgcc/KL46Z4/debug/libksdk_platform.a(fsl_clock_manager.c.obj)
 .text.CLOCK_HAL_SetLowPowerModeCmd
                0x00000000       0x30 ../../../../../../../../../lib/ksdk_platform_lib/armgcc/KL46Z4/debug/libksdk_platform.a(fsl_clock_manager.c.obj)
 .text.CLOCK_HAL_SetInternalRefClkEnableCmd
                0x00000000       0x2c ../../../../../../../../../lib/ksdk_platform_lib/armgcc/KL46Z4/debug/libksdk_platform.a(fsl_clock_manager.c.obj)
 .text.CLOCK_HAL_SetInternalRefClkEnableInStopCmd
                0x00000000       0x28 ../../../../../../../../../lib/ksdk_platform_lib/armgcc/KL46Z4/debug/libksdk_platform.a(fsl_clock_manager.c.obj)
 .text.CLOCK_HAL_SetInternalRefClkMode
                0x00000000       0x2c ../../../../../../../../../lib/ksdk_platform_lib/armgcc/KL46Z4/debug/libksdk_platform.a(fsl_clock_manager.c.obj)
 .text.CLOCK_HAL_GetInternalRefClkMode
                0x00000000       0x20 ../../../../../../../../../lib/ksdk_platform_lib/armgcc/KL46Z4/debug/libksdk_platform.a(fsl_clock_manager.c.obj)
 .text.CLOCK_HAL_SetPll0EnableCmd
                0x00000000       0x30 ../../../../../../../../../lib/ksdk_platform_lib/armgcc/KL46Z4/debug/libksdk_platform.a(fsl_clock_manager.c.obj)
 .text.CLOCK_SYS_EnableRtcClock
                0x00000000       0x20 ../../../../../../../../../lib/ksdk_platform_lib/armgcc/KL46Z4/debug/libksdk_platform.a(fsl_clock_manager.c.obj)
 .text.RTC_HAL_SetOsc2pfLoadCmd
                0x00000000       0x2c ../../../../../../../../../lib/ksdk_platform_lib/armgcc/KL46Z4/debug/libksdk_platform.a(fsl_clock_manager.c.obj)
 .text.RTC_HAL_SetOsc4pfLoadCmd
                0x00000000       0x2c ../../../../../../../../../lib/ksdk_platform_lib/armgcc/KL46Z4/debug/libksdk_platform.a(fsl_clock_manager.c.obj)
 .text.RTC_HAL_SetOsc8pfLoadCmd
                0x00000000       0x2c ../../../../../../../../../lib/ksdk_platform_lib/armgcc/KL46Z4/debug/libksdk_platform.a(fsl_clock_manager.c.obj)
 .text.RTC_HAL_SetOsc16pfLoadCmd
                0x00000000       0x2c ../../../../../../../../../lib/ksdk_platform_lib/armgcc/KL46Z4/debug/libksdk_platform.a(fsl_clock_manager.c.obj)
 .text.RTC_HAL_SetOscillatorCmd
                0x00000000       0x2c ../../../../../../../../../lib/ksdk_platform_lib/armgcc/KL46Z4/debug/libksdk_platform.a(fsl_clock_manager.c.obj)
 .text.RTC_HAL_IsOscillatorEnabled
                0x00000000       0x24 ../../../../../../../../../lib/ksdk_platform_lib/armgcc/KL46Z4/debug/libksdk_platform.a(fsl_clock_manager.c.obj)
 .bss.g_clockState
                0x00000000       0x10 ../../../../../../../../../lib/ksdk_platform_lib/armgcc/KL46Z4/debug/libksdk_platform.a(fsl_clock_manager.c.obj)
 .text.CLOCK_SYS_GetSystickFreq
                0x00000000       0x28 ../../../../../../../../../lib/ksdk_platform_lib/armgcc/KL46Z4/debug/libksdk_platform.a(fsl_clock_manager.c.obj)
 .text.CLOCK_SYS_Init
                0x00000000       0x8c ../../../../../../../../../lib/ksdk_platform_lib/armgcc/KL46Z4/debug/libksdk_platform.a(fsl_clock_manager.c.obj)
 .text.CLOCK_SYS_UpdateConfiguration
                0x00000000      0x1ec ../../../../../../../../../lib/ksdk_platform_lib/armgcc/KL46Z4/debug/libksdk_platform.a(fsl_clock_manager.c.obj)
 .text.CLOCK_SYS_GetCurrentConfiguration
                0x00000000       0x14 ../../../../../../../../../lib/ksdk_platform_lib/armgcc/KL46Z4/debug/libksdk_platform.a(fsl_clock_manager.c.obj)
 .text.CLOCK_SYS_GetErrorCallback
                0x00000000       0x2c ../../../../../../../../../lib/ksdk_platform_lib/armgcc/KL46Z4/debug/libksdk_platform.a(fsl_clock_manager.c.obj)
 .text.CLOCK_SYS_FllStableDelay
                0x00000000       0x24 ../../../../../../../../../lib/ksdk_platform_lib/armgcc/KL46Z4/debug/libksdk_platform.a(fsl_clock_manager.c.obj)
 .text.CLOCK_SYS_BootToFee
                0x00000000       0x98 ../../../../../../../../../lib/ksdk_platform_lib/armgcc/KL46Z4/debug/libksdk_platform.a(fsl_clock_manager.c.obj)
 .text.CLOCK_SYS_BootToFei
                0x00000000       0x7c ../../../../../../../../../lib/ksdk_platform_lib/armgcc/KL46Z4/debug/libksdk_platform.a(fsl_clock_manager.c.obj)
 .text.CLOCK_SYS_BootToBlpi
                0x00000000       0x74 ../../../../../../../../../lib/ksdk_platform_lib/armgcc/KL46Z4/debug/libksdk_platform.a(fsl_clock_manager.c.obj)
 .text.CLOCK_SYS_BootToBlpe
                0x00000000       0x70 ../../../../../../../../../lib/ksdk_platform_lib/armgcc/KL46Z4/debug/libksdk_platform.a(fsl_clock_manager.c.obj)
 .rodata.mcgModeMatrix
                0x00000000       0x40 ../../../../../../../../../lib/ksdk_platform_lib/armgcc/KL46Z4/debug/libksdk_platform.a(fsl_clock_manager.c.obj)
 .text.CLOCK_SYS_McgModeToIdx
                0x00000000       0x68 ../../../../../../../../../lib/ksdk_platform_lib/armgcc/KL46Z4/debug/libksdk_platform.a(fsl_clock_manager.c.obj)
 .text.CLOCK_SYS_SetMcgMode
                0x00000000      0x21c ../../../../../../../../../lib/ksdk_platform_lib/armgcc/KL46Z4/debug/libksdk_platform.a(fsl_clock_manager.c.obj)
 .rodata.CLOCK_SYS_SetMcgMode
                0x00000000       0x20 ../../../../../../../../../lib/ksdk_platform_lib/armgcc/KL46Z4/debug/libksdk_platform.a(fsl_clock_manager.c.obj)
 .text.CLOCK_SYS_OscDeinit
                0x00000000       0x70 ../../../../../../../../../lib/ksdk_platform_lib/armgcc/KL46Z4/debug/libksdk_platform.a(fsl_clock_manager.c.obj)
 .text.CLOCK_SYS_RtcOscInit
                0x00000000       0xb4 ../../../../../../../../../lib/ksdk_platform_lib/armgcc/KL46Z4/debug/libksdk_platform.a(fsl_clock_manager.c.obj)
 .text.CLOCK_SYS_RtcOscDeinit
                0x00000000       0x4c ../../../../../../../../../lib/ksdk_platform_lib/armgcc/KL46Z4/debug/libksdk_platform.a(fsl_clock_manager.c.obj)
 .rodata.__func__.6680
                0x00000000        0xf ../../../../../../../../../lib/ksdk_platform_lib/armgcc/KL46Z4/debug/libksdk_platform.a(fsl_clock_manager.c.obj)
 .rodata.__func__.6756
                0x00000000       0x17 ../../../../../../../../../lib/ksdk_platform_lib/armgcc/KL46Z4/debug/libksdk_platform.a(fsl_clock_manager.c.obj)
 .rodata.__func__.6797
                0x00000000       0x14 ../../../../../../../../../lib/ksdk_platform_lib/armgcc/KL46Z4/debug/libksdk_platform.a(fsl_clock_manager.c.obj)
 .rodata.__func__.6806
                0x00000000       0x15 ../../../../../../../../../lib/ksdk_platform_lib/armgcc/KL46Z4/debug/libksdk_platform.a(fsl_clock_manager.c.obj)
 .rodata.__func__.6810
                0x00000000       0x17 ../../../../../../../../../lib/ksdk_platform_lib/armgcc/KL46Z4/debug/libksdk_platform.a(fsl_clock_manager.c.obj)
 .text          0x00000000        0x0 ../../../../../../../../../lib/ksdk_platform_lib/armgcc/KL46Z4/debug/libksdk_platform.a(fsl_clock_manager_common.c.obj)
 .data          0x00000000        0x0 ../../../../../../../../../lib/ksdk_platform_lib/armgcc/KL46Z4/debug/libksdk_platform.a(fsl_clock_manager_common.c.obj)
 .bss           0x00000000        0x0 ../../../../../../../../../lib/ksdk_platform_lib/armgcc/KL46Z4/debug/libksdk_platform.a(fsl_clock_manager_common.c.obj)
 .rodata.g_simBase
                0x00000000        0x4 ../../../../../../../../../lib/ksdk_platform_lib/armgcc/KL46Z4/debug/libksdk_platform.a(fsl_clock_manager_common.c.obj)
 .rodata.g_mcgBase
                0x00000000        0x4 ../../../../../../../../../lib/ksdk_platform_lib/armgcc/KL46Z4/debug/libksdk_platform.a(fsl_clock_manager_common.c.obj)
 .text          0x00000000        0x0 ../../../../../../../../../lib/ksdk_platform_lib/armgcc/KL46Z4/debug/libksdk_platform.a(fsl_clock_MKL46Z4.c.obj)
 .data          0x00000000        0x0 ../../../../../../../../../lib/ksdk_platform_lib/armgcc/KL46Z4/debug/libksdk_platform.a(fsl_clock_MKL46Z4.c.obj)
 .bss           0x00000000        0x0 ../../../../../../../../../lib/ksdk_platform_lib/armgcc/KL46Z4/debug/libksdk_platform.a(fsl_clock_MKL46Z4.c.obj)
 .text.SIM_HAL_DisableClock
                0x00000000       0x50 ../../../../../../../../../lib/ksdk_platform_lib/armgcc/KL46Z4/debug/libksdk_platform.a(fsl_clock_MKL46Z4.c.obj)
 .text.SIM_HAL_GetGateCmd
                0x00000000       0x54 ../../../../../../../../../lib/ksdk_platform_lib/armgcc/KL46Z4/debug/libksdk_platform.a(fsl_clock_MKL46Z4.c.obj)
 .text.CLOCK_HAL_GetTpmSrc
                0x00000000       0x2c ../../../../../../../../../lib/ksdk_platform_lib/armgcc/KL46Z4/debug/libksdk_platform.a(fsl_clock_MKL46Z4.c.obj)
 .text.CLOCK_HAL_GetExternalRefClock32kSrc
                0x00000000       0x20 ../../../../../../../../../lib/ksdk_platform_lib/armgcc/KL46Z4/debug/libksdk_platform.a(fsl_clock_MKL46Z4.c.obj)
 .text.CLOCK_HAL_GetRtcClkOutSel
                0x00000000       0x28 ../../../../../../../../../lib/ksdk_platform_lib/armgcc/KL46Z4/debug/libksdk_platform.a(fsl_clock_MKL46Z4.c.obj)
 .text.CLOCK_SYS_GetLpoClockFreq
                0x00000000       0x10 ../../../../../../../../../lib/ksdk_platform_lib/armgcc/KL46Z4/debug/libksdk_platform.a(fsl_clock_MKL46Z4.c.obj)
 .text.CLOCK_SYS_GetFixedFreqClockFreq
                0x00000000       0x18 ../../../../../../../../../lib/ksdk_platform_lib/armgcc/KL46Z4/debug/libksdk_platform.a(fsl_clock_MKL46Z4.c.obj)
 .text.CLOCK_SYS_GetRtcOutSrc
                0x00000000       0x18 ../../../../../../../../../lib/ksdk_platform_lib/armgcc/KL46Z4/debug/libksdk_platform.a(fsl_clock_MKL46Z4.c.obj)
 .text.CLOCK_SYS_GetTpmExternalSrc
                0x00000000       0x24 ../../../../../../../../../lib/ksdk_platform_lib/armgcc/KL46Z4/debug/libksdk_platform.a(fsl_clock_MKL46Z4.c.obj)
 .bss.g_tpmClkFreq
                0x00000000        0x8 ../../../../../../../../../lib/ksdk_platform_lib/armgcc/KL46Z4/debug/libksdk_platform.a(fsl_clock_MKL46Z4.c.obj)
 .text.CLOCK_SYS_SetConfiguration
                0x00000000       0x70 ../../../../../../../../../lib/ksdk_platform_lib/armgcc/KL46Z4/debug/libksdk_platform.a(fsl_clock_MKL46Z4.c.obj)
 .text.CLOCK_SYS_GetFreq
                0x00000000       0xfc ../../../../../../../../../lib/ksdk_platform_lib/armgcc/KL46Z4/debug/libksdk_platform.a(fsl_clock_MKL46Z4.c.obj)
 .rodata.CLOCK_SYS_GetFreq
                0x00000000       0x58 ../../../../../../../../../lib/ksdk_platform_lib/armgcc/KL46Z4/debug/libksdk_platform.a(fsl_clock_MKL46Z4.c.obj)
 .text.CLOCK_SYS_GetCoreClockFreq
                0x00000000       0x34 ../../../../../../../../../lib/ksdk_platform_lib/armgcc/KL46Z4/debug/libksdk_platform.a(fsl_clock_MKL46Z4.c.obj)
 .text.CLOCK_SYS_GetFlashClockFreq
                0x00000000       0x2c ../../../../../../../../../lib/ksdk_platform_lib/armgcc/KL46Z4/debug/libksdk_platform.a(fsl_clock_MKL46Z4.c.obj)
 .text.CLOCK_SYS_GetRtcOutFreq
                0x00000000       0x24 ../../../../../../../../../lib/ksdk_platform_lib/armgcc/KL46Z4/debug/libksdk_platform.a(fsl_clock_MKL46Z4.c.obj)
 .text.CLOCK_SYS_GetExternalRefClock32kFreq
                0x00000000       0x6c ../../../../../../../../../lib/ksdk_platform_lib/armgcc/KL46Z4/debug/libksdk_platform.a(fsl_clock_MKL46Z4.c.obj)
 .text.CLOCK_SYS_GetCopFreq
                0x00000000       0x2c ../../../../../../../../../lib/ksdk_platform_lib/armgcc/KL46Z4/debug/libksdk_platform.a(fsl_clock_MKL46Z4.c.obj)
 .text.CLOCK_SYS_GetRtcFreq
                0x00000000       0x18 ../../../../../../../../../lib/ksdk_platform_lib/armgcc/KL46Z4/debug/libksdk_platform.a(fsl_clock_MKL46Z4.c.obj)
 .text.CLOCK_SYS_GetLptmrFreq
                0x00000000       0x68 ../../../../../../../../../lib/ksdk_platform_lib/armgcc/KL46Z4/debug/libksdk_platform.a(fsl_clock_MKL46Z4.c.obj)
 .text.CLOCK_SYS_GetTpmFreq
                0x00000000       0x68 ../../../../../../../../../lib/ksdk_platform_lib/armgcc/KL46Z4/debug/libksdk_platform.a(fsl_clock_MKL46Z4.c.obj)
 .text.CLOCK_SYS_GetTpmExternalFreq
                0x00000000       0x38 ../../../../../../../../../lib/ksdk_platform_lib/armgcc/KL46Z4/debug/libksdk_platform.a(fsl_clock_MKL46Z4.c.obj)
 .text.CLOCK_SYS_GetSpiFreq
                0x00000000       0x38 ../../../../../../../../../lib/ksdk_platform_lib/armgcc/KL46Z4/debug/libksdk_platform.a(fsl_clock_MKL46Z4.c.obj)
 .text.CLOCK_SYS_GetI2cFreq
                0x00000000       0x38 ../../../../../../../../../lib/ksdk_platform_lib/armgcc/KL46Z4/debug/libksdk_platform.a(fsl_clock_MKL46Z4.c.obj)
 .text.CLOCK_SYS_GetSaiFreq
                0x00000000       0x58 ../../../../../../../../../lib/ksdk_platform_lib/armgcc/KL46Z4/debug/libksdk_platform.a(fsl_clock_MKL46Z4.c.obj)
 .text.CLOCK_SYS_DisablePortClock
                0x00000000       0x4c ../../../../../../../../../lib/ksdk_platform_lib/armgcc/KL46Z4/debug/libksdk_platform.a(fsl_clock_MKL46Z4.c.obj)
 .text.CLOCK_SYS_GetPortGateCmd
                0x00000000       0x50 ../../../../../../../../../lib/ksdk_platform_lib/armgcc/KL46Z4/debug/libksdk_platform.a(fsl_clock_MKL46Z4.c.obj)
 .rodata.adcGateTable
                0x00000000        0x1 ../../../../../../../../../lib/ksdk_platform_lib/armgcc/KL46Z4/debug/libksdk_platform.a(fsl_clock_MKL46Z4.c.obj)
 .text.CLOCK_SYS_EnableAdcClock
                0x00000000       0x44 ../../../../../../../../../lib/ksdk_platform_lib/armgcc/KL46Z4/debug/libksdk_platform.a(fsl_clock_MKL46Z4.c.obj)
 .text.CLOCK_SYS_DisableAdcClock
                0x00000000       0x44 ../../../../../../../../../lib/ksdk_platform_lib/armgcc/KL46Z4/debug/libksdk_platform.a(fsl_clock_MKL46Z4.c.obj)
 .text.CLOCK_SYS_GetAdcGateCmd
                0x00000000       0x44 ../../../../../../../../../lib/ksdk_platform_lib/armgcc/KL46Z4/debug/libksdk_platform.a(fsl_clock_MKL46Z4.c.obj)
 .rodata.dacGateTable
                0x00000000        0x1 ../../../../../../../../../lib/ksdk_platform_lib/armgcc/KL46Z4/debug/libksdk_platform.a(fsl_clock_MKL46Z4.c.obj)
 .text.CLOCK_SYS_EnableDacClock
                0x00000000       0x44 ../../../../../../../../../lib/ksdk_platform_lib/armgcc/KL46Z4/debug/libksdk_platform.a(fsl_clock_MKL46Z4.c.obj)
 .text.CLOCK_SYS_DisableDacClock
                0x00000000       0x44 ../../../../../../../../../lib/ksdk_platform_lib/armgcc/KL46Z4/debug/libksdk_platform.a(fsl_clock_MKL46Z4.c.obj)
 .text.CLOCK_SYS_GetDacGateCmd
                0x00000000       0x44 ../../../../../../../../../lib/ksdk_platform_lib/armgcc/KL46Z4/debug/libksdk_platform.a(fsl_clock_MKL46Z4.c.obj)
 .rodata.spiGateTable
                0x00000000        0x2 ../../../../../../../../../lib/ksdk_platform_lib/armgcc/KL46Z4/debug/libksdk_platform.a(fsl_clock_MKL46Z4.c.obj)
 .text.CLOCK_SYS_EnableSpiClock
                0x00000000       0x4c ../../../../../../../../../lib/ksdk_platform_lib/armgcc/KL46Z4/debug/libksdk_platform.a(fsl_clock_MKL46Z4.c.obj)
 .text.CLOCK_SYS_DisableSpiClock
                0x00000000       0x4c ../../../../../../../../../lib/ksdk_platform_lib/armgcc/KL46Z4/debug/libksdk_platform.a(fsl_clock_MKL46Z4.c.obj)
 .text.CLOCK_SYS_GetSpiGateCmd
                0x00000000       0x50 ../../../../../../../../../lib/ksdk_platform_lib/armgcc/KL46Z4/debug/libksdk_platform.a(fsl_clock_MKL46Z4.c.obj)
 .rodata.i2cGateTable
                0x00000000        0x2 ../../../../../../../../../lib/ksdk_platform_lib/armgcc/KL46Z4/debug/libksdk_platform.a(fsl_clock_MKL46Z4.c.obj)
 .text.CLOCK_SYS_EnableI2cClock
                0x00000000       0x4c ../../../../../../../../../lib/ksdk_platform_lib/armgcc/KL46Z4/debug/libksdk_platform.a(fsl_clock_MKL46Z4.c.obj)
 .text.CLOCK_SYS_DisableI2cClock
                0x00000000       0x4c ../../../../../../../../../lib/ksdk_platform_lib/armgcc/KL46Z4/debug/libksdk_platform.a(fsl_clock_MKL46Z4.c.obj)
 .text.CLOCK_SYS_GetI2cGateCmd
                0x00000000       0x50 ../../../../../../../../../lib/ksdk_platform_lib/armgcc/KL46Z4/debug/libksdk_platform.a(fsl_clock_MKL46Z4.c.obj)
 .rodata.lpsciGateTable
                0x00000000        0x1 ../../../../../../../../../lib/ksdk_platform_lib/armgcc/KL46Z4/debug/libksdk_platform.a(fsl_clock_MKL46Z4.c.obj)
 .text.CLOCK_SYS_DisableLpsciClock
                0x00000000       0x44 ../../../../../../../../../lib/ksdk_platform_lib/armgcc/KL46Z4/debug/libksdk_platform.a(fsl_clock_MKL46Z4.c.obj)
 .text.CLOCK_SYS_GetLpsciGateCmd
                0x00000000       0x44 ../../../../../../../../../lib/ksdk_platform_lib/armgcc/KL46Z4/debug/libksdk_platform.a(fsl_clock_MKL46Z4.c.obj)
 .text.CLOCK_SYS_DisableUartClock
                0x00000000       0x4c ../../../../../../../../../lib/ksdk_platform_lib/armgcc/KL46Z4/debug/libksdk_platform.a(fsl_clock_MKL46Z4.c.obj)
 .text.CLOCK_SYS_GetUartGateCmd
                0x00000000       0x50 ../../../../../../../../../lib/ksdk_platform_lib/armgcc/KL46Z4/debug/libksdk_platform.a(fsl_clock_MKL46Z4.c.obj)
 .rodata.tpmGateTable
                0x00000000        0x3 ../../../../../../../../../lib/ksdk_platform_lib/armgcc/KL46Z4/debug/libksdk_platform.a(fsl_clock_MKL46Z4.c.obj)
 .text.CLOCK_SYS_EnableTpmClock
                0x00000000       0x4c ../../../../../../../../../lib/ksdk_platform_lib/armgcc/KL46Z4/debug/libksdk_platform.a(fsl_clock_MKL46Z4.c.obj)
 .text.CLOCK_SYS_DisableTpmClock
                0x00000000       0x4c ../../../../../../../../../lib/ksdk_platform_lib/armgcc/KL46Z4/debug/libksdk_platform.a(fsl_clock_MKL46Z4.c.obj)
 .text.CLOCK_SYS_GetTpmGateCmd
                0x00000000       0x50 ../../../../../../../../../lib/ksdk_platform_lib/armgcc/KL46Z4/debug/libksdk_platform.a(fsl_clock_MKL46Z4.c.obj)
 .rodata.__func__.6342
                0x00000000       0x1b ../../../../../../../../../lib/ksdk_platform_lib/armgcc/KL46Z4/debug/libksdk_platform.a(fsl_clock_MKL46Z4.c.obj)
 .rodata.__func__.6492
                0x00000000       0x1b ../../../../../../../../../lib/ksdk_platform_lib/armgcc/KL46Z4/debug/libksdk_platform.a(fsl_clock_MKL46Z4.c.obj)
 .rodata.__func__.6496
                0x00000000       0x19 ../../../../../../../../../lib/ksdk_platform_lib/armgcc/KL46Z4/debug/libksdk_platform.a(fsl_clock_MKL46Z4.c.obj)
 .rodata.__func__.6501
                0x00000000       0x19 ../../../../../../../../../lib/ksdk_platform_lib/armgcc/KL46Z4/debug/libksdk_platform.a(fsl_clock_MKL46Z4.c.obj)
 .rodata.__func__.6505
                0x00000000       0x1a ../../../../../../../../../lib/ksdk_platform_lib/armgcc/KL46Z4/debug/libksdk_platform.a(fsl_clock_MKL46Z4.c.obj)
 .rodata.__func__.6509
                0x00000000       0x18 ../../../../../../../../../lib/ksdk_platform_lib/armgcc/KL46Z4/debug/libksdk_platform.a(fsl_clock_MKL46Z4.c.obj)
 .rodata.__func__.6514
                0x00000000       0x19 ../../../../../../../../../lib/ksdk_platform_lib/armgcc/KL46Z4/debug/libksdk_platform.a(fsl_clock_MKL46Z4.c.obj)
 .rodata.__func__.6518
                0x00000000       0x1a ../../../../../../../../../lib/ksdk_platform_lib/armgcc/KL46Z4/debug/libksdk_platform.a(fsl_clock_MKL46Z4.c.obj)
 .rodata.__func__.6522
                0x00000000       0x18 ../../../../../../../../../lib/ksdk_platform_lib/armgcc/KL46Z4/debug/libksdk_platform.a(fsl_clock_MKL46Z4.c.obj)
 .rodata.__func__.6527
                0x00000000       0x19 ../../../../../../../../../lib/ksdk_platform_lib/armgcc/KL46Z4/debug/libksdk_platform.a(fsl_clock_MKL46Z4.c.obj)
 .rodata.__func__.6531
                0x00000000       0x1a ../../../../../../../../../lib/ksdk_platform_lib/armgcc/KL46Z4/debug/libksdk_platform.a(fsl_clock_MKL46Z4.c.obj)
 .rodata.__func__.6535
                0x00000000       0x18 ../../../../../../../../../lib/ksdk_platform_lib/armgcc/KL46Z4/debug/libksdk_platform.a(fsl_clock_MKL46Z4.c.obj)
 .rodata.__func__.6540
                0x00000000       0x19 ../../../../../../../../../lib/ksdk_platform_lib/armgcc/KL46Z4/debug/libksdk_platform.a(fsl_clock_MKL46Z4.c.obj)
 .rodata.__func__.6544
                0x00000000       0x1a ../../../../../../../../../lib/ksdk_platform_lib/armgcc/KL46Z4/debug/libksdk_platform.a(fsl_clock_MKL46Z4.c.obj)
 .rodata.__func__.6548
                0x00000000       0x18 ../../../../../../../../../lib/ksdk_platform_lib/armgcc/KL46Z4/debug/libksdk_platform.a(fsl_clock_MKL46Z4.c.obj)
 .rodata.__func__.6553
                0x00000000       0x1c ../../../../../../../../../lib/ksdk_platform_lib/armgcc/KL46Z4/debug/libksdk_platform.a(fsl_clock_MKL46Z4.c.obj)
 .rodata.__func__.6557
                0x00000000       0x1a ../../../../../../../../../lib/ksdk_platform_lib/armgcc/KL46Z4/debug/libksdk_platform.a(fsl_clock_MKL46Z4.c.obj)
 .rodata.__func__.6570
                0x00000000       0x1b ../../../../../../../../../lib/ksdk_platform_lib/armgcc/KL46Z4/debug/libksdk_platform.a(fsl_clock_MKL46Z4.c.obj)
 .rodata.__func__.6574
                0x00000000       0x19 ../../../../../../../../../lib/ksdk_platform_lib/armgcc/KL46Z4/debug/libksdk_platform.a(fsl_clock_MKL46Z4.c.obj)
 .rodata.__func__.6579
                0x00000000       0x19 ../../../../../../../../../lib/ksdk_platform_lib/armgcc/KL46Z4/debug/libksdk_platform.a(fsl_clock_MKL46Z4.c.obj)
 .rodata.__func__.6583
                0x00000000       0x1a ../../../../../../../../../lib/ksdk_platform_lib/armgcc/KL46Z4/debug/libksdk_platform.a(fsl_clock_MKL46Z4.c.obj)
 .rodata.__func__.6587
                0x00000000       0x18 ../../../../../../../../../lib/ksdk_platform_lib/armgcc/KL46Z4/debug/libksdk_platform.a(fsl_clock_MKL46Z4.c.obj)
 .text          0x00000000        0x0 ../../../../../../../../../lib/ksdk_platform_lib/armgcc/KL46Z4/debug/libksdk_platform.a(fsl_interrupt_manager.c.obj)
 .data          0x00000000        0x0 ../../../../../../../../../lib/ksdk_platform_lib/armgcc/KL46Z4/debug/libksdk_platform.a(fsl_interrupt_manager.c.obj)
 .bss           0x00000000        0x0 ../../../../../../../../../lib/ksdk_platform_lib/armgcc/KL46Z4/debug/libksdk_platform.a(fsl_interrupt_manager.c.obj)
 .text          0x00000000        0x0 ../../../../../../../../../lib/ksdk_platform_lib/armgcc/KL46Z4/debug/libksdk_platform.a(fsl_lpsci_hal.c.obj)
 .data          0x00000000        0x0 ../../../../../../../../../lib/ksdk_platform_lib/armgcc/KL46Z4/debug/libksdk_platform.a(fsl_lpsci_hal.c.obj)
 .bss           0x00000000        0x0 ../../../../../../../../../lib/ksdk_platform_lib/armgcc/KL46Z4/debug/libksdk_platform.a(fsl_lpsci_hal.c.obj)
 .text.LPSCI_HAL_GetReceiverWakeupMethod
                0x00000000       0x20 ../../../../../../../../../lib/ksdk_platform_lib/armgcc/KL46Z4/debug/libksdk_platform.a(fsl_lpsci_hal.c.obj)
 .text.LPSCI_HAL_Init
                0x00000000       0x4c ../../../../../../../../../lib/ksdk_platform_lib/armgcc/KL46Z4/debug/libksdk_platform.a(fsl_lpsci_hal.c.obj)
 .rodata        0x00000000       0x78 ../../../../../../../../../lib/ksdk_platform_lib/armgcc/KL46Z4/debug/libksdk_platform.a(fsl_lpsci_hal.c.obj)
 .text.LPSCI_HAL_SetBaudRateDivisor
                0x00000000       0x68 ../../../../../../../../../lib/ksdk_platform_lib/armgcc/KL46Z4/debug/libksdk_platform.a(fsl_lpsci_hal.c.obj)
 .text.LPSCI_HAL_Putchar9
                0x00000000       0x50 ../../../../../../../../../lib/ksdk_platform_lib/armgcc/KL46Z4/debug/libksdk_platform.a(fsl_lpsci_hal.c.obj)
 .text.LPSCI_HAL_Putchar10
                0x00000000       0x7c ../../../../../../../../../lib/ksdk_platform_lib/armgcc/KL46Z4/debug/libksdk_platform.a(fsl_lpsci_hal.c.obj)
 .text.LPSCI_HAL_Getchar9
                0x00000000       0x40 ../../../../../../../../../lib/ksdk_platform_lib/armgcc/KL46Z4/debug/libksdk_platform.a(fsl_lpsci_hal.c.obj)
 .text.LPSCI_HAL_Getchar10
                0x00000000       0x64 ../../../../../../../../../lib/ksdk_platform_lib/armgcc/KL46Z4/debug/libksdk_platform.a(fsl_lpsci_hal.c.obj)
 .text.LPSCI_HAL_SetIntMode
                0x00000000       0xf0 ../../../../../../../../../lib/ksdk_platform_lib/armgcc/KL46Z4/debug/libksdk_platform.a(fsl_lpsci_hal.c.obj)
 .text.LPSCI_HAL_GetIntMode
                0x00000000       0xac ../../../../../../../../../lib/ksdk_platform_lib/armgcc/KL46Z4/debug/libksdk_platform.a(fsl_lpsci_hal.c.obj)
 .text.LPSCI_HAL_SetTxDmaCmd
                0x00000000       0x30 ../../../../../../../../../lib/ksdk_platform_lib/armgcc/KL46Z4/debug/libksdk_platform.a(fsl_lpsci_hal.c.obj)
 .text.LPSCI_HAL_SetRxDmaCmd
                0x00000000       0x30 ../../../../../../../../../lib/ksdk_platform_lib/armgcc/KL46Z4/debug/libksdk_platform.a(fsl_lpsci_hal.c.obj)
 .text.LPSCI_HAL_GetStatusFlag
                0x00000000       0x88 ../../../../../../../../../lib/ksdk_platform_lib/armgcc/KL46Z4/debug/libksdk_platform.a(fsl_lpsci_hal.c.obj)
 .text.LPSCI_HAL_ClearStatusFlag
                0x00000000       0xb8 ../../../../../../../../../lib/ksdk_platform_lib/armgcc/KL46Z4/debug/libksdk_platform.a(fsl_lpsci_hal.c.obj)
 .text.LPSCI_HAL_PutReceiverInStandbyMode
                0x00000000       0x68 ../../../../../../../../../lib/ksdk_platform_lib/armgcc/KL46Z4/debug/libksdk_platform.a(fsl_lpsci_hal.c.obj)
 .text.LPSCI_HAL_ConfigIdleLineDetect
                0x00000000       0x50 ../../../../../../../../../lib/ksdk_platform_lib/armgcc/KL46Z4/debug/libksdk_platform.a(fsl_lpsci_hal.c.obj)
 .text.LPSCI_HAL_SetMatchAddress
                0x00000000       0x6c ../../../../../../../../../lib/ksdk_platform_lib/armgcc/KL46Z4/debug/libksdk_platform.a(fsl_lpsci_hal.c.obj)
 .rodata.__func__.5313
                0x00000000       0x1d ../../../../../../../../../lib/ksdk_platform_lib/armgcc/KL46Z4/debug/libksdk_platform.a(fsl_lpsci_hal.c.obj)
 .text          0x00000000        0x0 ../../../../../../../../../lib/ksdk_platform_lib/armgcc/KL46Z4/debug/libksdk_platform.a(fsl_lptmr_hal.c.obj)
 .data          0x00000000        0x0 ../../../../../../../../../lib/ksdk_platform_lib/armgcc/KL46Z4/debug/libksdk_platform.a(fsl_lptmr_hal.c.obj)
 .bss           0x00000000        0x0 ../../../../../../../../../lib/ksdk_platform_lib/armgcc/KL46Z4/debug/libksdk_platform.a(fsl_lptmr_hal.c.obj)
 .text.LPTMR_HAL_Disable
                0x00000000       0x20 ../../../../../../../../../lib/ksdk_platform_lib/armgcc/KL46Z4/debug/libksdk_platform.a(fsl_lptmr_hal.c.obj)
 .text.LPTMR_HAL_ClearIntFlag
                0x00000000       0x20 ../../../../../../../../../lib/ksdk_platform_lib/armgcc/KL46Z4/debug/libksdk_platform.a(fsl_lptmr_hal.c.obj)
 .text.LPTMR_HAL_SetIntCmd
                0x00000000       0x28 ../../../../../../../../../lib/ksdk_platform_lib/armgcc/KL46Z4/debug/libksdk_platform.a(fsl_lptmr_hal.c.obj)
 .text.LPTMR_HAL_SetCompareValue
                0x00000000       0x24 ../../../../../../../../../lib/ksdk_platform_lib/armgcc/KL46Z4/debug/libksdk_platform.a(fsl_lptmr_hal.c.obj)
 .text.LPTMR_HAL_Init
                0x00000000       0x88 ../../../../../../../../../lib/ksdk_platform_lib/armgcc/KL46Z4/debug/libksdk_platform.a(fsl_lptmr_hal.c.obj)
 .text          0x00000000        0x0 ../../../../../../../../../lib/ksdk_platform_lib/armgcc/KL46Z4/debug/libksdk_platform.a(fsl_mcg_hal.c.obj)
 .data          0x00000000        0x0 ../../../../../../../../../lib/ksdk_platform_lib/armgcc/KL46Z4/debug/libksdk_platform.a(fsl_mcg_hal.c.obj)
 .bss           0x00000000        0x0 ../../../../../../../../../lib/ksdk_platform_lib/armgcc/KL46Z4/debug/libksdk_platform.a(fsl_mcg_hal.c.obj)
 .text.CLOCK_HAL_IsPll0Locked
                0x00000000       0x28 ../../../../../../../../../lib/ksdk_platform_lib/armgcc/KL46Z4/debug/libksdk_platform.a(fsl_mcg_hal.c.obj)
 .text.CLOCK_HAL_IsAutoTrimMachineFailed
                0x00000000       0x28 ../../../../../../../../../lib/ksdk_platform_lib/armgcc/KL46Z4/debug/libksdk_platform.a(fsl_mcg_hal.c.obj)
 .bss.g_xtalRtcClkFreq
                0x00000000        0x4 ../../../../../../../../../lib/ksdk_platform_lib/armgcc/KL46Z4/debug/libksdk_platform.a(fsl_mcg_hal.c.obj)
 .text.CLOCK_HAL_TestOscFreq
                0x00000000       0x24 ../../../../../../../../../lib/ksdk_platform_lib/armgcc/KL46Z4/debug/libksdk_platform.a(fsl_mcg_hal.c.obj)
 .text.CLOCK_HAL_GetAvailableFrdiv
                0x00000000       0xcc ../../../../../../../../../lib/ksdk_platform_lib/armgcc/KL46Z4/debug/libksdk_platform.a(fsl_mcg_hal.c.obj)
 .text.CLOCK_HAL_CalculatePllDiv
                0x00000000      0x1dc ../../../../../../../../../lib/ksdk_platform_lib/armgcc/KL46Z4/debug/libksdk_platform.a(fsl_mcg_hal.c.obj)
 .text.CLOCK_HAL_EnablePll0InFllMode
                0x00000000       0x94 ../../../../../../../../../lib/ksdk_platform_lib/armgcc/KL46Z4/debug/libksdk_platform.a(fsl_mcg_hal.c.obj)
 .text.CLOCK_HAL_GetFixedFreqClk
                0x00000000       0x3c ../../../../../../../../../lib/ksdk_platform_lib/armgcc/KL46Z4/debug/libksdk_platform.a(fsl_mcg_hal.c.obj)
 .text.CLOCK_HAL_EnableOsc0Monitor
                0x00000000       0x40 ../../../../../../../../../lib/ksdk_platform_lib/armgcc/KL46Z4/debug/libksdk_platform.a(fsl_mcg_hal.c.obj)
 .text.CLOCK_HAL_TrimInternalRefClk
                0x00000000      0x14c ../../../../../../../../../lib/ksdk_platform_lib/armgcc/KL46Z4/debug/libksdk_platform.a(fsl_mcg_hal.c.obj)
 .rodata.freq_kHz.5379
                0x00000000       0x10 ../../../../../../../../../lib/ksdk_platform_lib/armgcc/KL46Z4/debug/libksdk_platform.a(fsl_mcg_hal.c.obj)
 .rodata.freqLow_kHz.5380
                0x00000000       0x10 ../../../../../../../../../lib/ksdk_platform_lib/armgcc/KL46Z4/debug/libksdk_platform.a(fsl_mcg_hal.c.obj)
 .text          0x00000000        0x0 ../../../../../../../../../lib/ksdk_platform_lib/armgcc/KL46Z4/debug/libksdk_platform.a(fsl_mcg_hal_modes.c.obj)
 .data          0x00000000        0x0 ../../../../../../../../../lib/ksdk_platform_lib/armgcc/KL46Z4/debug/libksdk_platform.a(fsl_mcg_hal_modes.c.obj)
 .bss           0x00000000        0x0 ../../../../../../../../../lib/ksdk_platform_lib/armgcc/KL46Z4/debug/libksdk_platform.a(fsl_mcg_hal_modes.c.obj)
 .text.CLOCK_HAL_GetFllSrc
                0x00000000       0x20 ../../../../../../../../../lib/ksdk_platform_lib/armgcc/KL46Z4/debug/libksdk_platform.a(fsl_mcg_hal_modes.c.obj)
 .text.CLOCK_HAL_GetInternalRefClkMode
                0x00000000       0x20 ../../../../../../../../../lib/ksdk_platform_lib/armgcc/KL46Z4/debug/libksdk_platform.a(fsl_mcg_hal_modes.c.obj)
 .text.CLOCK_HAL_IsOsc0Stable
                0x00000000       0x28 ../../../../../../../../../lib/ksdk_platform_lib/armgcc/KL46Z4/debug/libksdk_platform.a(fsl_mcg_hal_modes.c.obj)
 .text.CLOCK_HAL_GetMcgMode
                0x00000000      0x150 ../../../../../../../../../lib/ksdk_platform_lib/armgcc/KL46Z4/debug/libksdk_platform.a(fsl_mcg_hal_modes.c.obj)
 .text.CLOCK_HAL_SetFeiMode
                0x00000000       0xf8 ../../../../../../../../../lib/ksdk_platform_lib/armgcc/KL46Z4/debug/libksdk_platform.a(fsl_mcg_hal_modes.c.obj)
 .text.CLOCK_HAL_SetFeeMode
                0x00000000      0x138 ../../../../../../../../../lib/ksdk_platform_lib/armgcc/KL46Z4/debug/libksdk_platform.a(fsl_mcg_hal_modes.c.obj)
 .text.CLOCK_HAL_SetFbiMode
                0x00000000      0x14c ../../../../../../../../../lib/ksdk_platform_lib/armgcc/KL46Z4/debug/libksdk_platform.a(fsl_mcg_hal_modes.c.obj)
 .text.CLOCK_HAL_SetFbeMode
                0x00000000      0x170 ../../../../../../../../../lib/ksdk_platform_lib/armgcc/KL46Z4/debug/libksdk_platform.a(fsl_mcg_hal_modes.c.obj)
 .text.CLOCK_HAL_SetBlpiMode
                0x00000000       0x74 ../../../../../../../../../lib/ksdk_platform_lib/armgcc/KL46Z4/debug/libksdk_platform.a(fsl_mcg_hal_modes.c.obj)
 .text.CLOCK_HAL_SetBlpeMode
                0x00000000       0x38 ../../../../../../../../../lib/ksdk_platform_lib/armgcc/KL46Z4/debug/libksdk_platform.a(fsl_mcg_hal_modes.c.obj)
 .text.CLOCK_HAL_SetPeeMode
                0x00000000       0x34 ../../../../../../../../../lib/ksdk_platform_lib/armgcc/KL46Z4/debug/libksdk_platform.a(fsl_mcg_hal_modes.c.obj)
 .text          0x00000000        0x0 ../../../../../../../../../lib/ksdk_platform_lib/armgcc/KL46Z4/debug/libksdk_platform.a(fsl_osc_hal.c.obj)
 .data          0x00000000        0x0 ../../../../../../../../../lib/ksdk_platform_lib/armgcc/KL46Z4/debug/libksdk_platform.a(fsl_osc_hal.c.obj)
 .bss           0x00000000        0x0 ../../../../../../../../../lib/ksdk_platform_lib/armgcc/KL46Z4/debug/libksdk_platform.a(fsl_osc_hal.c.obj)
 .text          0x00000000        0x0 ../../../../../../../../../lib/ksdk_platform_lib/armgcc/KL46Z4/debug/libksdk_platform.a(fsl_sim_hal_MKL46Z4.c.obj)
 .data          0x00000000        0x0 ../../../../../../../../../lib/ksdk_platform_lib/armgcc/KL46Z4/debug/libksdk_platform.a(fsl_sim_hal_MKL46Z4.c.obj)
 .bss           0x00000000        0x0 ../../../../../../../../../lib/ksdk_platform_lib/armgcc/KL46Z4/debug/libksdk_platform.a(fsl_sim_hal_MKL46Z4.c.obj)
 .text.CLOCK_HAL_GetOutDiv
                0x00000000       0x5c ../../../../../../../../../lib/ksdk_platform_lib/armgcc/KL46Z4/debug/libksdk_platform.a(fsl_sim_hal_MKL46Z4.c.obj)
 .rodata        0x00000000       0xba ../../../../../../../../../lib/ksdk_platform_lib/armgcc/KL46Z4/debug/libksdk_platform.a(fsl_sim_hal_MKL46Z4.c.obj)
 .text.SIM_HAL_SetAdcAlternativeTriggerCmd
                0x00000000       0x5c ../../../../../../../../../lib/ksdk_platform_lib/armgcc/KL46Z4/debug/libksdk_platform.a(fsl_sim_hal_MKL46Z4.c.obj)
 .text.SIM_HAL_GetAdcAlternativeTriggerCmd
                0x00000000       0x60 ../../../../../../../../../lib/ksdk_platform_lib/armgcc/KL46Z4/debug/libksdk_platform.a(fsl_sim_hal_MKL46Z4.c.obj)
 .text.SIM_HAL_SetAdcPreTriggerMode
                0x00000000       0x50 ../../../../../../../../../lib/ksdk_platform_lib/armgcc/KL46Z4/debug/libksdk_platform.a(fsl_sim_hal_MKL46Z4.c.obj)
 .text.SIM_HAL_GetAdcPreTriggerMode
                0x00000000       0x5c ../../../../../../../../../lib/ksdk_platform_lib/armgcc/KL46Z4/debug/libksdk_platform.a(fsl_sim_hal_MKL46Z4.c.obj)
 .text.SIM_HAL_SetAdcTriggerMode
                0x00000000       0x50 ../../../../../../../../../lib/ksdk_platform_lib/armgcc/KL46Z4/debug/libksdk_platform.a(fsl_sim_hal_MKL46Z4.c.obj)
 .text.SIM_HAL_GetAdcTriggerMode
                0x00000000       0x5c ../../../../../../../../../lib/ksdk_platform_lib/armgcc/KL46Z4/debug/libksdk_platform.a(fsl_sim_hal_MKL46Z4.c.obj)
 .text.SIM_HAL_SetAdcTriggerModeOneStep
                0x00000000       0x9c ../../../../../../../../../lib/ksdk_platform_lib/armgcc/KL46Z4/debug/libksdk_platform.a(fsl_sim_hal_MKL46Z4.c.obj)
 .text.SIM_HAL_SetUartOpenDrainCmd
                0x00000000       0x90 ../../../../../../../../../lib/ksdk_platform_lib/armgcc/KL46Z4/debug/libksdk_platform.a(fsl_sim_hal_MKL46Z4.c.obj)
 .text.SIM_HAL_GetUartOpenDrainCmd
                0x00000000       0x8c ../../../../../../../../../lib/ksdk_platform_lib/armgcc/KL46Z4/debug/libksdk_platform.a(fsl_sim_hal_MKL46Z4.c.obj)
 .text.SIM_HAL_SetTpmExternalClkPinSelMode
                0x00000000       0x98 ../../../../../../../../../lib/ksdk_platform_lib/armgcc/KL46Z4/debug/libksdk_platform.a(fsl_sim_hal_MKL46Z4.c.obj)
 .text.SIM_HAL_GetTpmExternalClkPinSelMode
                0x00000000       0xa4 ../../../../../../../../../lib/ksdk_platform_lib/armgcc/KL46Z4/debug/libksdk_platform.a(fsl_sim_hal_MKL46Z4.c.obj)
 .text.SIM_HAL_SetTpmChSrcMode
                0x00000000       0x88 ../../../../../../../../../lib/ksdk_platform_lib/armgcc/KL46Z4/debug/libksdk_platform.a(fsl_sim_hal_MKL46Z4.c.obj)
 .text.SIM_HAL_GetTpmChSrcMode
                0x00000000       0x8c ../../../../../../../../../lib/ksdk_platform_lib/armgcc/KL46Z4/debug/libksdk_platform.a(fsl_sim_hal_MKL46Z4.c.obj)
 .rodata.__func__.5494
                0x00000000       0x24 ../../../../../../../../../lib/ksdk_platform_lib/armgcc/KL46Z4/debug/libksdk_platform.a(fsl_sim_hal_MKL46Z4.c.obj)
 .rodata.__func__.5500
                0x00000000       0x24 ../../../../../../../../../lib/ksdk_platform_lib/armgcc/KL46Z4/debug/libksdk_platform.a(fsl_sim_hal_MKL46Z4.c.obj)
 .rodata.__func__.5506
                0x00000000       0x1d ../../../../../../../../../lib/ksdk_platform_lib/armgcc/KL46Z4/debug/libksdk_platform.a(fsl_sim_hal_MKL46Z4.c.obj)
 .rodata.__func__.5512
                0x00000000       0x1d ../../../../../../../../../lib/ksdk_platform_lib/armgcc/KL46Z4/debug/libksdk_platform.a(fsl_sim_hal_MKL46Z4.c.obj)
 .rodata.__func__.5518
                0x00000000       0x1a ../../../../../../../../../lib/ksdk_platform_lib/armgcc/KL46Z4/debug/libksdk_platform.a(fsl_sim_hal_MKL46Z4.c.obj)
 .rodata.__func__.5524
                0x00000000       0x1a ../../../../../../../../../lib/ksdk_platform_lib/armgcc/KL46Z4/debug/libksdk_platform.a(fsl_sim_hal_MKL46Z4.c.obj)
 .rodata.__func__.5532
                0x00000000       0x21 ../../../../../../../../../lib/ksdk_platform_lib/armgcc/KL46Z4/debug/libksdk_platform.a(fsl_sim_hal_MKL46Z4.c.obj)
 .rodata.__func__.5538
                0x00000000       0x1c ../../../../../../../../../lib/ksdk_platform_lib/armgcc/KL46Z4/debug/libksdk_platform.a(fsl_sim_hal_MKL46Z4.c.obj)
 .rodata.__func__.5548
                0x00000000       0x1c ../../../../../../../../../lib/ksdk_platform_lib/armgcc/KL46Z4/debug/libksdk_platform.a(fsl_sim_hal_MKL46Z4.c.obj)
 .rodata.__func__.5558
                0x00000000       0x24 ../../../../../../../../../lib/ksdk_platform_lib/armgcc/KL46Z4/debug/libksdk_platform.a(fsl_sim_hal_MKL46Z4.c.obj)
 .rodata.__func__.5569
                0x00000000       0x24 ../../../../../../../../../lib/ksdk_platform_lib/armgcc/KL46Z4/debug/libksdk_platform.a(fsl_sim_hal_MKL46Z4.c.obj)
 .rodata.__func__.5581
                0x00000000       0x18 ../../../../../../../../../lib/ksdk_platform_lib/armgcc/KL46Z4/debug/libksdk_platform.a(fsl_sim_hal_MKL46Z4.c.obj)
 .rodata.__func__.5592
                0x00000000       0x18 ../../../../../../../../../lib/ksdk_platform_lib/armgcc/KL46Z4/debug/libksdk_platform.a(fsl_sim_hal_MKL46Z4.c.obj)
 .text          0x00000000        0x0 ../../../../../../../../../lib/ksdk_platform_lib/armgcc/KL46Z4/debug/libksdk_platform.a(fsl_uart_hal.c.obj)
 .data          0x00000000        0x0 ../../../../../../../../../lib/ksdk_platform_lib/armgcc/KL46Z4/debug/libksdk_platform.a(fsl_uart_hal.c.obj)
 .bss           0x00000000        0x0 ../../../../../../../../../lib/ksdk_platform_lib/armgcc/KL46Z4/debug/libksdk_platform.a(fsl_uart_hal.c.obj)
 .text.UART_HAL_GetReceiverWakeupMethod
                0x00000000       0x20 ../../../../../../../../../lib/ksdk_platform_lib/armgcc/KL46Z4/debug/libksdk_platform.a(fsl_uart_hal.c.obj)
 .text.UART_HAL_Init
                0x00000000       0x3c ../../../../../../../../../lib/ksdk_platform_lib/armgcc/KL46Z4/debug/libksdk_platform.a(fsl_uart_hal.c.obj)
 .rodata        0x00000000       0x76 ../../../../../../../../../lib/ksdk_platform_lib/armgcc/KL46Z4/debug/libksdk_platform.a(fsl_uart_hal.c.obj)
 .text.UART_HAL_SetBaudRateDivisor
                0x00000000       0x68 ../../../../../../../../../lib/ksdk_platform_lib/armgcc/KL46Z4/debug/libksdk_platform.a(fsl_uart_hal.c.obj)
 .text.UART_HAL_Putchar9
                0x00000000       0x68 ../../../../../../../../../lib/ksdk_platform_lib/armgcc/KL46Z4/debug/libksdk_platform.a(fsl_uart_hal.c.obj)
 .text.UART_HAL_Getchar9
                0x00000000       0x58 ../../../../../../../../../lib/ksdk_platform_lib/armgcc/KL46Z4/debug/libksdk_platform.a(fsl_uart_hal.c.obj)
 .text.UART_HAL_SetIntMode
                0x00000000       0xf0 ../../../../../../../../../lib/ksdk_platform_lib/armgcc/KL46Z4/debug/libksdk_platform.a(fsl_uart_hal.c.obj)
 .text.UART_HAL_GetIntMode
                0x00000000       0xac ../../../../../../../../../lib/ksdk_platform_lib/armgcc/KL46Z4/debug/libksdk_platform.a(fsl_uart_hal.c.obj)
 .text.UART_HAL_SetTxDmaCmd
                0x00000000       0x70 ../../../../../../../../../lib/ksdk_platform_lib/armgcc/KL46Z4/debug/libksdk_platform.a(fsl_uart_hal.c.obj)
 .text.UART_HAL_SetRxDmaCmd
                0x00000000       0x48 ../../../../../../../../../lib/ksdk_platform_lib/armgcc/KL46Z4/debug/libksdk_platform.a(fsl_uart_hal.c.obj)
 .text.UART_HAL_GetStatusFlag
                0x00000000       0x88 ../../../../../../../../../lib/ksdk_platform_lib/armgcc/KL46Z4/debug/libksdk_platform.a(fsl_uart_hal.c.obj)
 .text.UART_HAL_ClearStatusFlag
                0x00000000       0x98 ../../../../../../../../../lib/ksdk_platform_lib/armgcc/KL46Z4/debug/libksdk_platform.a(fsl_uart_hal.c.obj)
 .text.UART_HAL_PutReceiverInStandbyMode
                0x00000000       0x68 ../../../../../../../../../lib/ksdk_platform_lib/armgcc/KL46Z4/debug/libksdk_platform.a(fsl_uart_hal.c.obj)
 .text.UART_HAL_ConfigIdleLineDetect
                0x00000000       0x50 ../../../../../../../../../lib/ksdk_platform_lib/armgcc/KL46Z4/debug/libksdk_platform.a(fsl_uart_hal.c.obj)
 .rodata.__func__.5319
                0x00000000       0x1c ../../../../../../../../../lib/ksdk_platform_lib/armgcc/KL46Z4/debug/libksdk_platform.a(fsl_uart_hal.c.obj)
 .text          0x00000000        0x0 /home/laurie/gcc-arm/bin/../lib/gcc/arm-none-eabi/5.4.1/../../../../arm-none-eabi/lib/armv6-m/libc_nano.a(lib_a-assert.o)
 .data          0x00000000        0x0 /home/laurie/gcc-arm/bin/../lib/gcc/arm-none-eabi/5.4.1/../../../../arm-none-eabi/lib/armv6-m/libc_nano.a(lib_a-assert.o)
 .bss           0x00000000        0x0 /home/laurie/gcc-arm/bin/../lib/gcc/arm-none-eabi/5.4.1/../../../../arm-none-eabi/lib/armv6-m/libc_nano.a(lib_a-assert.o)
 .text.__assert
                0x00000000        0xa /home/laurie/gcc-arm/bin/../lib/gcc/arm-none-eabi/5.4.1/../../../../arm-none-eabi/lib/armv6-m/libc_nano.a(lib_a-assert.o)
 .text          0x00000000        0x0 /home/laurie/gcc-arm/bin/../lib/gcc/arm-none-eabi/5.4.1/../../../../arm-none-eabi/lib/armv6-m/libc_nano.a(lib_a-calloc.o)
 .data          0x00000000        0x0 /home/laurie/gcc-arm/bin/../lib/gcc/arm-none-eabi/5.4.1/../../../../arm-none-eabi/lib/armv6-m/libc_nano.a(lib_a-calloc.o)
 .bss           0x00000000        0x0 /home/laurie/gcc-arm/bin/../lib/gcc/arm-none-eabi/5.4.1/../../../../arm-none-eabi/lib/armv6-m/libc_nano.a(lib_a-calloc.o)
 .text          0x00000000        0x0 /home/laurie/gcc-arm/bin/../lib/gcc/arm-none-eabi/5.4.1/../../../../arm-none-eabi/lib/armv6-m/libc_nano.a(lib_a-errno.o)
 .data          0x00000000        0x0 /home/laurie/gcc-arm/bin/../lib/gcc/arm-none-eabi/5.4.1/../../../../arm-none-eabi/lib/armv6-m/libc_nano.a(lib_a-errno.o)
 .bss           0x00000000        0x0 /home/laurie/gcc-arm/bin/../lib/gcc/arm-none-eabi/5.4.1/../../../../arm-none-eabi/lib/armv6-m/libc_nano.a(lib_a-errno.o)
 .text          0x00000000        0x0 /home/laurie/gcc-arm/bin/../lib/gcc/arm-none-eabi/5.4.1/../../../../arm-none-eabi/lib/armv6-m/libc_nano.a(lib_a-exit.o)
 .data          0x00000000        0x0 /home/laurie/gcc-arm/bin/../lib/gcc/arm-none-eabi/5.4.1/../../../../arm-none-eabi/lib/armv6-m/libc_nano.a(lib_a-exit.o)
 .bss           0x00000000        0x0 /home/laurie/gcc-arm/bin/../lib/gcc/arm-none-eabi/5.4.1/../../../../arm-none-eabi/lib/armv6-m/libc_nano.a(lib_a-exit.o)
 .text          0x00000000        0x0 /home/laurie/gcc-arm/bin/../lib/gcc/arm-none-eabi/5.4.1/../../../../arm-none-eabi/lib/armv6-m/libc_nano.a(lib_a-fprintf.o)
 .data          0x00000000        0x0 /home/laurie/gcc-arm/bin/../lib/gcc/arm-none-eabi/5.4.1/../../../../arm-none-eabi/lib/armv6-m/libc_nano.a(lib_a-fprintf.o)
 .bss           0x00000000        0x0 /home/laurie/gcc-arm/bin/../lib/gcc/arm-none-eabi/5.4.1/../../../../arm-none-eabi/lib/armv6-m/libc_nano.a(lib_a-fprintf.o)
 .text._fprintf_r
                0x00000000       0x16 /home/laurie/gcc-arm/bin/../lib/gcc/arm-none-eabi/5.4.1/../../../../arm-none-eabi/lib/armv6-m/libc_nano.a(lib_a-fprintf.o)
 .text          0x00000000        0x0 /home/laurie/gcc-arm/bin/../lib/gcc/arm-none-eabi/5.4.1/../../../../arm-none-eabi/lib/armv6-m/libc_nano.a(lib_a-impure.o)
 .data          0x00000000        0x0 /home/laurie/gcc-arm/bin/../lib/gcc/arm-none-eabi/5.4.1/../../../../arm-none-eabi/lib/armv6-m/libc_nano.a(lib_a-impure.o)
 .bss           0x00000000        0x0 /home/laurie/gcc-arm/bin/../lib/gcc/arm-none-eabi/5.4.1/../../../../arm-none-eabi/lib/armv6-m/libc_nano.a(lib_a-impure.o)
 .text          0x00000000        0x0 /home/laurie/gcc-arm/bin/../lib/gcc/arm-none-eabi/5.4.1/../../../../arm-none-eabi/lib/armv6-m/libc_nano.a(lib_a-init.o)
 .data          0x00000000        0x0 /home/laurie/gcc-arm/bin/../lib/gcc/arm-none-eabi/5.4.1/../../../../arm-none-eabi/lib/armv6-m/libc_nano.a(lib_a-init.o)
 .bss           0x00000000        0x0 /home/laurie/gcc-arm/bin/../lib/gcc/arm-none-eabi/5.4.1/../../../../arm-none-eabi/lib/armv6-m/libc_nano.a(lib_a-init.o)
 .text          0x00000000        0x0 /home/laurie/gcc-arm/bin/../lib/gcc/arm-none-eabi/5.4.1/../../../../arm-none-eabi/lib/armv6-m/libc_nano.a(lib_a-malloc.o)
 .data          0x00000000        0x0 /home/laurie/gcc-arm/bin/../lib/gcc/arm-none-eabi/5.4.1/../../../../arm-none-eabi/lib/armv6-m/libc_nano.a(lib_a-malloc.o)
 .bss           0x00000000        0x0 /home/laurie/gcc-arm/bin/../lib/gcc/arm-none-eabi/5.4.1/../../../../arm-none-eabi/lib/armv6-m/libc_nano.a(lib_a-malloc.o)
 .text.malloc   0x00000000       0x14 /home/laurie/gcc-arm/bin/../lib/gcc/arm-none-eabi/5.4.1/../../../../arm-none-eabi/lib/armv6-m/libc_nano.a(lib_a-malloc.o)
 .text          0x00000000        0x0 /home/laurie/gcc-arm/bin/../lib/gcc/arm-none-eabi/5.4.1/../../../../arm-none-eabi/lib/armv6-m/libc_nano.a(lib_a-memcpy-stub.o)
 .data          0x00000000        0x0 /home/laurie/gcc-arm/bin/../lib/gcc/arm-none-eabi/5.4.1/../../../../arm-none-eabi/lib/armv6-m/libc_nano.a(lib_a-memcpy-stub.o)
 .bss           0x00000000        0x0 /home/laurie/gcc-arm/bin/../lib/gcc/arm-none-eabi/5.4.1/../../../../arm-none-eabi/lib/armv6-m/libc_nano.a(lib_a-memcpy-stub.o)
 .text          0x00000000        0x0 /home/laurie/gcc-arm/bin/../lib/gcc/arm-none-eabi/5.4.1/../../../../arm-none-eabi/lib/armv6-m/libc_nano.a(lib_a-memset.o)
 .data          0x00000000        0x0 /home/laurie/gcc-arm/bin/../lib/gcc/arm-none-eabi/5.4.1/../../../../arm-none-eabi/lib/armv6-m/libc_nano.a(lib_a-memset.o)
 .bss           0x00000000        0x0 /home/laurie/gcc-arm/bin/../lib/gcc/arm-none-eabi/5.4.1/../../../../arm-none-eabi/lib/armv6-m/libc_nano.a(lib_a-memset.o)
 .text          0x00000000        0x0 /home/laurie/gcc-arm/bin/../lib/gcc/arm-none-eabi/5.4.1/../../../../arm-none-eabi/lib/armv6-m/libc_nano.a(lib_a-nano-callocr.o)
 .data          0x00000000        0x0 /home/laurie/gcc-arm/bin/../lib/gcc/arm-none-eabi/5.4.1/../../../../arm-none-eabi/lib/armv6-m/libc_nano.a(lib_a-nano-callocr.o)
 .bss           0x00000000        0x0 /home/laurie/gcc-arm/bin/../lib/gcc/arm-none-eabi/5.4.1/../../../../arm-none-eabi/lib/armv6-m/libc_nano.a(lib_a-nano-callocr.o)
 .text          0x00000000        0x0 /home/laurie/gcc-arm/bin/../lib/gcc/arm-none-eabi/5.4.1/../../../../arm-none-eabi/lib/armv6-m/libc_nano.a(lib_a-nano-freer.o)
 .data          0x00000000        0x0 /home/laurie/gcc-arm/bin/../lib/gcc/arm-none-eabi/5.4.1/../../../../arm-none-eabi/lib/armv6-m/libc_nano.a(lib_a-nano-freer.o)
 .bss           0x00000000        0x0 /home/laurie/gcc-arm/bin/../lib/gcc/arm-none-eabi/5.4.1/../../../../arm-none-eabi/lib/armv6-m/libc_nano.a(lib_a-nano-freer.o)
 .text          0x00000000        0x0 /home/laurie/gcc-arm/bin/../lib/gcc/arm-none-eabi/5.4.1/../../../../arm-none-eabi/lib/armv6-m/libc_nano.a(lib_a-nano-mallocr.o)
 .data          0x00000000        0x0 /home/laurie/gcc-arm/bin/../lib/gcc/arm-none-eabi/5.4.1/../../../../arm-none-eabi/lib/armv6-m/libc_nano.a(lib_a-nano-mallocr.o)
 .bss           0x00000000        0x0 /home/laurie/gcc-arm/bin/../lib/gcc/arm-none-eabi/5.4.1/../../../../arm-none-eabi/lib/armv6-m/libc_nano.a(lib_a-nano-mallocr.o)
 .text          0x00000000        0x0 /home/laurie/gcc-arm/bin/../lib/gcc/arm-none-eabi/5.4.1/../../../../arm-none-eabi/lib/armv6-m/libc_nano.a(lib_a-nano-vfprintf.o)
 .data          0x00000000        0x0 /home/laurie/gcc-arm/bin/../lib/gcc/arm-none-eabi/5.4.1/../../../../arm-none-eabi/lib/armv6-m/libc_nano.a(lib_a-nano-vfprintf.o)
 .bss           0x00000000        0x0 /home/laurie/gcc-arm/bin/../lib/gcc/arm-none-eabi/5.4.1/../../../../arm-none-eabi/lib/armv6-m/libc_nano.a(lib_a-nano-vfprintf.o)
 .text.__sprint_r
                0x00000000       0x1c /home/laurie/gcc-arm/bin/../lib/gcc/arm-none-eabi/5.4.1/../../../../arm-none-eabi/lib/armv6-m/libc_nano.a(lib_a-nano-vfprintf.o)
 .text.vfprintf
                0x00000000       0x18 /home/laurie/gcc-arm/bin/../lib/gcc/arm-none-eabi/5.4.1/../../../../arm-none-eabi/lib/armv6-m/libc_nano.a(lib_a-nano-vfprintf.o)
 .text          0x00000000        0x0 /home/laurie/gcc-arm/bin/../lib/gcc/arm-none-eabi/5.4.1/../../../../arm-none-eabi/lib/armv6-m/libc_nano.a(lib_a-nano-vfprintf_i.o)
 .data          0x00000000        0x0 /home/laurie/gcc-arm/bin/../lib/gcc/arm-none-eabi/5.4.1/../../../../arm-none-eabi/lib/armv6-m/libc_nano.a(lib_a-nano-vfprintf_i.o)
 .bss           0x00000000        0x0 /home/laurie/gcc-arm/bin/../lib/gcc/arm-none-eabi/5.4.1/../../../../arm-none-eabi/lib/armv6-m/libc_nano.a(lib_a-nano-vfprintf_i.o)
 .text          0x00000000        0x0 /home/laurie/gcc-arm/bin/../lib/gcc/arm-none-eabi/5.4.1/../../../../arm-none-eabi/lib/armv6-m/libc_nano.a(lib_a-sbrkr.o)
 .data          0x00000000        0x0 /home/laurie/gcc-arm/bin/../lib/gcc/arm-none-eabi/5.4.1/../../../../arm-none-eabi/lib/armv6-m/libc_nano.a(lib_a-sbrkr.o)
 .bss           0x00000000        0x0 /home/laurie/gcc-arm/bin/../lib/gcc/arm-none-eabi/5.4.1/../../../../arm-none-eabi/lib/armv6-m/libc_nano.a(lib_a-sbrkr.o)
 .data          0x00000000        0x0 /home/laurie/gcc-arm/bin/../lib/gcc/arm-none-eabi/5.4.1/../../../../arm-none-eabi/lib/armv6-m/libc_nano.a(lib_a-strlen.o)
 .bss           0x00000000        0x0 /home/laurie/gcc-arm/bin/../lib/gcc/arm-none-eabi/5.4.1/../../../../arm-none-eabi/lib/armv6-m/libc_nano.a(lib_a-strlen.o)
 .text          0x00000000        0x0 /home/laurie/gcc-arm/bin/../lib/gcc/arm-none-eabi/5.4.1/../../../../arm-none-eabi/lib/armv6-m/libc_nano.a(lib_a-wbuf.o)
 .data          0x00000000        0x0 /home/laurie/gcc-arm/bin/../lib/gcc/arm-none-eabi/5.4.1/../../../../arm-none-eabi/lib/armv6-m/libc_nano.a(lib_a-wbuf.o)
 .bss           0x00000000        0x0 /home/laurie/gcc-arm/bin/../lib/gcc/arm-none-eabi/5.4.1/../../../../arm-none-eabi/lib/armv6-m/libc_nano.a(lib_a-wbuf.o)
 .text.__swbuf  0x00000000       0x14 /home/laurie/gcc-arm/bin/../lib/gcc/arm-none-eabi/5.4.1/../../../../arm-none-eabi/lib/armv6-m/libc_nano.a(lib_a-wbuf.o)
 .text          0x00000000        0x0 /home/laurie/gcc-arm/bin/../lib/gcc/arm-none-eabi/5.4.1/../../../../arm-none-eabi/lib/armv6-m/libc_nano.a(lib_a-wsetup.o)
 .data          0x00000000        0x0 /home/laurie/gcc-arm/bin/../lib/gcc/arm-none-eabi/5.4.1/../../../../arm-none-eabi/lib/armv6-m/libc_nano.a(lib_a-wsetup.o)
 .bss           0x00000000        0x0 /home/laurie/gcc-arm/bin/../lib/gcc/arm-none-eabi/5.4.1/../../../../arm-none-eabi/lib/armv6-m/libc_nano.a(lib_a-wsetup.o)
 .text          0x00000000        0x0 /home/laurie/gcc-arm/bin/../lib/gcc/arm-none-eabi/5.4.1/../../../../arm-none-eabi/lib/armv6-m/libc_nano.a(lib_a-abort.o)
 .data          0x00000000        0x0 /home/laurie/gcc-arm/bin/../lib/gcc/arm-none-eabi/5.4.1/../../../../arm-none-eabi/lib/armv6-m/libc_nano.a(lib_a-abort.o)
 .bss           0x00000000        0x0 /home/laurie/gcc-arm/bin/../lib/gcc/arm-none-eabi/5.4.1/../../../../arm-none-eabi/lib/armv6-m/libc_nano.a(lib_a-abort.o)
 .text          0x00000000        0x0 /home/laurie/gcc-arm/bin/../lib/gcc/arm-none-eabi/5.4.1/../../../../arm-none-eabi/lib/armv6-m/libc_nano.a(lib_a-fflush.o)
 .data          0x00000000        0x0 /home/laurie/gcc-arm/bin/../lib/gcc/arm-none-eabi/5.4.1/../../../../arm-none-eabi/lib/armv6-m/libc_nano.a(lib_a-fflush.o)
 .bss           0x00000000        0x0 /home/laurie/gcc-arm/bin/../lib/gcc/arm-none-eabi/5.4.1/../../../../arm-none-eabi/lib/armv6-m/libc_nano.a(lib_a-fflush.o)
 .text.fflush   0x00000000       0x28 /home/laurie/gcc-arm/bin/../lib/gcc/arm-none-eabi/5.4.1/../../../../arm-none-eabi/lib/armv6-m/libc_nano.a(lib_a-fflush.o)
 .text          0x00000000        0x0 /home/laurie/gcc-arm/bin/../lib/gcc/arm-none-eabi/5.4.1/../../../../arm-none-eabi/lib/armv6-m/libc_nano.a(lib_a-findfp.o)
 .data          0x00000000        0x0 /home/laurie/gcc-arm/bin/../lib/gcc/arm-none-eabi/5.4.1/../../../../arm-none-eabi/lib/armv6-m/libc_nano.a(lib_a-findfp.o)
 .bss           0x00000000        0x0 /home/laurie/gcc-arm/bin/../lib/gcc/arm-none-eabi/5.4.1/../../../../arm-none-eabi/lib/armv6-m/libc_nano.a(lib_a-findfp.o)
 .text.__fp_unlock
                0x00000000        0x4 /home/laurie/gcc-arm/bin/../lib/gcc/arm-none-eabi/5.4.1/../../../../arm-none-eabi/lib/armv6-m/libc_nano.a(lib_a-findfp.o)
 .text.__fp_lock
                0x00000000        0x4 /home/laurie/gcc-arm/bin/../lib/gcc/arm-none-eabi/5.4.1/../../../../arm-none-eabi/lib/armv6-m/libc_nano.a(lib_a-findfp.o)
 .text._cleanup
                0x00000000       0x10 /home/laurie/gcc-arm/bin/../lib/gcc/arm-none-eabi/5.4.1/../../../../arm-none-eabi/lib/armv6-m/libc_nano.a(lib_a-findfp.o)
 .text.__sfp_lock_acquire
                0x00000000        0x2 /home/laurie/gcc-arm/bin/../lib/gcc/arm-none-eabi/5.4.1/../../../../arm-none-eabi/lib/armv6-m/libc_nano.a(lib_a-findfp.o)
 .text.__sfp_lock_release
                0x00000000        0x2 /home/laurie/gcc-arm/bin/../lib/gcc/arm-none-eabi/5.4.1/../../../../arm-none-eabi/lib/armv6-m/libc_nano.a(lib_a-findfp.o)
 .text.__sinit_lock_acquire
                0x00000000        0x2 /home/laurie/gcc-arm/bin/../lib/gcc/arm-none-eabi/5.4.1/../../../../arm-none-eabi/lib/armv6-m/libc_nano.a(lib_a-findfp.o)
 .text.__sinit_lock_release
                0x00000000        0x2 /home/laurie/gcc-arm/bin/../lib/gcc/arm-none-eabi/5.4.1/../../../../arm-none-eabi/lib/armv6-m/libc_nano.a(lib_a-findfp.o)
 .text.__fp_lock_all
                0x00000000       0x18 /home/laurie/gcc-arm/bin/../lib/gcc/arm-none-eabi/5.4.1/../../../../arm-none-eabi/lib/armv6-m/libc_nano.a(lib_a-findfp.o)
 .text.__fp_unlock_all
                0x00000000       0x18 /home/laurie/gcc-arm/bin/../lib/gcc/arm-none-eabi/5.4.1/../../../../arm-none-eabi/lib/armv6-m/libc_nano.a(lib_a-findfp.o)
 .text          0x00000000        0x0 /home/laurie/gcc-arm/bin/../lib/gcc/arm-none-eabi/5.4.1/../../../../arm-none-eabi/lib/armv6-m/libc_nano.a(lib_a-fvwrite.o)
 .data          0x00000000        0x0 /home/laurie/gcc-arm/bin/../lib/gcc/arm-none-eabi/5.4.1/../../../../arm-none-eabi/lib/armv6-m/libc_nano.a(lib_a-fvwrite.o)
 .bss           0x00000000        0x0 /home/laurie/gcc-arm/bin/../lib/gcc/arm-none-eabi/5.4.1/../../../../arm-none-eabi/lib/armv6-m/libc_nano.a(lib_a-fvwrite.o)
 .text.__sfvwrite_r
                0x00000000      0x2d0 /home/laurie/gcc-arm/bin/../lib/gcc/arm-none-eabi/5.4.1/../../../../arm-none-eabi/lib/armv6-m/libc_nano.a(lib_a-fvwrite.o)
 .debug_frame   0x00000000       0x30 /home/laurie/gcc-arm/bin/../lib/gcc/arm-none-eabi/5.4.1/../../../../arm-none-eabi/lib/armv6-m/libc_nano.a(lib_a-fvwrite.o)
 .ARM.attributes
                0x00000000       0x2c /home/laurie/gcc-arm/bin/../lib/gcc/arm-none-eabi/5.4.1/../../../../arm-none-eabi/lib/armv6-m/libc_nano.a(lib_a-fvwrite.o)
 .text          0x00000000        0x0 /home/laurie/gcc-arm/bin/../lib/gcc/arm-none-eabi/5.4.1/../../../../arm-none-eabi/lib/armv6-m/libc_nano.a(lib_a-fwalk.o)
 .data          0x00000000        0x0 /home/laurie/gcc-arm/bin/../lib/gcc/arm-none-eabi/5.4.1/../../../../arm-none-eabi/lib/armv6-m/libc_nano.a(lib_a-fwalk.o)
 .bss           0x00000000        0x0 /home/laurie/gcc-arm/bin/../lib/gcc/arm-none-eabi/5.4.1/../../../../arm-none-eabi/lib/armv6-m/libc_nano.a(lib_a-fwalk.o)
 .text._fwalk   0x00000000       0x38 /home/laurie/gcc-arm/bin/../lib/gcc/arm-none-eabi/5.4.1/../../../../arm-none-eabi/lib/armv6-m/libc_nano.a(lib_a-fwalk.o)
 .text          0x00000000        0x0 /home/laurie/gcc-arm/bin/../lib/gcc/arm-none-eabi/5.4.1/../../../../arm-none-eabi/lib/armv6-m/libc_nano.a(lib_a-makebuf.o)
 .data          0x00000000        0x0 /home/laurie/gcc-arm/bin/../lib/gcc/arm-none-eabi/5.4.1/../../../../arm-none-eabi/lib/armv6-m/libc_nano.a(lib_a-makebuf.o)
 .bss           0x00000000        0x0 /home/laurie/gcc-arm/bin/../lib/gcc/arm-none-eabi/5.4.1/../../../../arm-none-eabi/lib/armv6-m/libc_nano.a(lib_a-makebuf.o)
 .text          0x00000000        0x0 /home/laurie/gcc-arm/bin/../lib/gcc/arm-none-eabi/5.4.1/../../../../arm-none-eabi/lib/armv6-m/libc_nano.a(lib_a-memchr-stub.o)
 .data          0x00000000        0x0 /home/laurie/gcc-arm/bin/../lib/gcc/arm-none-eabi/5.4.1/../../../../arm-none-eabi/lib/armv6-m/libc_nano.a(lib_a-memchr-stub.o)
 .bss           0x00000000        0x0 /home/laurie/gcc-arm/bin/../lib/gcc/arm-none-eabi/5.4.1/../../../../arm-none-eabi/lib/armv6-m/libc_nano.a(lib_a-memchr-stub.o)
 .text          0x00000000        0x0 /home/laurie/gcc-arm/bin/../lib/gcc/arm-none-eabi/5.4.1/../../../../arm-none-eabi/lib/armv6-m/libc_nano.a(lib_a-memmove.o)
 .data          0x00000000        0x0 /home/laurie/gcc-arm/bin/../lib/gcc/arm-none-eabi/5.4.1/../../../../arm-none-eabi/lib/armv6-m/libc_nano.a(lib_a-memmove.o)
 .bss           0x00000000        0x0 /home/laurie/gcc-arm/bin/../lib/gcc/arm-none-eabi/5.4.1/../../../../arm-none-eabi/lib/armv6-m/libc_nano.a(lib_a-memmove.o)
 .text.memmove  0x00000000       0x2a /home/laurie/gcc-arm/bin/../lib/gcc/arm-none-eabi/5.4.1/../../../../arm-none-eabi/lib/armv6-m/libc_nano.a(lib_a-memmove.o)
 .debug_frame   0x00000000       0x28 /home/laurie/gcc-arm/bin/../lib/gcc/arm-none-eabi/5.4.1/../../../../arm-none-eabi/lib/armv6-m/libc_nano.a(lib_a-memmove.o)
 .ARM.attributes
                0x00000000       0x2c /home/laurie/gcc-arm/bin/../lib/gcc/arm-none-eabi/5.4.1/../../../../arm-none-eabi/lib/armv6-m/libc_nano.a(lib_a-memmove.o)
 .text          0x00000000        0x0 /home/laurie/gcc-arm/bin/../lib/gcc/arm-none-eabi/5.4.1/../../../../arm-none-eabi/lib/armv6-m/libc_nano.a(lib_a-mlock.o)
 .data          0x00000000        0x0 /home/laurie/gcc-arm/bin/../lib/gcc/arm-none-eabi/5.4.1/../../../../arm-none-eabi/lib/armv6-m/libc_nano.a(lib_a-mlock.o)
 .bss           0x00000000        0x0 /home/laurie/gcc-arm/bin/../lib/gcc/arm-none-eabi/5.4.1/../../../../arm-none-eabi/lib/armv6-m/libc_nano.a(lib_a-mlock.o)
 .text          0x00000000        0x0 /home/laurie/gcc-arm/bin/../lib/gcc/arm-none-eabi/5.4.1/../../../../arm-none-eabi/lib/armv6-m/libc_nano.a(lib_a-nano-reallocr.o)
 .data          0x00000000        0x0 /home/laurie/gcc-arm/bin/../lib/gcc/arm-none-eabi/5.4.1/../../../../arm-none-eabi/lib/armv6-m/libc_nano.a(lib_a-nano-reallocr.o)
 .bss           0x00000000        0x0 /home/laurie/gcc-arm/bin/../lib/gcc/arm-none-eabi/5.4.1/../../../../arm-none-eabi/lib/armv6-m/libc_nano.a(lib_a-nano-reallocr.o)
 .text._realloc_r
                0x00000000       0x4c /home/laurie/gcc-arm/bin/../lib/gcc/arm-none-eabi/5.4.1/../../../../arm-none-eabi/lib/armv6-m/libc_nano.a(lib_a-nano-reallocr.o)
 .debug_frame   0x00000000       0x30 /home/laurie/gcc-arm/bin/../lib/gcc/arm-none-eabi/5.4.1/../../../../arm-none-eabi/lib/armv6-m/libc_nano.a(lib_a-nano-reallocr.o)
 .ARM.attributes
                0x00000000       0x2c /home/laurie/gcc-arm/bin/../lib/gcc/arm-none-eabi/5.4.1/../../../../arm-none-eabi/lib/armv6-m/libc_nano.a(lib_a-nano-reallocr.o)
 .text          0x00000000        0x0 /home/laurie/gcc-arm/bin/../lib/gcc/arm-none-eabi/5.4.1/../../../../arm-none-eabi/lib/armv6-m/libc_nano.a(lib_a-reent.o)
 .data          0x00000000        0x0 /home/laurie/gcc-arm/bin/../lib/gcc/arm-none-eabi/5.4.1/../../../../arm-none-eabi/lib/armv6-m/libc_nano.a(lib_a-reent.o)
 .bss           0x00000000        0x0 /home/laurie/gcc-arm/bin/../lib/gcc/arm-none-eabi/5.4.1/../../../../arm-none-eabi/lib/armv6-m/libc_nano.a(lib_a-reent.o)
 .text.cleanup_glue
                0x00000000       0x1a /home/laurie/gcc-arm/bin/../lib/gcc/arm-none-eabi/5.4.1/../../../../arm-none-eabi/lib/armv6-m/libc_nano.a(lib_a-reent.o)
 .text._reclaim_reent
                0x00000000       0xcc /home/laurie/gcc-arm/bin/../lib/gcc/arm-none-eabi/5.4.1/../../../../arm-none-eabi/lib/armv6-m/libc_nano.a(lib_a-reent.o)
 .text          0x00000000        0x0 /home/laurie/gcc-arm/bin/../lib/gcc/arm-none-eabi/5.4.1/../../../../arm-none-eabi/lib/armv6-m/libc_nano.a(lib_a-signal.o)
 .data          0x00000000        0x0 /home/laurie/gcc-arm/bin/../lib/gcc/arm-none-eabi/5.4.1/../../../../arm-none-eabi/lib/armv6-m/libc_nano.a(lib_a-signal.o)
 .bss           0x00000000        0x0 /home/laurie/gcc-arm/bin/../lib/gcc/arm-none-eabi/5.4.1/../../../../arm-none-eabi/lib/armv6-m/libc_nano.a(lib_a-signal.o)
 .text._init_signal_r
                0x00000000       0x30 /home/laurie/gcc-arm/bin/../lib/gcc/arm-none-eabi/5.4.1/../../../../arm-none-eabi/lib/armv6-m/libc_nano.a(lib_a-signal.o)
 .text._signal_r
                0x00000000       0x32 /home/laurie/gcc-arm/bin/../lib/gcc/arm-none-eabi/5.4.1/../../../../arm-none-eabi/lib/armv6-m/libc_nano.a(lib_a-signal.o)
 .text.__sigtramp_r
                0x00000000       0x48 /home/laurie/gcc-arm/bin/../lib/gcc/arm-none-eabi/5.4.1/../../../../arm-none-eabi/lib/armv6-m/libc_nano.a(lib_a-signal.o)
 .text.signal   0x00000000       0x14 /home/laurie/gcc-arm/bin/../lib/gcc/arm-none-eabi/5.4.1/../../../../arm-none-eabi/lib/armv6-m/libc_nano.a(lib_a-signal.o)
 .text._init_signal
                0x00000000       0x10 /home/laurie/gcc-arm/bin/../lib/gcc/arm-none-eabi/5.4.1/../../../../arm-none-eabi/lib/armv6-m/libc_nano.a(lib_a-signal.o)
 .text.__sigtramp
                0x00000000       0x14 /home/laurie/gcc-arm/bin/../lib/gcc/arm-none-eabi/5.4.1/../../../../arm-none-eabi/lib/armv6-m/libc_nano.a(lib_a-signal.o)
 .text          0x00000000        0x0 /home/laurie/gcc-arm/bin/../lib/gcc/arm-none-eabi/5.4.1/../../../../arm-none-eabi/lib/armv6-m/libc_nano.a(lib_a-signalr.o)
 .data          0x00000000        0x0 /home/laurie/gcc-arm/bin/../lib/gcc/arm-none-eabi/5.4.1/../../../../arm-none-eabi/lib/armv6-m/libc_nano.a(lib_a-signalr.o)
 .bss           0x00000000        0x0 /home/laurie/gcc-arm/bin/../lib/gcc/arm-none-eabi/5.4.1/../../../../arm-none-eabi/lib/armv6-m/libc_nano.a(lib_a-signalr.o)
 .text          0x00000000        0x0 /home/laurie/gcc-arm/bin/../lib/gcc/arm-none-eabi/5.4.1/../../../../arm-none-eabi/lib/armv6-m/libc_nano.a(lib_a-stdio.o)
 .data          0x00000000        0x0 /home/laurie/gcc-arm/bin/../lib/gcc/arm-none-eabi/5.4.1/../../../../arm-none-eabi/lib/armv6-m/libc_nano.a(lib_a-stdio.o)
 .bss           0x00000000        0x0 /home/laurie/gcc-arm/bin/../lib/gcc/arm-none-eabi/5.4.1/../../../../arm-none-eabi/lib/armv6-m/libc_nano.a(lib_a-stdio.o)
 .text.__seofread
                0x00000000        0x4 /home/laurie/gcc-arm/bin/../lib/gcc/arm-none-eabi/5.4.1/../../../../arm-none-eabi/lib/armv6-m/libc_nano.a(lib_a-stdio.o)
 .text          0x00000000        0x0 /home/laurie/gcc-arm/bin/../lib/gcc/arm-none-eabi/5.4.1/../../../../arm-none-eabi/lib/armv6-m/libc_nano.a(lib_a-writer.o)
 .data          0x00000000        0x0 /home/laurie/gcc-arm/bin/../lib/gcc/arm-none-eabi/5.4.1/../../../../arm-none-eabi/lib/armv6-m/libc_nano.a(lib_a-writer.o)
 .bss           0x00000000        0x0 /home/laurie/gcc-arm/bin/../lib/gcc/arm-none-eabi/5.4.1/../../../../arm-none-eabi/lib/armv6-m/libc_nano.a(lib_a-writer.o)
 .text          0x00000000        0x0 /home/laurie/gcc-arm/bin/../lib/gcc/arm-none-eabi/5.4.1/../../../../arm-none-eabi/lib/armv6-m/libc_nano.a(lib_a-closer.o)
 .data          0x00000000        0x0 /home/laurie/gcc-arm/bin/../lib/gcc/arm-none-eabi/5.4.1/../../../../arm-none-eabi/lib/armv6-m/libc_nano.a(lib_a-closer.o)
 .bss           0x00000000        0x0 /home/laurie/gcc-arm/bin/../lib/gcc/arm-none-eabi/5.4.1/../../../../arm-none-eabi/lib/armv6-m/libc_nano.a(lib_a-closer.o)
 .text          0x00000000        0x0 /home/laurie/gcc-arm/bin/../lib/gcc/arm-none-eabi/5.4.1/../../../../arm-none-eabi/lib/armv6-m/libc_nano.a(lib_a-fstatr.o)
 .data          0x00000000        0x0 /home/laurie/gcc-arm/bin/../lib/gcc/arm-none-eabi/5.4.1/../../../../arm-none-eabi/lib/armv6-m/libc_nano.a(lib_a-fstatr.o)
 .bss           0x00000000        0x0 /home/laurie/gcc-arm/bin/../lib/gcc/arm-none-eabi/5.4.1/../../../../arm-none-eabi/lib/armv6-m/libc_nano.a(lib_a-fstatr.o)
 .text          0x00000000        0x0 /home/laurie/gcc-arm/bin/../lib/gcc/arm-none-eabi/5.4.1/../../../../arm-none-eabi/lib/armv6-m/libc_nano.a(lib_a-isattyr.o)
 .data          0x00000000        0x0 /home/laurie/gcc-arm/bin/../lib/gcc/arm-none-eabi/5.4.1/../../../../arm-none-eabi/lib/armv6-m/libc_nano.a(lib_a-isattyr.o)
 .bss           0x00000000        0x0 /home/laurie/gcc-arm/bin/../lib/gcc/arm-none-eabi/5.4.1/../../../../arm-none-eabi/lib/armv6-m/libc_nano.a(lib_a-isattyr.o)
 .text          0x00000000        0x0 /home/laurie/gcc-arm/bin/../lib/gcc/arm-none-eabi/5.4.1/../../../../arm-none-eabi/lib/armv6-m/libc_nano.a(lib_a-lseekr.o)
 .data          0x00000000        0x0 /home/laurie/gcc-arm/bin/../lib/gcc/arm-none-eabi/5.4.1/../../../../arm-none-eabi/lib/armv6-m/libc_nano.a(lib_a-lseekr.o)
 .bss           0x00000000        0x0 /home/laurie/gcc-arm/bin/../lib/gcc/arm-none-eabi/5.4.1/../../../../arm-none-eabi/lib/armv6-m/libc_nano.a(lib_a-lseekr.o)
 .text          0x00000000        0x0 /home/laurie/gcc-arm/bin/../lib/gcc/arm-none-eabi/5.4.1/../../../../arm-none-eabi/lib/armv6-m/libc_nano.a(lib_a-nano-msizer.o)
 .data          0x00000000        0x0 /home/laurie/gcc-arm/bin/../lib/gcc/arm-none-eabi/5.4.1/../../../../arm-none-eabi/lib/armv6-m/libc_nano.a(lib_a-nano-msizer.o)
 .bss           0x00000000        0x0 /home/laurie/gcc-arm/bin/../lib/gcc/arm-none-eabi/5.4.1/../../../../arm-none-eabi/lib/armv6-m/libc_nano.a(lib_a-nano-msizer.o)
 .text._malloc_usable_size_r
                0x00000000       0x16 /home/laurie/gcc-arm/bin/../lib/gcc/arm-none-eabi/5.4.1/../../../../arm-none-eabi/lib/armv6-m/libc_nano.a(lib_a-nano-msizer.o)
 .debug_frame   0x00000000       0x20 /home/laurie/gcc-arm/bin/../lib/gcc/arm-none-eabi/5.4.1/../../../../arm-none-eabi/lib/armv6-m/libc_nano.a(lib_a-nano-msizer.o)
 .ARM.attributes
                0x00000000       0x2c /home/laurie/gcc-arm/bin/../lib/gcc/arm-none-eabi/5.4.1/../../../../arm-none-eabi/lib/armv6-m/libc_nano.a(lib_a-nano-msizer.o)
 .text          0x00000000        0x0 /home/laurie/gcc-arm/bin/../lib/gcc/arm-none-eabi/5.4.1/../../../../arm-none-eabi/lib/armv6-m/libc_nano.a(lib_a-readr.o)
 .data          0x00000000        0x0 /home/laurie/gcc-arm/bin/../lib/gcc/arm-none-eabi/5.4.1/../../../../arm-none-eabi/lib/armv6-m/libc_nano.a(lib_a-readr.o)
 .bss           0x00000000        0x0 /home/laurie/gcc-arm/bin/../lib/gcc/arm-none-eabi/5.4.1/../../../../arm-none-eabi/lib/armv6-m/libc_nano.a(lib_a-readr.o)
 .data          0x00000000        0x0 /home/laurie/gcc-arm/bin/../lib/gcc/arm-none-eabi/5.4.1/armv6-m/libgcc.a(_udivsi3.o)
 .bss           0x00000000        0x0 /home/laurie/gcc-arm/bin/../lib/gcc/arm-none-eabi/5.4.1/armv6-m/libgcc.a(_udivsi3.o)
 .data          0x00000000        0x0 /home/laurie/gcc-arm/bin/../lib/gcc/arm-none-eabi/5.4.1/armv6-m/libgcc.a(_divsi3.o)
 .bss           0x00000000        0x0 /home/laurie/gcc-arm/bin/../lib/gcc/arm-none-eabi/5.4.1/armv6-m/libgcc.a(_divsi3.o)
 .data          0x00000000        0x0 /home/laurie/gcc-arm/bin/../lib/gcc/arm-none-eabi/5.4.1/armv6-m/libgcc.a(_dvmd_tls.o)
 .bss           0x00000000        0x0 /home/laurie/gcc-arm/bin/../lib/gcc/arm-none-eabi/5.4.1/armv6-m/libgcc.a(_dvmd_tls.o)
 .text          0x00000000        0x0 /home/laurie/gcc-arm/bin/../lib/gcc/arm-none-eabi/5.4.1/../../../../arm-none-eabi/lib/armv6-m/libnosys.a(close.o)
 .data          0x00000000        0x0 /home/laurie/gcc-arm/bin/../lib/gcc/arm-none-eabi/5.4.1/../../../../arm-none-eabi/lib/armv6-m/libnosys.a(close.o)
 .bss           0x00000000        0x0 /home/laurie/gcc-arm/bin/../lib/gcc/arm-none-eabi/5.4.1/../../../../arm-none-eabi/lib/armv6-m/libnosys.a(close.o)
 .text          0x00000000        0x0 /home/laurie/gcc-arm/bin/../lib/gcc/arm-none-eabi/5.4.1/../../../../arm-none-eabi/lib/armv6-m/libnosys.a(fstat.o)
 .data          0x00000000        0x0 /home/laurie/gcc-arm/bin/../lib/gcc/arm-none-eabi/5.4.1/../../../../arm-none-eabi/lib/armv6-m/libnosys.a(fstat.o)
 .bss           0x00000000        0x0 /home/laurie/gcc-arm/bin/../lib/gcc/arm-none-eabi/5.4.1/../../../../arm-none-eabi/lib/armv6-m/libnosys.a(fstat.o)
 .text          0x00000000        0x0 /home/laurie/gcc-arm/bin/../lib/gcc/arm-none-eabi/5.4.1/../../../../arm-none-eabi/lib/armv6-m/libnosys.a(getpid.o)
 .data          0x00000000        0x0 /home/laurie/gcc-arm/bin/../lib/gcc/arm-none-eabi/5.4.1/../../../../arm-none-eabi/lib/armv6-m/libnosys.a(getpid.o)
 .bss           0x00000000        0x0 /home/laurie/gcc-arm/bin/../lib/gcc/arm-none-eabi/5.4.1/../../../../arm-none-eabi/lib/armv6-m/libnosys.a(getpid.o)
 .text          0x00000000        0x0 /home/laurie/gcc-arm/bin/../lib/gcc/arm-none-eabi/5.4.1/../../../../arm-none-eabi/lib/armv6-m/libnosys.a(isatty.o)
 .data          0x00000000        0x0 /home/laurie/gcc-arm/bin/../lib/gcc/arm-none-eabi/5.4.1/../../../../arm-none-eabi/lib/armv6-m/libnosys.a(isatty.o)
 .bss           0x00000000        0x0 /home/laurie/gcc-arm/bin/../lib/gcc/arm-none-eabi/5.4.1/../../../../arm-none-eabi/lib/armv6-m/libnosys.a(isatty.o)
 .text          0x00000000        0x0 /home/laurie/gcc-arm/bin/../lib/gcc/arm-none-eabi/5.4.1/../../../../arm-none-eabi/lib/armv6-m/libnosys.a(kill.o)
 .data          0x00000000        0x0 /home/laurie/gcc-arm/bin/../lib/gcc/arm-none-eabi/5.4.1/../../../../arm-none-eabi/lib/armv6-m/libnosys.a(kill.o)
 .bss           0x00000000        0x0 /home/laurie/gcc-arm/bin/../lib/gcc/arm-none-eabi/5.4.1/../../../../arm-none-eabi/lib/armv6-m/libnosys.a(kill.o)
 .text          0x00000000        0x0 /home/laurie/gcc-arm/bin/../lib/gcc/arm-none-eabi/5.4.1/../../../../arm-none-eabi/lib/armv6-m/libnosys.a(lseek.o)
 .data          0x00000000        0x0 /home/laurie/gcc-arm/bin/../lib/gcc/arm-none-eabi/5.4.1/../../../../arm-none-eabi/lib/armv6-m/libnosys.a(lseek.o)
 .bss           0x00000000        0x0 /home/laurie/gcc-arm/bin/../lib/gcc/arm-none-eabi/5.4.1/../../../../arm-none-eabi/lib/armv6-m/libnosys.a(lseek.o)
 .text          0x00000000        0x0 /home/laurie/gcc-arm/bin/../lib/gcc/arm-none-eabi/5.4.1/../../../../arm-none-eabi/lib/armv6-m/libnosys.a(_exit.o)
 .data          0x00000000        0x0 /home/laurie/gcc-arm/bin/../lib/gcc/arm-none-eabi/5.4.1/../../../../arm-none-eabi/lib/armv6-m/libnosys.a(_exit.o)
 .bss           0x00000000        0x0 /home/laurie/gcc-arm/bin/../lib/gcc/arm-none-eabi/5.4.1/../../../../arm-none-eabi/lib/armv6-m/libnosys.a(_exit.o)
 .text          0x00000000        0x0 /home/laurie/gcc-arm/bin/../lib/gcc/arm-none-eabi/5.4.1/armv6-m/crtend.o
 .data          0x00000000        0x0 /home/laurie/gcc-arm/bin/../lib/gcc/arm-none-eabi/5.4.1/armv6-m/crtend.o
 .bss           0x00000000        0x0 /home/laurie/gcc-arm/bin/../lib/gcc/arm-none-eabi/5.4.1/armv6-m/crtend.o
 .eh_frame      0x00000000        0x4 /home/laurie/gcc-arm/bin/../lib/gcc/arm-none-eabi/5.4.1/armv6-m/crtend.o
 .text          0x00000000        0x0 /home/laurie/gcc-arm/bin/../lib/gcc/arm-none-eabi/5.4.1/armv6-m/crtn.o
 .data          0x00000000        0x0 /home/laurie/gcc-arm/bin/../lib/gcc/arm-none-eabi/5.4.1/armv6-m/crtn.o
 .bss           0x00000000        0x0 /home/laurie/gcc-arm/bin/../lib/gcc/arm-none-eabi/5.4.1/armv6-m/crtn.o

Memory Configuration

Name             Origin             Length             Attributes
m_interrupts     0x00000000         0x00000100         xr
m_flash_config   0x00000400         0x00000010         xr
m_text           0x00000410         0x0003fbf0         xr
m_data           0x1fffe000         0x00008000         rw
*default*        0x00000000         0xffffffff

Linker script and memory map

LOAD /home/laurie/gcc-arm/bin/../lib/gcc/arm-none-eabi/5.4.1/armv6-m/crti.o
LOAD /home/laurie/gcc-arm/bin/../lib/gcc/arm-none-eabi/5.4.1/armv6-m/crtbegin.o
LOAD /home/laurie/gcc-arm/bin/../lib/gcc/arm-none-eabi/5.4.1/../../../../arm-none-eabi/lib/armv6-m/crt0.o
                0x00000001                __ram_vector_table__ = 0x1
LOAD /home/laurie/gcc-arm/bin/../lib/gcc/arm-none-eabi/5.4.1/../../../../arm-none-eabi/lib/armv6-m/libm.a
                0x00000400                __stack_size__ = 0x400
                0x00000400                __heap_size__ = 0x400
LOAD CMakeFiles/dev_hid_mouse_bm.dir/home/laurie/RTES/KSDK_1.3.0/platform/utilities/src/fsl_misc_utilities.c.obj
LOAD CMakeFiles/dev_hid_mouse_bm.dir/home/laurie/RTES/KSDK_1.3.0/platform/devices/MKL46Z4/startup/gcc/startup_MKL46Z4.S.obj
LOAD CMakeFiles/dev_hid_mouse_bm.dir/home/laurie/RTES/KSDK_1.3.0/examples/frdmkl46z/demo_apps/usb/device/hid/hid_mouse/mouse.c.obj
LOAD CMakeFiles/dev_hid_mouse_bm.dir/home/laurie/RTES/KSDK_1.3.0/examples/frdmkl46z/demo_apps/usb/device/hid/hid_mouse/usb_descriptor.c.obj
LOAD CMakeFiles/dev_hid_mouse_bm.dir/home/laurie/RTES/KSDK_1.3.0/examples/frdmkl46z/demo_apps/usb/device/hid/hid_mouse/hardware_init.c.obj
LOAD CMakeFiles/dev_hid_mouse_bm.dir/home/laurie/RTES/KSDK_1.3.0/examples/frdmkl46z/gpio_pins.c.obj
LOAD CMakeFiles/dev_hid_mouse_bm.dir/home/laurie/RTES/KSDK_1.3.0/examples/frdmkl46z/pin_mux.c.obj
LOAD CMakeFiles/dev_hid_mouse_bm.dir/home/laurie/RTES/KSDK_1.3.0/examples/frdmkl46z/board.c.obj
LOAD CMakeFiles/dev_hid_mouse_bm.dir/home/laurie/RTES/KSDK_1.3.0/platform/utilities/src/fsl_debug_console.c.obj
LOAD CMakeFiles/dev_hid_mouse_bm.dir/home/laurie/RTES/KSDK_1.3.0/platform/utilities/src/print_scan.c.obj
LOAD CMakeFiles/dev_hid_mouse_bm.dir/home/laurie/RTES/KSDK_1.3.0/platform/devices/MKL46Z4/startup/system_MKL46Z4.c.obj
LOAD CMakeFiles/dev_hid_mouse_bm.dir/home/laurie/RTES/KSDK_1.3.0/platform/devices/startup.c.obj
START GROUP
LOAD ../../../../../../../../../usb/usb_core/device/lib/bm/armgcc/MKL46Z4/debug/libusbd_bm.a
LOAD ../../../../../../../../../lib/ksdk_platform_lib/armgcc/KL46Z4/debug/libksdk_platform.a
LOAD /home/laurie/gcc-arm/bin/../lib/gcc/arm-none-eabi/5.4.1/../../../../arm-none-eabi/lib/armv6-m/libm.a
LOAD /home/laurie/gcc-arm/bin/../lib/gcc/arm-none-eabi/5.4.1/../../../../arm-none-eabi/lib/armv6-m/libc_nano.a
LOAD /home/laurie/gcc-arm/bin/../lib/gcc/arm-none-eabi/5.4.1/armv6-m/libgcc.a
LOAD /home/laurie/gcc-arm/bin/../lib/gcc/arm-none-eabi/5.4.1/../../../../arm-none-eabi/lib/armv6-m/libnosys.a
END GROUP
START GROUP
LOAD /home/laurie/gcc-arm/bin/../lib/gcc/arm-none-eabi/5.4.1/armv6-m/libgcc.a
LOAD /home/laurie/gcc-arm/bin/../lib/gcc/arm-none-eabi/5.4.1/../../../../arm-none-eabi/lib/armv6-m/libg_nano.a
LOAD /home/laurie/gcc-arm/bin/../lib/gcc/arm-none-eabi/5.4.1/../../../../arm-none-eabi/lib/armv6-m/libc_nano.a
END GROUP
START GROUP
LOAD /home/laurie/gcc-arm/bin/../lib/gcc/arm-none-eabi/5.4.1/armv6-m/libgcc.a
LOAD /home/laurie/gcc-arm/bin/../lib/gcc/arm-none-eabi/5.4.1/../../../../arm-none-eabi/lib/armv6-m/libc_nano.a
END GROUP
LOAD /home/laurie/gcc-arm/bin/../lib/gcc/arm-none-eabi/5.4.1/armv6-m/crtend.o
LOAD /home/laurie/gcc-arm/bin/../lib/gcc/arm-none-eabi/5.4.1/armv6-m/crtn.o
                0x00000400                HEAP_SIZE = DEFINED (__heap_size__)?__heap_size__:0x400
                0x00000400                STACK_SIZE = DEFINED (__stack_size__)?__stack_size__:0x400
                0x00000000                M_VECTOR_RAM_SIZE = DEFINED (__ram_vector_table__)?0x100:0x0

.interrupts     0x00000000       0xc0
                0x00000000                __VECTOR_TABLE = .
                0x00000000                . = ALIGN (0x4)
 *(.isr_vector)
 .isr_vector    0x00000000       0xc0 CMakeFiles/dev_hid_mouse_bm.dir/home/laurie/RTES/KSDK_1.3.0/platform/devices/MKL46Z4/startup/gcc/startup_MKL46Z4.S.obj
                0x00000000                __isr_vector
                0x000000c0                . = ALIGN (0x4)

.flash_config   0x00000400       0x10
                0x00000400                . = ALIGN (0x4)
 *(.FlashConfig)
 .FlashConfig   0x00000400       0x10 CMakeFiles/dev_hid_mouse_bm.dir/home/laurie/RTES/KSDK_1.3.0/platform/devices/MKL46Z4/startup/gcc/startup_MKL46Z4.S.obj
                0x00000410                . = ALIGN (0x4)

.text           0x00000410     0x9a24
                0x00000410                . = ALIGN (0x4)
 *(.text)
 .text          0x00000410       0x60 /home/laurie/gcc-arm/bin/../lib/gcc/arm-none-eabi/5.4.1/armv6-m/crtbegin.o
 .text          0x00000470       0x78 /home/laurie/gcc-arm/bin/../lib/gcc/arm-none-eabi/5.4.1/../../../../arm-none-eabi/lib/armv6-m/crt0.o
                0x00000470                _mainCRTStartup
                0x00000470                _start
 .text          0x000004e8       0x18 CMakeFiles/dev_hid_mouse_bm.dir/home/laurie/RTES/KSDK_1.3.0/platform/devices/MKL46Z4/startup/gcc/startup_MKL46Z4.S.obj
                0x000004e8                Reset_Handler
                0x000004f8                I2C0_IRQHandler
                0x000004f8                HardFault_Handler
                0x000004f8                SysTick_Handler
                0x000004f8                PendSV_Handler
                0x000004f8                NMI_Handler
                0x000004f8                PORTC_PORTD_IRQHandler
                0x000004f8                I2C1_IRQHandler
                0x000004f8                UART1_IRQHandler
                0x000004f8                DMA2_IRQHandler
                0x000004f8                TPM0_IRQHandler
                0x000004f8                I2S0_IRQHandler
                0x000004f8                LLWU_IRQHandler
                0x000004f8                TSI0_IRQHandler
                0x000004f8                UART0_IRQHandler
                0x000004f8                ADC0_IRQHandler
                0x000004f8                SPI1_IRQHandler
                0x000004f8                DefaultISR
                0x000004f8                TPM2_IRQHandler
                0x000004f8                RTC_IRQHandler
                0x000004f8                LCD_IRQHandler
                0x000004f8                RTC_Seconds_IRQHandler
                0x000004f8                MCG_IRQHandler
                0x000004f8                UART2_IRQHandler
                0x000004f8                Reserved20_IRQHandler
                0x000004f8                USB0_IRQHandler
                0x000004f8                PIT_IRQHandler
                0x000004f8                SVC_Handler
                0x000004f8                DMA3_IRQHandler
                0x000004f8                DMA0_IRQHandler
                0x000004f8                DAC0_IRQHandler
                0x000004f8                TPM1_IRQHandler
                0x000004f8                LVD_LVW_IRQHandler
                0x000004f8                SPI0_IRQHandler
                0x000004f8                PORTA_IRQHandler
                0x000004f8                FTFA_IRQHandler
                0x000004f8                LPTMR0_IRQHandler
                0x000004f8                CMP0_IRQHandler
                0x000004f8                DMA1_IRQHandler
 .text          0x00000500        0xe /home/laurie/gcc-arm/bin/../lib/gcc/arm-none-eabi/5.4.1/../../../../arm-none-eabi/lib/armv6-m/libc_nano.a(lib_a-strlen.o)
                0x00000500                strlen
 *fill*         0x0000050e        0x2 
 .text          0x00000510      0x114 /home/laurie/gcc-arm/bin/../lib/gcc/arm-none-eabi/5.4.1/armv6-m/libgcc.a(_udivsi3.o)
                0x00000510                __udivsi3
                0x00000510                __aeabi_uidiv
                0x0000061c                __aeabi_uidivmod
 .text          0x00000624      0x1d4 /home/laurie/gcc-arm/bin/../lib/gcc/arm-none-eabi/5.4.1/armv6-m/libgcc.a(_divsi3.o)
                0x00000624                __aeabi_idiv
                0x00000624                __divsi3
                0x000007f0                __aeabi_idivmod
 .text          0x000007f8        0x4 /home/laurie/gcc-arm/bin/../lib/gcc/arm-none-eabi/5.4.1/armv6-m/libgcc.a(_dvmd_tls.o)
                0x000007f8                __aeabi_ldiv0
                0x000007f8                __aeabi_idiv0
 *(.text*)
 .text._sbrk    0x000007fc       0x5c CMakeFiles/dev_hid_mouse_bm.dir/home/laurie/RTES/KSDK_1.3.0/platform/utilities/src/fsl_misc_utilities.c.obj
                0x000007fc                _sbrk
 .text.move_mouse
                0x00000858      0x128 CMakeFiles/dev_hid_mouse_bm.dir/home/laurie/RTES/KSDK_1.3.0/examples/frdmkl46z/demo_apps/usb/device/hid/hid_mouse/mouse.c.obj
 .text.USB_App_Device_Callback
                0x00000980       0x74 CMakeFiles/dev_hid_mouse_bm.dir/home/laurie/RTES/KSDK_1.3.0/examples/frdmkl46z/demo_apps/usb/device/hid/hid_mouse/mouse.c.obj
                0x00000980                USB_App_Device_Callback
 .text.USB_App_Class_Callback
                0x000009f4      0x15c CMakeFiles/dev_hid_mouse_bm.dir/home/laurie/RTES/KSDK_1.3.0/examples/frdmkl46z/demo_apps/usb/device/hid/hid_mouse/mouse.c.obj
                0x000009f4                USB_App_Class_Callback
 .text.APP_init
                0x00000b50       0x84 CMakeFiles/dev_hid_mouse_bm.dir/home/laurie/RTES/KSDK_1.3.0/examples/frdmkl46z/demo_apps/usb/device/hid/hid_mouse/mouse.c.obj
                0x00000b50                APP_init
 .text.Task_Start
                0x00000bd4       0x10 CMakeFiles/dev_hid_mouse_bm.dir/home/laurie/RTES/KSDK_1.3.0/examples/frdmkl46z/demo_apps/usb/device/hid/hid_mouse/mouse.c.obj
 .text.main     0x00000be4       0x40 CMakeFiles/dev_hid_mouse_bm.dir/home/laurie/RTES/KSDK_1.3.0/examples/frdmkl46z/demo_apps/usb/device/hid/hid_mouse/mouse.c.obj
                0x00000be4                main
 .text.USB_Desc_Get_Descriptor
                0x00000c24      0x18c CMakeFiles/dev_hid_mouse_bm.dir/home/laurie/RTES/KSDK_1.3.0/examples/frdmkl46z/demo_apps/usb/device/hid/hid_mouse/usb_descriptor.c.obj
                0x00000c24                USB_Desc_Get_Descriptor
 .text.USB_Desc_Get_Interface
                0x00000db0       0x3c CMakeFiles/dev_hid_mouse_bm.dir/home/laurie/RTES/KSDK_1.3.0/examples/frdmkl46z/demo_apps/usb/device/hid/hid_mouse/usb_descriptor.c.obj
                0x00000db0                USB_Desc_Get_Interface
 .text.USB_Desc_Set_Interface
                0x00000dec       0x40 CMakeFiles/dev_hid_mouse_bm.dir/home/laurie/RTES/KSDK_1.3.0/examples/frdmkl46z/demo_apps/usb/device/hid/hid_mouse/usb_descriptor.c.obj
                0x00000dec                USB_Desc_Set_Interface
 .text.USB_Set_Configuration
                0x00000e2c       0x18 CMakeFiles/dev_hid_mouse_bm.dir/home/laurie/RTES/KSDK_1.3.0/examples/frdmkl46z/demo_apps/usb/device/hid/hid_mouse/usb_descriptor.c.obj
                0x00000e2c                USB_Set_Configuration
 .text.USB_Desc_Get_Entity
                0x00000e44       0x4c CMakeFiles/dev_hid_mouse_bm.dir/home/laurie/RTES/KSDK_1.3.0/examples/frdmkl46z/demo_apps/usb/device/hid/hid_mouse/usb_descriptor.c.obj
                0x00000e44                USB_Desc_Get_Entity
 .text.USB_Desc_Set_Speed
                0x00000e90       0xe8 CMakeFiles/dev_hid_mouse_bm.dir/home/laurie/RTES/KSDK_1.3.0/examples/frdmkl46z/demo_apps/usb/device/hid/hid_mouse/usb_descriptor.c.obj
                0x00000e90                USB_Desc_Set_Speed
 .text.hardware_init
                0x00000f78       0x3c CMakeFiles/dev_hid_mouse_bm.dir/home/laurie/RTES/KSDK_1.3.0/examples/frdmkl46z/demo_apps/usb/device/hid/hid_mouse/hardware_init.c.obj
                0x00000f78                hardware_init
 .text.PORT_HAL_SetMuxMode
                0x00000fb4       0x50 CMakeFiles/dev_hid_mouse_bm.dir/home/laurie/RTES/KSDK_1.3.0/examples/frdmkl46z/pin_mux.c.obj
 .text.configure_lpsci_pins
                0x00001004       0x38 CMakeFiles/dev_hid_mouse_bm.dir/home/laurie/RTES/KSDK_1.3.0/examples/frdmkl46z/pin_mux.c.obj
                0x00001004                configure_lpsci_pins
 .text.PORT_HAL_SetMuxMode
                0x0000103c       0x50 CMakeFiles/dev_hid_mouse_bm.dir/home/laurie/RTES/KSDK_1.3.0/examples/frdmkl46z/board.c.obj
 .text.CLOCK_HAL_SetLpsciSrc
                0x0000108c       0x34 CMakeFiles/dev_hid_mouse_bm.dir/home/laurie/RTES/KSDK_1.3.0/examples/frdmkl46z/board.c.obj
 .text.CLOCK_SYS_SetLpsciSrc
                0x000010c0       0x28 CMakeFiles/dev_hid_mouse_bm.dir/home/laurie/RTES/KSDK_1.3.0/examples/frdmkl46z/board.c.obj
 .text.SMC_HAL_SetProtection
                0x000010e8       0x20 CMakeFiles/dev_hid_mouse_bm.dir/home/laurie/RTES/KSDK_1.3.0/examples/frdmkl46z/board.c.obj
 .text.BOARD_InitOsc0
                0x00001108       0x3c CMakeFiles/dev_hid_mouse_bm.dir/home/laurie/RTES/KSDK_1.3.0/examples/frdmkl46z/board.c.obj
                0x00001108                BOARD_InitOsc0
 .text.CLOCK_SetBootConfig
                0x00001144       0x3c CMakeFiles/dev_hid_mouse_bm.dir/home/laurie/RTES/KSDK_1.3.0/examples/frdmkl46z/board.c.obj
 .text.BOARD_ClockInit
                0x00001180       0x44 CMakeFiles/dev_hid_mouse_bm.dir/home/laurie/RTES/KSDK_1.3.0/examples/frdmkl46z/board.c.obj
                0x00001180                BOARD_ClockInit
 .text.dbg_uart_init
                0x000011c4       0x28 CMakeFiles/dev_hid_mouse_bm.dir/home/laurie/RTES/KSDK_1.3.0/examples/frdmkl46z/board.c.obj
                0x000011c4                dbg_uart_init
 .text.usb_device_board_init
                0x000011ec       0x34 CMakeFiles/dev_hid_mouse_bm.dir/home/laurie/RTES/KSDK_1.3.0/examples/frdmkl46z/board.c.obj
                0x000011ec                usb_device_board_init
 .text.UART_HAL_EnableTransmitter
                0x00001220       0x20 CMakeFiles/dev_hid_mouse_bm.dir/home/laurie/RTES/KSDK_1.3.0/platform/utilities/src/fsl_debug_console.c.obj
 .text.UART_HAL_EnableReceiver
                0x00001240       0x20 CMakeFiles/dev_hid_mouse_bm.dir/home/laurie/RTES/KSDK_1.3.0/platform/utilities/src/fsl_debug_console.c.obj
 .text.UART_HAL_SetBitCountPerChar
                0x00001260       0x30 CMakeFiles/dev_hid_mouse_bm.dir/home/laurie/RTES/KSDK_1.3.0/platform/utilities/src/fsl_debug_console.c.obj
 .text.UART_HAL_SetStopBitCount
                0x00001290       0x2c CMakeFiles/dev_hid_mouse_bm.dir/home/laurie/RTES/KSDK_1.3.0/platform/utilities/src/fsl_debug_console.c.obj
 .text.LPSCI_HAL_EnableTransmitter
                0x000012bc       0x20 CMakeFiles/dev_hid_mouse_bm.dir/home/laurie/RTES/KSDK_1.3.0/platform/utilities/src/fsl_debug_console.c.obj
 .text.LPSCI_HAL_EnableReceiver
                0x000012dc       0x20 CMakeFiles/dev_hid_mouse_bm.dir/home/laurie/RTES/KSDK_1.3.0/platform/utilities/src/fsl_debug_console.c.obj
 .text.LPSCI_HAL_SetBitCountPerChar
                0x000012fc       0x30 CMakeFiles/dev_hid_mouse_bm.dir/home/laurie/RTES/KSDK_1.3.0/platform/utilities/src/fsl_debug_console.c.obj
 .text.LPSCI_HAL_SetStopBitCount
                0x0000132c       0x2c CMakeFiles/dev_hid_mouse_bm.dir/home/laurie/RTES/KSDK_1.3.0/platform/utilities/src/fsl_debug_console.c.obj
 .text.DbgConsole_Init
                0x00001358      0x158 CMakeFiles/dev_hid_mouse_bm.dir/home/laurie/RTES/KSDK_1.3.0/platform/utilities/src/fsl_debug_console.c.obj
                0x00001358                DbgConsole_Init
 .text._write   0x000014b0       0x58 CMakeFiles/dev_hid_mouse_bm.dir/home/laurie/RTES/KSDK_1.3.0/platform/utilities/src/fsl_debug_console.c.obj
                0x000014b0                _write
 .text._read    0x00001508       0x44 CMakeFiles/dev_hid_mouse_bm.dir/home/laurie/RTES/KSDK_1.3.0/platform/utilities/src/fsl_debug_console.c.obj
                0x00001508                _read
 .text.debug_printf
                0x0000154c       0x4c CMakeFiles/dev_hid_mouse_bm.dir/home/laurie/RTES/KSDK_1.3.0/platform/utilities/src/fsl_debug_console.c.obj
                0x0000154c                debug_printf
 .text.debug_putc
                0x00001598       0x44 CMakeFiles/dev_hid_mouse_bm.dir/home/laurie/RTES/KSDK_1.3.0/platform/utilities/src/fsl_debug_console.c.obj
 .text._doprint
                0x000015dc      0x6c8 CMakeFiles/dev_hid_mouse_bm.dir/home/laurie/RTES/KSDK_1.3.0/platform/utilities/src/print_scan.c.obj
                0x000015dc                _doprint
 .text.mknumstr
                0x00001ca4      0x10c CMakeFiles/dev_hid_mouse_bm.dir/home/laurie/RTES/KSDK_1.3.0/platform/utilities/src/print_scan.c.obj
 .text.fput_pad
                0x00001db0       0x44 CMakeFiles/dev_hid_mouse_bm.dir/home/laurie/RTES/KSDK_1.3.0/platform/utilities/src/print_scan.c.obj
 .text.SystemInit
                0x00001df4      0x1b0 CMakeFiles/dev_hid_mouse_bm.dir/home/laurie/RTES/KSDK_1.3.0/platform/devices/MKL46Z4/startup/system_MKL46Z4.c.obj
                0x00001df4                SystemInit
 .text.init_data_bss
                0x00001fa4       0xc8 CMakeFiles/dev_hid_mouse_bm.dir/home/laurie/RTES/KSDK_1.3.0/platform/devices/startup.c.obj
                0x00001fa4                init_data_bss
 .text.soc_get_usb_vector_number
                0x0000206c       0x24 ../../../../../../../../../usb/usb_core/device/lib/bm/armgcc/MKL46Z4/debug/libusbd_bm.a(adapter_sdk.c.obj)
                0x0000206c                soc_get_usb_vector_number
 .text.soc_get_usb_base_address
                0x00002090       0x28 ../../../../../../../../../usb/usb_core/device/lib/bm/armgcc/MKL46Z4/debug/libusbd_bm.a(adapter_sdk.c.obj)
                0x00002090                soc_get_usb_base_address
 .text.OS_Task_create
                0x000020b8       0x54 ../../../../../../../../../usb/usb_core/device/lib/bm/armgcc/MKL46Z4/debug/libusbd_bm.a(adapter_sdk.c.obj)
                0x000020b8                OS_Task_create
 .text.OS_Mutex_create
                0x0000210c       0x3c ../../../../../../../../../usb/usb_core/device/lib/bm/armgcc/MKL46Z4/debug/libusbd_bm.a(adapter_sdk.c.obj)
                0x0000210c                OS_Mutex_create
 .text.OS_Mutex_destroy
                0x00002148       0x2c ../../../../../../../../../usb/usb_core/device/lib/bm/armgcc/MKL46Z4/debug/libusbd_bm.a(adapter_sdk.c.obj)
                0x00002148                OS_Mutex_destroy
 .text.OS_Mutex_lock
                0x00002174       0x44 ../../../../../../../../../usb/usb_core/device/lib/bm/armgcc/MKL46Z4/debug/libusbd_bm.a(adapter_sdk.c.obj)
                0x00002174                OS_Mutex_lock
 .text.OS_Mutex_unlock
                0x000021b8       0x24 ../../../../../../../../../usb/usb_core/device/lib/bm/armgcc/MKL46Z4/debug/libusbd_bm.a(adapter_sdk.c.obj)
                0x000021b8                OS_Mutex_unlock
 .text.USB_Class_Allocate_Handle
                0x000021dc       0x48 ../../../../../../../../../usb/usb_core/device/lib/bm/armgcc/MKL46Z4/debug/libusbd_bm.a(usb_class.c.obj)
 .text.USB_Class_Init
                0x00002224       0x6c ../../../../../../../../../usb/usb_core/device/lib/bm/armgcc/MKL46Z4/debug/libusbd_bm.a(usb_class.c.obj)
                0x00002224                USB_Class_Init
 .text.USB_Class_Send_Data
                0x00002290       0x48 ../../../../../../../../../usb/usb_core/device/lib/bm/armgcc/MKL46Z4/debug/libusbd_bm.a(usb_class.c.obj)
                0x00002290                USB_Class_Send_Data
 .text.USB_Class_Get_Status
                0x000022d8       0x44 ../../../../../../../../../usb/usb_core/device/lib/bm/armgcc/MKL46Z4/debug/libusbd_bm.a(usb_class.c.obj)
                0x000022d8                USB_Class_Get_Status
 .text.USB_Class_Get_Class_Handle
                0x0000231c       0x58 ../../../../../../../../../usb/usb_core/device/lib/bm/armgcc/MKL46Z4/debug/libusbd_bm.a(usb_class.c.obj)
                0x0000231c                USB_Class_Get_Class_Handle
 .text.USB_Class_Get_Ctrler_Handle
                0x00002374       0x24 ../../../../../../../../../usb/usb_core/device/lib/bm/armgcc/MKL46Z4/debug/libusbd_bm.a(usb_class.c.obj)
                0x00002374                USB_Class_Get_Ctrler_Handle
 .text.USB_Hid_Allocate_Handle
                0x00002398       0x50 ../../../../../../../../../usb/usb_core/device/lib/bm/armgcc/MKL46Z4/debug/libusbd_bm.a(usb_hid.c.obj)
 .text.USB_Hid_Free_Handle
                0x000023e8       0x4c ../../../../../../../../../usb/usb_core/device/lib/bm/armgcc/MKL46Z4/debug/libusbd_bm.a(usb_hid.c.obj)
 .text.USB_Hid_Get_Device_Ptr
                0x00002434       0x14 ../../../../../../../../../usb/usb_core/device/lib/bm/armgcc/MKL46Z4/debug/libusbd_bm.a(usb_hid.c.obj)
 .text.USB_Service_Hid_IN
                0x00002448       0x40 ../../../../../../../../../usb/usb_core/device/lib/bm/armgcc/MKL46Z4/debug/libusbd_bm.a(usb_hid.c.obj)
                0x00002448                USB_Service_Hid_IN
 .text.USB_Service_Hid_OUT
                0x00002488       0x40 ../../../../../../../../../usb/usb_core/device/lib/bm/armgcc/MKL46Z4/debug/libusbd_bm.a(usb_hid.c.obj)
                0x00002488                USB_Service_Hid_OUT
 .text.USB_Class_Hid_Event
                0x000024c8      0x3ec ../../../../../../../../../usb/usb_core/device/lib/bm/armgcc/MKL46Z4/debug/libusbd_bm.a(usb_hid.c.obj)
                0x000024c8                USB_Class_Hid_Event
 .text.USB_HID_Requests
                0x000028b4       0x94 ../../../../../../../../../usb/usb_core/device/lib/bm/armgcc/MKL46Z4/debug/libusbd_bm.a(usb_hid.c.obj)
                0x000028b4                USB_HID_Requests
 .text.USB_Class_HID_Init
                0x00002948      0x174 ../../../../../../../../../usb/usb_core/device/lib/bm/armgcc/MKL46Z4/debug/libusbd_bm.a(usb_hid.c.obj)
                0x00002948                USB_Class_HID_Init
 .text.USB_Class_HID_Send_Data
                0x00002abc       0x5c ../../../../../../../../../usb/usb_core/device/lib/bm/armgcc/MKL46Z4/debug/libusbd_bm.a(usb_hid.c.obj)
                0x00002abc                USB_Class_HID_Send_Data
 .text.USB_Class_HID_Get_Speed
                0x00002b18       0x38 ../../../../../../../../../usb/usb_core/device/lib/bm/armgcc/MKL46Z4/debug/libusbd_bm.a(usb_hid.c.obj)
                0x00002b18                USB_Class_HID_Get_Speed
 .text._usb_device_get_handle
                0x00002b50       0x94 ../../../../../../../../../usb/usb_core/device/lib/bm/armgcc/MKL46Z4/debug/libusbd_bm.a(usb_dev.c.obj)
 .text._usb_device_release_handle
                0x00002be4       0x18 ../../../../../../../../../usb/usb_core/device/lib/bm/armgcc/MKL46Z4/debug/libusbd_bm.a(usb_dev.c.obj)
 .text._usb_device_get_DCI
                0x00002bfc       0x30 ../../../../../../../../../usb/usb_core/device/lib/bm/armgcc/MKL46Z4/debug/libusbd_bm.a(usb_dev.c.obj)
 .text._usb_device_call_service_internal
                0x00002c2c       0x8c ../../../../../../../../../usb/usb_core/device/lib/bm/armgcc/MKL46Z4/debug/libusbd_bm.a(usb_dev.c.obj)
                0x00002c2c                _usb_device_call_service_internal
 .text._usb_device_call_service
                0x00002cb8       0x68 ../../../../../../../../../usb/usb_core/device/lib/bm/armgcc/MKL46Z4/debug/libusbd_bm.a(usb_dev.c.obj)
                0x00002cb8                _usb_device_call_service
 .text.usb_device_set_address
                0x00002d20       0x4c ../../../../../../../../../usb/usb_core/device/lib/bm/armgcc/MKL46Z4/debug/libusbd_bm.a(usb_dev.c.obj)
                0x00002d20                usb_device_set_address
 .text.usb_device_get_status
                0x00002d6c       0xc0 ../../../../../../../../../usb/usb_core/device/lib/bm/armgcc/MKL46Z4/debug/libusbd_bm.a(usb_dev.c.obj)
                0x00002d6c                usb_device_get_status
 .text.usb_device_set_status
                0x00002e2c       0x88 ../../../../../../../../../usb/usb_core/device/lib/bm/armgcc/MKL46Z4/debug/libusbd_bm.a(usb_dev.c.obj)
                0x00002e2c                usb_device_set_status
 .text.usb_device_init
                0x00002eb4      0x1d8 ../../../../../../../../../usb/usb_core/device/lib/bm/armgcc/MKL46Z4/debug/libusbd_bm.a(usb_dev.c.obj)
                0x00002eb4                usb_device_init
 .text.usb_device_postinit
                0x0000308c       0x40 ../../../../../../../../../usb/usb_core/device/lib/bm/armgcc/MKL46Z4/debug/libusbd_bm.a(usb_dev.c.obj)
                0x0000308c                usb_device_postinit
 .text.usb_device_init_endpoint
                0x000030cc       0xac ../../../../../../../../../usb/usb_core/device/lib/bm/armgcc/MKL46Z4/debug/libusbd_bm.a(usb_dev.c.obj)
                0x000030cc                usb_device_init_endpoint
 .text.usb_device_register_service
                0x00003178       0xdc ../../../../../../../../../usb/usb_core/device/lib/bm/armgcc/MKL46Z4/debug/libusbd_bm.a(usb_dev.c.obj)
                0x00003178                usb_device_register_service
 .text.usb_device_recv_data
                0x00003254       0xfc ../../../../../../../../../usb/usb_core/device/lib/bm/armgcc/MKL46Z4/debug/libusbd_bm.a(usb_dev.c.obj)
                0x00003254                usb_device_recv_data
 .text.usb_device_send_data
                0x00003350      0x110 ../../../../../../../../../usb/usb_core/device/lib/bm/armgcc/MKL46Z4/debug/libusbd_bm.a(usb_dev.c.obj)
                0x00003350                usb_device_send_data
 .text.usb_device_unstall_endpoint
                0x00003460       0x8c ../../../../../../../../../usb/usb_core/device/lib/bm/armgcc/MKL46Z4/debug/libusbd_bm.a(usb_dev.c.obj)
                0x00003460                usb_device_unstall_endpoint
 .text.usb_device_stall_endpoint
                0x000034ec       0x78 ../../../../../../../../../usb/usb_core/device/lib/bm/armgcc/MKL46Z4/debug/libusbd_bm.a(usb_dev.c.obj)
                0x000034ec                usb_device_stall_endpoint
 .text.usb_device_register_application_notify
                0x00003564       0x40 ../../../../../../../../../usb/usb_core/device/lib/bm/armgcc/MKL46Z4/debug/libusbd_bm.a(usb_dev.c.obj)
                0x00003564                usb_device_register_application_notify
 .text.usb_device_register_vendor_class_request_notify
                0x000035a4       0x40 ../../../../../../../../../usb/usb_core/device/lib/bm/armgcc/MKL46Z4/debug/libusbd_bm.a(usb_dev.c.obj)
                0x000035a4                usb_device_register_vendor_class_request_notify
 .text.usb_device_register_desc_request_notify
                0x000035e4       0x40 ../../../../../../../../../usb/usb_core/device/lib/bm/armgcc/MKL46Z4/debug/libusbd_bm.a(usb_dev.c.obj)
                0x000035e4                usb_device_register_desc_request_notify
 .text.usb_device_reset
                0x00003624       0x44 ../../../../../../../../../usb/usb_core/device/lib/bm/armgcc/MKL46Z4/debug/libusbd_bm.a(usb_dev.c.obj)
                0x00003624                usb_device_reset
 .text.USB_Control_Service
                0x00003668      0x22c ../../../../../../../../../usb/usb_core/device/lib/bm/armgcc/MKL46Z4/debug/libusbd_bm.a(usb_framework.c.obj)
                0x00003668                USB_Control_Service
 .text.USB_Reset_Service
                0x00003894       0x88 ../../../../../../../../../usb/usb_core/device/lib/bm/armgcc/MKL46Z4/debug/libusbd_bm.a(usb_framework.c.obj)
                0x00003894                USB_Reset_Service
 .text.USB_Control_Service_Handler
                0x0000391c       0x90 ../../../../../../../../../usb/usb_core/device/lib/bm/armgcc/MKL46Z4/debug/libusbd_bm.a(usb_framework.c.obj)
                0x0000391c                USB_Control_Service_Handler
 .text.USB_Strd_Req_Get_Status
                0x000039ac       0xcc ../../../../../../../../../usb/usb_core/device/lib/bm/armgcc/MKL46Z4/debug/libusbd_bm.a(usb_framework.c.obj)
 .text.USB_Strd_Req_Feature
                0x00003a78      0x188 ../../../../../../../../../usb/usb_core/device/lib/bm/armgcc/MKL46Z4/debug/libusbd_bm.a(usb_framework.c.obj)
 .text.USB_Strd_Req_Set_Address
                0x00003c00       0x34 ../../../../../../../../../usb/usb_core/device/lib/bm/armgcc/MKL46Z4/debug/libusbd_bm.a(usb_framework.c.obj)
 .text.USB_Strd_Req_Assign_Address
                0x00003c34       0x24 ../../../../../../../../../usb/usb_core/device/lib/bm/armgcc/MKL46Z4/debug/libusbd_bm.a(usb_framework.c.obj)
 .text.USB_Strd_Req_Get_Config
                0x00003c58       0x30 ../../../../../../../../../usb/usb_core/device/lib/bm/armgcc/MKL46Z4/debug/libusbd_bm.a(usb_framework.c.obj)
 .text.USB_Strd_Req_Set_Config
                0x00003c88       0xd0 ../../../../../../../../../usb/usb_core/device/lib/bm/armgcc/MKL46Z4/debug/libusbd_bm.a(usb_framework.c.obj)
 .text.USB_Strd_Req_Get_Interface
                0x00003d58       0x6c ../../../../../../../../../usb/usb_core/device/lib/bm/armgcc/MKL46Z4/debug/libusbd_bm.a(usb_framework.c.obj)
 .text.USB_Strd_Req_Set_Interface
                0x00003dc4       0xb4 ../../../../../../../../../usb/usb_core/device/lib/bm/armgcc/MKL46Z4/debug/libusbd_bm.a(usb_framework.c.obj)
 .text.USB_Strd_Req_Sync_Frame
                0x00003e78       0x48 ../../../../../../../../../usb/usb_core/device/lib/bm/armgcc/MKL46Z4/debug/libusbd_bm.a(usb_framework.c.obj)
 .text.USB_Strd_Req_Get_Descriptor
                0x00003ec0       0x9c ../../../../../../../../../usb/usb_core/device/lib/bm/armgcc/MKL46Z4/debug/libusbd_bm.a(usb_framework.c.obj)
 .text.NVIC_EnableIRQ
                0x00003f5c       0x2c ../../../../../../../../../usb/usb_core/device/lib/bm/armgcc/MKL46Z4/debug/libusbd_bm.a(khci_dev.c.obj)
 .text.NVIC_SetPriority
                0x00003f88       0xdc ../../../../../../../../../usb/usb_core/device/lib/bm/armgcc/MKL46Z4/debug/libusbd_bm.a(khci_dev.c.obj)
 .text.usb_hal_khci_set_buffer_descriptor_table_addr
                0x00004064       0x3c ../../../../../../../../../usb/usb_core/device/lib/bm/armgcc/MKL46Z4/debug/libusbd_bm.a(khci_dev.c.obj)
 .text.usb_hal_khci_enable_interrupts
                0x000040a0       0x28 ../../../../../../../../../usb/usb_core/device/lib/bm/armgcc/MKL46Z4/debug/libusbd_bm.a(khci_dev.c.obj)
 .text.usb_hal_khci_disable_interrupts
                0x000040c8       0x30 ../../../../../../../../../usb/usb_core/device/lib/bm/armgcc/MKL46Z4/debug/libusbd_bm.a(khci_dev.c.obj)
 .text.usb_hal_khci_clr_interrupt
                0x000040f8       0x20 ../../../../../../../../../usb/usb_core/device/lib/bm/armgcc/MKL46Z4/debug/libusbd_bm.a(khci_dev.c.obj)
 .text.usb_hal_khci_clr_all_interrupts
                0x00004118       0x1c ../../../../../../../../../usb/usb_core/device/lib/bm/armgcc/MKL46Z4/debug/libusbd_bm.a(khci_dev.c.obj)
 .text.usb_hal_khci_is_interrupt_issued
                0x00004134       0x3c ../../../../../../../../../usb/usb_core/device/lib/bm/armgcc/MKL46Z4/debug/libusbd_bm.a(khci_dev.c.obj)
 .text.usb_hal_khci_enable_all_error_interrupts
                0x00004170       0x1c ../../../../../../../../../usb/usb_core/device/lib/bm/armgcc/MKL46Z4/debug/libusbd_bm.a(khci_dev.c.obj)
 .text.usb_hal_khci_clr_all_error_interrupts
                0x0000418c       0x1c ../../../../../../../../../usb/usb_core/device/lib/bm/armgcc/MKL46Z4/debug/libusbd_bm.a(khci_dev.c.obj)
 .text.usb_hal_khci_clr_token_busy
                0x000041a8       0x24 ../../../../../../../../../usb/usb_core/device/lib/bm/armgcc/MKL46Z4/debug/libusbd_bm.a(khci_dev.c.obj)
 .text.usb_hal_khci_set_oddrst
                0x000041cc       0x24 ../../../../../../../../../usb/usb_core/device/lib/bm/armgcc/MKL46Z4/debug/libusbd_bm.a(khci_dev.c.obj)
 .text.usb_hal_khci_clr_oddrst
                0x000041f0       0x24 ../../../../../../../../../usb/usb_core/device/lib/bm/armgcc/MKL46Z4/debug/libusbd_bm.a(khci_dev.c.obj)
 .text.usb_hal_khci_enable_sof
                0x00004214       0x24 ../../../../../../../../../usb/usb_core/device/lib/bm/armgcc/MKL46Z4/debug/libusbd_bm.a(khci_dev.c.obj)
 .text.usb_hal_khci_clear_control_register
                0x00004238       0x24 ../../../../../../../../../usb/usb_core/device/lib/bm/armgcc/MKL46Z4/debug/libusbd_bm.a(khci_dev.c.obj)
 .text.usb_hal_khci_get_transfer_status
                0x0000425c       0x1c ../../../../../../../../../usb/usb_core/device/lib/bm/armgcc/MKL46Z4/debug/libusbd_bm.a(khci_dev.c.obj)
 .text.usb_hal_khci_get_transfer_done_ep_number
                0x00004278       0x28 ../../../../../../../../../usb/usb_core/device/lib/bm/armgcc/MKL46Z4/debug/libusbd_bm.a(khci_dev.c.obj)
 .text.usb_hal_khci_get_transfer_done_direction
                0x000042a0       0x28 ../../../../../../../../../usb/usb_core/device/lib/bm/armgcc/MKL46Z4/debug/libusbd_bm.a(khci_dev.c.obj)
 .text.usb_hal_khci_get_transfer_done_odd
                0x000042c8       0x28 ../../../../../../../../../usb/usb_core/device/lib/bm/armgcc/MKL46Z4/debug/libusbd_bm.a(khci_dev.c.obj)
 .text.usb_hal_khci_get_frame_number
                0x000042f0       0x3c ../../../../../../../../../usb/usb_core/device/lib/bm/armgcc/MKL46Z4/debug/libusbd_bm.a(khci_dev.c.obj)
 .text.usb_hal_khci_set_device_addr
                0x0000432c       0x38 ../../../../../../../../../usb/usb_core/device/lib/bm/armgcc/MKL46Z4/debug/libusbd_bm.a(khci_dev.c.obj)
 .text.usb_hal_khci_endpoint_shut_down
                0x00004364       0x24 ../../../../../../../../../usb/usb_core/device/lib/bm/armgcc/MKL46Z4/debug/libusbd_bm.a(khci_dev.c.obj)
 .text.usb_hal_khci_endpoint_enable_handshake
                0x00004388       0x3c ../../../../../../../../../usb/usb_core/device/lib/bm/armgcc/MKL46Z4/debug/libusbd_bm.a(khci_dev.c.obj)
 .text.usb_hal_khci_endpoint_set_direction
                0x000043c4       0x40 ../../../../../../../../../usb/usb_core/device/lib/bm/armgcc/MKL46Z4/debug/libusbd_bm.a(khci_dev.c.obj)
 .text.usb_hal_khci_endpoint_clr_stall
                0x00004404       0x2c ../../../../../../../../../usb/usb_core/device/lib/bm/armgcc/MKL46Z4/debug/libusbd_bm.a(khci_dev.c.obj)
 .text.usb_hal_khci_enable_pull_down
                0x00004430       0x28 ../../../../../../../../../usb/usb_core/device/lib/bm/armgcc/MKL46Z4/debug/libusbd_bm.a(khci_dev.c.obj)
 .text.usb_hal_khci_enable_dp_pull_up
                0x00004458       0x48 ../../../../../../../../../usb/usb_core/device/lib/bm/armgcc/MKL46Z4/debug/libusbd_bm.a(khci_dev.c.obj)
 .text.usb_hal_khci_disable_dp_pull_up
                0x000044a0       0x48 ../../../../../../../../../usb/usb_core/device/lib/bm/armgcc/MKL46Z4/debug/libusbd_bm.a(khci_dev.c.obj)
 .text.usb_hal_khci_set_suspend
                0x000044e8       0x28 ../../../../../../../../../usb/usb_core/device/lib/bm/armgcc/MKL46Z4/debug/libusbd_bm.a(khci_dev.c.obj)
 .text.usb_hal_khci_clr_suspend
                0x00004510       0x28 ../../../../../../../../../usb/usb_core/device/lib/bm/armgcc/MKL46Z4/debug/libusbd_bm.a(khci_dev.c.obj)
 .text.usb_hal_khci_set_weak_pulldown
                0x00004538       0x1c ../../../../../../../../../usb/usb_core/device/lib/bm/armgcc/MKL46Z4/debug/libusbd_bm.a(khci_dev.c.obj)
 .text.usb_hal_khci_reset_control_register
                0x00004554       0x1c ../../../../../../../../../usb/usb_core/device/lib/bm/armgcc/MKL46Z4/debug/libusbd_bm.a(khci_dev.c.obj)
 .text.usb_hal_khci_set_internal_pullup
                0x00004570       0x20 ../../../../../../../../../usb/usb_core/device/lib/bm/armgcc/MKL46Z4/debug/libusbd_bm.a(khci_dev.c.obj)
 .text.usb_hal_khci_set_trc0
                0x00004590       0x28 ../../../../../../../../../usb/usb_core/device/lib/bm/armgcc/MKL46Z4/debug/libusbd_bm.a(khci_dev.c.obj)
 .text.usb_dci_khci_free_xd
                0x000045b8       0x50 ../../../../../../../../../usb/usb_core/device/lib/bm/armgcc/MKL46Z4/debug/libusbd_bm.a(khci_dev.c.obj)
                0x000045b8                usb_dci_khci_free_xd
 .text.usb_dci_khci_get_xd
                0x00004608       0x68 ../../../../../../../../../usb/usb_core/device/lib/bm/armgcc/MKL46Z4/debug/libusbd_bm.a(khci_dev.c.obj)
                0x00004608                usb_dci_khci_get_xd
 .text.usb_dci_khci_init_xd
                0x00004670       0x6c ../../../../../../../../../usb/usb_core/device/lib/bm/armgcc/MKL46Z4/debug/libusbd_bm.a(khci_dev.c.obj)
                0x00004670                usb_dci_khci_init_xd
 .text._usb_khci_next_setup_token_prep
                0x000046dc       0xc4 ../../../../../../../../../usb/usb_core/device/lib/bm/armgcc/MKL46Z4/debug/libusbd_bm.a(khci_dev.c.obj)
 .text._usb_khci_ep_read
                0x000047a0       0xe8 ../../../../../../../../../usb/usb_core/device/lib/bm/armgcc/MKL46Z4/debug/libusbd_bm.a(khci_dev.c.obj)
 .text._usb_khci_ep_write
                0x00004888      0x11c ../../../../../../../../../usb/usb_core/device/lib/bm/armgcc/MKL46Z4/debug/libusbd_bm.a(khci_dev.c.obj)
 .text._usb_khci_reset_ep_state
                0x000049a4      0x150 ../../../../../../../../../usb/usb_core/device/lib/bm/armgcc/MKL46Z4/debug/libusbd_bm.a(khci_dev.c.obj)
 .text._usb_khci_service_reset_intr
                0x00004af4       0x78 ../../../../../../../../../usb/usb_core/device/lib/bm/armgcc/MKL46Z4/debug/libusbd_bm.a(khci_dev.c.obj)
 .text._usb_khci_service_tk_dne_intr
                0x00004b6c      0x570 ../../../../../../../../../usb/usb_core/device/lib/bm/armgcc/MKL46Z4/debug/libusbd_bm.a(khci_dev.c.obj)
 .text._usb_khci_service_sof_token_intr
                0x000050dc       0x3c ../../../../../../../../../usb/usb_core/device/lib/bm/armgcc/MKL46Z4/debug/libusbd_bm.a(khci_dev.c.obj)
 .text._usb_khci_service_stall_intr
                0x00005118      0x154 ../../../../../../../../../usb/usb_core/device/lib/bm/armgcc/MKL46Z4/debug/libusbd_bm.a(khci_dev.c.obj)
 .text._usb_khci_isr
                0x0000526c       0x78 ../../../../../../../../../usb/usb_core/device/lib/bm/armgcc/MKL46Z4/debug/libusbd_bm.a(khci_dev.c.obj)
 .text.usb_dci_khci_preinit
                0x000052e4       0x48 ../../../../../../../../../usb/usb_core/device/lib/bm/armgcc/MKL46Z4/debug/libusbd_bm.a(khci_dev.c.obj)
                0x000052e4                usb_dci_khci_preinit
 .text.usb_dci_khci_init
                0x0000532c      0x108 ../../../../../../../../../usb/usb_core/device/lib/bm/armgcc/MKL46Z4/debug/libusbd_bm.a(khci_dev.c.obj)
                0x0000532c                usb_dci_khci_init
 .text.usb_dci_khci_postinit
                0x00005434       0x48 ../../../../../../../../../usb/usb_core/device/lib/bm/armgcc/MKL46Z4/debug/libusbd_bm.a(khci_dev.c.obj)
                0x00005434                usb_dci_khci_postinit
 .text.usb_dci_khci_init_endpoint
                0x0000547c      0x1c0 ../../../../../../../../../usb/usb_core/device/lib/bm/armgcc/MKL46Z4/debug/libusbd_bm.a(khci_dev.c.obj)
                0x0000547c                usb_dci_khci_init_endpoint
 .text.usb_dci_khci_deinit_endpoint
                0x0000563c       0xdc ../../../../../../../../../usb/usb_core/device/lib/bm/armgcc/MKL46Z4/debug/libusbd_bm.a(khci_dev.c.obj)
                0x0000563c                usb_dci_khci_deinit_endpoint
 .text.usb_dci_khci_send
                0x00005718       0xa0 ../../../../../../../../../usb/usb_core/device/lib/bm/armgcc/MKL46Z4/debug/libusbd_bm.a(khci_dev.c.obj)
                0x00005718                usb_dci_khci_send
 .text.usb_dci_khci_recv
                0x000057b8      0x140 ../../../../../../../../../usb/usb_core/device/lib/bm/armgcc/MKL46Z4/debug/libusbd_bm.a(khci_dev.c.obj)
                0x000057b8                usb_dci_khci_recv
 .text.usb_dci_khci_stall_endpoint
                0x000058f8      0x13c ../../../../../../../../../usb/usb_core/device/lib/bm/armgcc/MKL46Z4/debug/libusbd_bm.a(khci_dev.c.obj)
                0x000058f8                usb_dci_khci_stall_endpoint
 .text.usb_dci_khci_unstall_endpoint
                0x00005a34      0x1bc ../../../../../../../../../usb/usb_core/device/lib/bm/armgcc/MKL46Z4/debug/libusbd_bm.a(khci_dev.c.obj)
                0x00005a34                usb_dci_khci_unstall_endpoint
 .text.usb_dci_khci_cancel
                0x00005bf0       0xf0 ../../../../../../../../../usb/usb_core/device/lib/bm/armgcc/MKL46Z4/debug/libusbd_bm.a(khci_dev.c.obj)
                0x00005bf0                usb_dci_khci_cancel
 .text.usb_dci_khci_set_addr
                0x00005ce0       0x3c ../../../../../../../../../usb/usb_core/device/lib/bm/armgcc/MKL46Z4/debug/libusbd_bm.a(khci_dev.c.obj)
                0x00005ce0                usb_dci_khci_set_addr
 .text.usb_dci_khci_shutdown
                0x00005d1c       0x5c ../../../../../../../../../usb/usb_core/device/lib/bm/armgcc/MKL46Z4/debug/libusbd_bm.a(khci_dev.c.obj)
                0x00005d1c                usb_dci_khci_shutdown
 .text.usb_dci_khci_get_endpoint_status
                0x00005d78       0x44 ../../../../../../../../../usb/usb_core/device/lib/bm/armgcc/MKL46Z4/debug/libusbd_bm.a(khci_dev.c.obj)
                0x00005d78                usb_dci_khci_get_endpoint_status
 .text.usb_dci_khci_set_endpoint_status
                0x00005dbc       0xe0 ../../../../../../../../../usb/usb_core/device/lib/bm/armgcc/MKL46Z4/debug/libusbd_bm.a(khci_dev.c.obj)
                0x00005dbc                usb_dci_khci_set_endpoint_status
 .text.usb_dci_khci_set_status
                0x00005e9c       0x88 ../../../../../../../../../usb/usb_core/device/lib/bm/armgcc/MKL46Z4/debug/libusbd_bm.a(khci_dev.c.obj)
                0x00005e9c                usb_dci_khci_set_status
 .text.usb_dci_khci_get_status
                0x00005f24       0x94 ../../../../../../../../../usb/usb_core/device/lib/bm/armgcc/MKL46Z4/debug/libusbd_bm.a(khci_dev.c.obj)
                0x00005f24                usb_dci_khci_get_status
 .text.usb_dci_khci_reset
                0x00005fb8       0x78 ../../../../../../../../../usb/usb_core/device/lib/bm/armgcc/MKL46Z4/debug/libusbd_bm.a(khci_dev.c.obj)
                0x00005fb8                usb_dci_khci_reset
 .text.SIM_HAL_EnableClock
                0x00006030       0x5c ../../../../../../../../../usb/usb_core/device/lib/bm/armgcc/MKL46Z4/debug/libusbd_bm.a(usb_dev_bsp.c.obj)
 .text.CLOCK_HAL_SetUsbfsSrc
                0x0000608c       0x34 ../../../../../../../../../usb/usb_core/device/lib/bm/armgcc/MKL46Z4/debug/libusbd_bm.a(usb_dev_bsp.c.obj)
 .text.CLOCK_HAL_GetUsbfsSrc
                0x000060c0       0x2c ../../../../../../../../../usb/usb_core/device/lib/bm/armgcc/MKL46Z4/debug/libusbd_bm.a(usb_dev_bsp.c.obj)
 .text.CLOCK_HAL_SetPllfllSel
                0x000060ec       0x34 ../../../../../../../../../usb/usb_core/device/lib/bm/armgcc/MKL46Z4/debug/libusbd_bm.a(usb_dev_bsp.c.obj)
 .text.SIM_HAL_SetUsbVoltRegulatorCmd
                0x00006120       0x34 ../../../../../../../../../usb/usb_core/device/lib/bm/armgcc/MKL46Z4/debug/libusbd_bm.a(usb_dev_bsp.c.obj)
 .text.SIM_HAL_SetUsbVoltRegulatorWriteCmd
                0x00006154       0x38 ../../../../../../../../../usb/usb_core/device/lib/bm/armgcc/MKL46Z4/debug/libusbd_bm.a(usb_dev_bsp.c.obj)
 .text.CLOCK_SYS_SetPllfllSel
                0x0000618c       0x28 ../../../../../../../../../usb/usb_core/device/lib/bm/armgcc/MKL46Z4/debug/libusbd_bm.a(usb_dev_bsp.c.obj)
 .text.CLOCK_SYS_SetUsbfsSrc
                0x000061b4       0x28 ../../../../../../../../../usb/usb_core/device/lib/bm/armgcc/MKL46Z4/debug/libusbd_bm.a(usb_dev_bsp.c.obj)
 .text.CLOCK_SYS_GetUsbfsSrc
                0x000061dc       0x24 ../../../../../../../../../usb/usb_core/device/lib/bm/armgcc/MKL46Z4/debug/libusbd_bm.a(usb_dev_bsp.c.obj)
 .text.CLOCK_SYS_EnableUsbfsClock
                0x00006200       0x20 ../../../../../../../../../usb/usb_core/device/lib/bm/armgcc/MKL46Z4/debug/libusbd_bm.a(usb_dev_bsp.c.obj)
 .text.usb_dev_soc_init
                0x00006220      0x114 ../../../../../../../../../usb/usb_core/device/lib/bm/armgcc/MKL46Z4/debug/libusbd_bm.a(usb_dev_bsp.c.obj)
                0x00006220                usb_dev_soc_init
 .text.soc_get_usb_dev_int_level
                0x00006334       0x18 ../../../../../../../../../usb/usb_core/device/lib/bm/armgcc/MKL46Z4/debug/libusbd_bm.a(usb_dev_bsp.c.obj)
                0x00006334                soc_get_usb_dev_int_level
 .text.SIM_HAL_EnableClock
                0x0000634c       0x5c ../../../../../../../../../lib/ksdk_platform_lib/armgcc/KL46Z4/debug/libksdk_platform.a(fsl_os_abstraction_bm.c.obj)
 .text.CLOCK_SYS_EnableLptmrClock
                0x000063a8       0x20 ../../../../../../../../../lib/ksdk_platform_lib/armgcc/KL46Z4/debug/libksdk_platform.a(fsl_os_abstraction_bm.c.obj)
 .text.LPTMR_HAL_Enable
                0x000063c8       0x20 ../../../../../../../../../lib/ksdk_platform_lib/armgcc/KL46Z4/debug/libksdk_platform.a(fsl_os_abstraction_bm.c.obj)
 .text.LPTMR_HAL_Disable
                0x000063e8       0x20 ../../../../../../../../../lib/ksdk_platform_lib/armgcc/KL46Z4/debug/libksdk_platform.a(fsl_os_abstraction_bm.c.obj)
 .text.LPTMR_HAL_SetIntCmd
                0x00006408       0x28 ../../../../../../../../../lib/ksdk_platform_lib/armgcc/KL46Z4/debug/libksdk_platform.a(fsl_os_abstraction_bm.c.obj)
 .text.OSA_TimeInit
                0x00006430       0x64 ../../../../../../../../../lib/ksdk_platform_lib/armgcc/KL46Z4/debug/libksdk_platform.a(fsl_os_abstraction_bm.c.obj)
                0x00006430                OSA_TimeInit
 .text.OSA_TimeDiff
                0x00006494       0x30 ../../../../../../../../../lib/ksdk_platform_lib/armgcc/KL46Z4/debug/libksdk_platform.a(fsl_os_abstraction_bm.c.obj)
                0x00006494                OSA_TimeDiff
 .text.OSA_MutexCreate
                0x000064c4       0x48 ../../../../../../../../../lib/ksdk_platform_lib/armgcc/KL46Z4/debug/libksdk_platform.a(fsl_os_abstraction_bm.c.obj)
                0x000064c4                OSA_MutexCreate
 .text.OSA_MutexLock
                0x0000650c       0xc8 ../../../../../../../../../lib/ksdk_platform_lib/armgcc/KL46Z4/debug/libksdk_platform.a(fsl_os_abstraction_bm.c.obj)
                0x0000650c                OSA_MutexLock
 .text.OSA_MutexUnlock
                0x000065d4       0x44 ../../../../../../../../../lib/ksdk_platform_lib/armgcc/KL46Z4/debug/libksdk_platform.a(fsl_os_abstraction_bm.c.obj)
                0x000065d4                OSA_MutexUnlock
 .text.OSA_MutexDestroy
                0x00006618       0x34 ../../../../../../../../../lib/ksdk_platform_lib/armgcc/KL46Z4/debug/libksdk_platform.a(fsl_os_abstraction_bm.c.obj)
                0x00006618                OSA_MutexDestroy
 .text.task_init
                0x0000664c       0x60 ../../../../../../../../../lib/ksdk_platform_lib/armgcc/KL46Z4/debug/libksdk_platform.a(fsl_os_abstraction_bm.c.obj)
                0x0000664c                task_init
 .text.OSA_TaskCreate
                0x000066ac       0x70 ../../../../../../../../../lib/ksdk_platform_lib/armgcc/KL46Z4/debug/libksdk_platform.a(fsl_os_abstraction_bm.c.obj)
                0x000066ac                OSA_TaskCreate
 .text.OSA_MemAllocZero
                0x0000671c       0x1c ../../../../../../../../../lib/ksdk_platform_lib/armgcc/KL46Z4/debug/libksdk_platform.a(fsl_os_abstraction_bm.c.obj)
                0x0000671c                OSA_MemAllocZero
 .text.OSA_MemFree
                0x00006738       0x1c ../../../../../../../../../lib/ksdk_platform_lib/armgcc/KL46Z4/debug/libksdk_platform.a(fsl_os_abstraction_bm.c.obj)
                0x00006738                OSA_MemFree
 .text.OSA_TimeGetMsec
                0x00006754       0x18 ../../../../../../../../../lib/ksdk_platform_lib/armgcc/KL46Z4/debug/libksdk_platform.a(fsl_os_abstraction_bm.c.obj)
                0x00006754                OSA_TimeGetMsec
 .text.OSA_InstallIntHandler
                0x0000676c       0x24 ../../../../../../../../../lib/ksdk_platform_lib/armgcc/KL46Z4/debug/libksdk_platform.a(fsl_os_abstraction_bm.c.obj)
                0x0000676c                OSA_InstallIntHandler
 .text.OSA_EnterCritical
                0x00006790       0x24 ../../../../../../../../../lib/ksdk_platform_lib/armgcc/KL46Z4/debug/libksdk_platform.a(fsl_os_abstraction_bm.c.obj)
                0x00006790                OSA_EnterCritical
 .text.OSA_ExitCritical
                0x000067b4       0x24 ../../../../../../../../../lib/ksdk_platform_lib/armgcc/KL46Z4/debug/libksdk_platform.a(fsl_os_abstraction_bm.c.obj)
                0x000067b4                OSA_ExitCritical
 .text.OSA_Init
                0x000067d8       0x14 ../../../../../../../../../lib/ksdk_platform_lib/armgcc/KL46Z4/debug/libksdk_platform.a(fsl_os_abstraction_bm.c.obj)
                0x000067d8                OSA_Init
 .text.OSA_Start
                0x000067ec       0x38 ../../../../../../../../../lib/ksdk_platform_lib/armgcc/KL46Z4/debug/libksdk_platform.a(fsl_os_abstraction_bm.c.obj)
                0x000067ec                OSA_Start
 .text.CLOCK_HAL_SetClkOutSrc
                0x00006824       0x30 ../../../../../../../../../lib/ksdk_platform_lib/armgcc/KL46Z4/debug/libksdk_platform.a(fsl_clock_manager.c.obj)
 .text.CLOCK_HAL_SetClksFrdivIrefs
                0x00006854       0x68 ../../../../../../../../../lib/ksdk_platform_lib/armgcc/KL46Z4/debug/libksdk_platform.a(fsl_clock_manager.c.obj)
 .text.CLOCK_HAL_GetClkOutStat
                0x000068bc       0x24 ../../../../../../../../../lib/ksdk_platform_lib/armgcc/KL46Z4/debug/libksdk_platform.a(fsl_clock_manager.c.obj)
 .text.CLOCK_HAL_GetFllSrc
                0x000068e0       0x20 ../../../../../../../../../lib/ksdk_platform_lib/armgcc/KL46Z4/debug/libksdk_platform.a(fsl_clock_manager.c.obj)
 .text.CLOCK_HAL_IsOsc0Stable
                0x00006900       0x28 ../../../../../../../../../lib/ksdk_platform_lib/armgcc/KL46Z4/debug/libksdk_platform.a(fsl_clock_manager.c.obj)
 .text.OSC_HAL_SetExternalRefClkCmd
                0x00006928       0x2c ../../../../../../../../../lib/ksdk_platform_lib/armgcc/KL46Z4/debug/libksdk_platform.a(fsl_clock_manager.c.obj)
 .text.OSC_HAL_SetExternalRefClkInStopModeCmd
                0x00006954       0x2c ../../../../../../../../../lib/ksdk_platform_lib/armgcc/KL46Z4/debug/libksdk_platform.a(fsl_clock_manager.c.obj)
 .text.CLOCK_SYS_BootToPee
                0x00006980       0xd0 ../../../../../../../../../lib/ksdk_platform_lib/armgcc/KL46Z4/debug/libksdk_platform.a(fsl_clock_manager.c.obj)
                0x00006980                CLOCK_SYS_BootToPee
 .text.CLOCK_SYS_OscInit
                0x00006a50       0xf4 ../../../../../../../../../lib/ksdk_platform_lib/armgcc/KL46Z4/debug/libksdk_platform.a(fsl_clock_manager.c.obj)
                0x00006a50                CLOCK_SYS_OscInit
 .text.CLOCK_SYS_SetOscerConfigration
                0x00006b44       0x40 ../../../../../../../../../lib/ksdk_platform_lib/armgcc/KL46Z4/debug/libksdk_platform.a(fsl_clock_manager.c.obj)
                0x00006b44                CLOCK_SYS_SetOscerConfigration
 .text.SIM_HAL_EnableClock
                0x00006b84       0x5c ../../../../../../../../../lib/ksdk_platform_lib/armgcc/KL46Z4/debug/libksdk_platform.a(fsl_clock_MKL46Z4.c.obj)
 .text.CLOCK_HAL_GetUsbfsSrc
                0x00006be0       0x2c ../../../../../../../../../lib/ksdk_platform_lib/armgcc/KL46Z4/debug/libksdk_platform.a(fsl_clock_MKL46Z4.c.obj)
 .text.CLOCK_HAL_GetLpsciSrc
                0x00006c0c       0x2c ../../../../../../../../../lib/ksdk_platform_lib/armgcc/KL46Z4/debug/libksdk_platform.a(fsl_clock_MKL46Z4.c.obj)
 .text.CLOCK_HAL_SetExternalRefClock32kSrc
                0x00006c38       0x2c ../../../../../../../../../lib/ksdk_platform_lib/armgcc/KL46Z4/debug/libksdk_platform.a(fsl_clock_MKL46Z4.c.obj)
 .text.CLOCK_HAL_SetPllfllSel
                0x00006c64       0x34 ../../../../../../../../../lib/ksdk_platform_lib/armgcc/KL46Z4/debug/libksdk_platform.a(fsl_clock_MKL46Z4.c.obj)
 .text.CLOCK_HAL_GetPllfllSel
                0x00006c98       0x28 ../../../../../../../../../lib/ksdk_platform_lib/armgcc/KL46Z4/debug/libksdk_platform.a(fsl_clock_MKL46Z4.c.obj)
 .text.CLOCK_HAL_GetOutDiv1
                0x00006cc0       0x2c ../../../../../../../../../lib/ksdk_platform_lib/armgcc/KL46Z4/debug/libksdk_platform.a(fsl_clock_MKL46Z4.c.obj)
 .text.CLOCK_HAL_GetOutDiv4
                0x00006cec       0x2c ../../../../../../../../../lib/ksdk_platform_lib/armgcc/KL46Z4/debug/libksdk_platform.a(fsl_clock_MKL46Z4.c.obj)
 .text.OSC_HAL_GetExternalRefClkCmd
                0x00006d18       0x24 ../../../../../../../../../lib/ksdk_platform_lib/armgcc/KL46Z4/debug/libksdk_platform.a(fsl_clock_MKL46Z4.c.obj)
 .text.CLOCK_SYS_SetSimConfigration
                0x00006d3c       0x44 ../../../../../../../../../lib/ksdk_platform_lib/armgcc/KL46Z4/debug/libksdk_platform.a(fsl_clock_MKL46Z4.c.obj)
                0x00006d3c                CLOCK_SYS_SetSimConfigration
 .text.CLOCK_SYS_GetSystemClockFreq
                0x00006d80       0x34 ../../../../../../../../../lib/ksdk_platform_lib/armgcc/KL46Z4/debug/libksdk_platform.a(fsl_clock_MKL46Z4.c.obj)
                0x00006d80                CLOCK_SYS_GetSystemClockFreq
 .text.CLOCK_SYS_GetBusClockFreq
                0x00006db4       0x2c ../../../../../../../../../lib/ksdk_platform_lib/armgcc/KL46Z4/debug/libksdk_platform.a(fsl_clock_MKL46Z4.c.obj)
                0x00006db4                CLOCK_SYS_GetBusClockFreq
 .text.CLOCK_SYS_GetPllFllClockFreq
                0x00006de0       0x5c ../../../../../../../../../lib/ksdk_platform_lib/armgcc/KL46Z4/debug/libksdk_platform.a(fsl_clock_MKL46Z4.c.obj)
                0x00006de0                CLOCK_SYS_GetPllFllClockFreq
 .text.CLOCK_SYS_GetOsc0ExternalRefClockFreq
                0x00006e3c       0x28 ../../../../../../../../../lib/ksdk_platform_lib/armgcc/KL46Z4/debug/libksdk_platform.a(fsl_clock_MKL46Z4.c.obj)
                0x00006e3c                CLOCK_SYS_GetOsc0ExternalRefClockFreq
 .text.CLOCK_SYS_GetUsbfsFreq
                0x00006e64       0x48 ../../../../../../../../../lib/ksdk_platform_lib/armgcc/KL46Z4/debug/libksdk_platform.a(fsl_clock_MKL46Z4.c.obj)
                0x00006e64                CLOCK_SYS_GetUsbfsFreq
 .text.CLOCK_SYS_GetLpsciFreq
                0x00006eac       0x68 ../../../../../../../../../lib/ksdk_platform_lib/armgcc/KL46Z4/debug/libksdk_platform.a(fsl_clock_MKL46Z4.c.obj)
                0x00006eac                CLOCK_SYS_GetLpsciFreq
 .text.CLOCK_SYS_GetUartFreq
                0x00006f14       0x2c ../../../../../../../../../lib/ksdk_platform_lib/armgcc/KL46Z4/debug/libksdk_platform.a(fsl_clock_MKL46Z4.c.obj)
                0x00006f14                CLOCK_SYS_GetUartFreq
 .text.CLOCK_SYS_EnablePortClock
                0x00006f40       0x4c ../../../../../../../../../lib/ksdk_platform_lib/armgcc/KL46Z4/debug/libksdk_platform.a(fsl_clock_MKL46Z4.c.obj)
                0x00006f40                CLOCK_SYS_EnablePortClock
 .text.CLOCK_SYS_EnableLpsciClock
                0x00006f8c       0x44 ../../../../../../../../../lib/ksdk_platform_lib/armgcc/KL46Z4/debug/libksdk_platform.a(fsl_clock_MKL46Z4.c.obj)
                0x00006f8c                CLOCK_SYS_EnableLpsciClock
 .text.CLOCK_SYS_EnableUartClock
                0x00006fd0       0x4c ../../../../../../../../../lib/ksdk_platform_lib/armgcc/KL46Z4/debug/libksdk_platform.a(fsl_clock_MKL46Z4.c.obj)
                0x00006fd0                CLOCK_SYS_EnableUartClock
 .text.INT_SYS_InstallHandler
                0x0000701c       0x7c ../../../../../../../../../lib/ksdk_platform_lib/armgcc/KL46Z4/debug/libksdk_platform.a(fsl_interrupt_manager.c.obj)
                0x0000701c                INT_SYS_InstallHandler
 .text.INT_SYS_EnableIRQGlobal
                0x00007098       0x2c ../../../../../../../../../lib/ksdk_platform_lib/armgcc/KL46Z4/debug/libksdk_platform.a(fsl_interrupt_manager.c.obj)
                0x00007098                INT_SYS_EnableIRQGlobal
 .text.INT_SYS_DisableIRQGlobal
                0x000070c4       0x1c ../../../../../../../../../lib/ksdk_platform_lib/armgcc/KL46Z4/debug/libksdk_platform.a(fsl_interrupt_manager.c.obj)
                0x000070c4                INT_SYS_DisableIRQGlobal
 .text.LPSCI_HAL_Putchar
                0x000070e0       0x20 ../../../../../../../../../lib/ksdk_platform_lib/armgcc/KL46Z4/debug/libksdk_platform.a(fsl_lpsci_hal.c.obj)
 .text.LPSCI_HAL_Getchar
                0x00007100       0x1c ../../../../../../../../../lib/ksdk_platform_lib/armgcc/KL46Z4/debug/libksdk_platform.a(fsl_lpsci_hal.c.obj)
 .text.LPSCI_HAL_SetBaudRate
                0x0000711c      0x154 ../../../../../../../../../lib/ksdk_platform_lib/armgcc/KL46Z4/debug/libksdk_platform.a(fsl_lpsci_hal.c.obj)
                0x0000711c                LPSCI_HAL_SetBaudRate
 .text.LPSCI_HAL_SetParityMode
                0x00007270       0x4c ../../../../../../../../../lib/ksdk_platform_lib/armgcc/KL46Z4/debug/libksdk_platform.a(fsl_lpsci_hal.c.obj)
                0x00007270                LPSCI_HAL_SetParityMode
 .text.LPSCI_HAL_SendDataPolling
                0x000072bc       0x48 ../../../../../../../../../lib/ksdk_platform_lib/armgcc/KL46Z4/debug/libksdk_platform.a(fsl_lpsci_hal.c.obj)
                0x000072bc                LPSCI_HAL_SendDataPolling
 .text.LPSCI_HAL_ReceiveDataPolling
                0x00007304       0x8c ../../../../../../../../../lib/ksdk_platform_lib/armgcc/KL46Z4/debug/libksdk_platform.a(fsl_lpsci_hal.c.obj)
                0x00007304                LPSCI_HAL_ReceiveDataPolling
 .text.LPTMR_HAL_SetTimerWorkingMode
                0x00007390       0x5c ../../../../../../../../../lib/ksdk_platform_lib/armgcc/KL46Z4/debug/libksdk_platform.a(fsl_lptmr_hal.c.obj)
                0x00007390                LPTMR_HAL_SetTimerWorkingMode
 .text.LPTMR_HAL_SetPrescalerMode
                0x000073ec       0x40 ../../../../../../../../../lib/ksdk_platform_lib/armgcc/KL46Z4/debug/libksdk_platform.a(fsl_lptmr_hal.c.obj)
                0x000073ec                LPTMR_HAL_SetPrescalerMode
 .text.LPTMR_HAL_GetCounterValue
                0x0000742c       0x30 ../../../../../../../../../lib/ksdk_platform_lib/armgcc/KL46Z4/debug/libksdk_platform.a(fsl_lptmr_hal.c.obj)
                0x0000742c                LPTMR_HAL_GetCounterValue
 .text.CLOCK_HAL_GetClkOutStat
                0x0000745c       0x24 ../../../../../../../../../lib/ksdk_platform_lib/armgcc/KL46Z4/debug/libksdk_platform.a(fsl_mcg_hal.c.obj)
 .text.CLOCK_HAL_SetInternalRefClkMode
                0x00007480       0x2c ../../../../../../../../../lib/ksdk_platform_lib/armgcc/KL46Z4/debug/libksdk_platform.a(fsl_mcg_hal.c.obj)
 .text.CLOCK_HAL_GetInternalRefClkMode
                0x000074ac       0x20 ../../../../../../../../../lib/ksdk_platform_lib/armgcc/KL46Z4/debug/libksdk_platform.a(fsl_mcg_hal.c.obj)
 .text.CLOCK_HAL_IsPllSelected
                0x000074cc       0x28 ../../../../../../../../../lib/ksdk_platform_lib/armgcc/KL46Z4/debug/libksdk_platform.a(fsl_mcg_hal.c.obj)
 .text.CLOCK_HAL_IsOsc0Stable
                0x000074f4       0x28 ../../../../../../../../../lib/ksdk_platform_lib/armgcc/KL46Z4/debug/libksdk_platform.a(fsl_mcg_hal.c.obj)
 .text.CLOCK_HAL_PrepareOsc
                0x0000751c       0x44 ../../../../../../../../../lib/ksdk_platform_lib/armgcc/KL46Z4/debug/libksdk_platform.a(fsl_mcg_hal.c.obj)
                0x0000751c                CLOCK_HAL_PrepareOsc
 .text.CLOCK_HAL_GetMcgExternalClkFreq
                0x00007560       0x18 ../../../../../../../../../lib/ksdk_platform_lib/armgcc/KL46Z4/debug/libksdk_platform.a(fsl_mcg_hal.c.obj)
 .text.CLOCK_HAL_TestFllExternalRefFreq
                0x00007578       0x78 ../../../../../../../../../lib/ksdk_platform_lib/armgcc/KL46Z4/debug/libksdk_platform.a(fsl_mcg_hal.c.obj)
                0x00007578                CLOCK_HAL_TestFllExternalRefFreq
 .text.CLOCK_HAL_GetFllRefClk
                0x000075f0       0x94 ../../../../../../../../../lib/ksdk_platform_lib/armgcc/KL46Z4/debug/libksdk_platform.a(fsl_mcg_hal.c.obj)
                0x000075f0                CLOCK_HAL_GetFllRefClk
 .text.CLOCK_HAL_TestFllFreq
                0x00007684       0x6c ../../../../../../../../../lib/ksdk_platform_lib/armgcc/KL46Z4/debug/libksdk_platform.a(fsl_mcg_hal.c.obj)
                0x00007684                CLOCK_HAL_TestFllFreq
 .text.CLOCK_HAL_GetFllClk
                0x000076f0       0x80 ../../../../../../../../../lib/ksdk_platform_lib/armgcc/KL46Z4/debug/libksdk_platform.a(fsl_mcg_hal.c.obj)
                0x000076f0                CLOCK_HAL_GetFllClk
 .text.CLOCK_HAL_UpdateFastClkInternalRefDiv
                0x00007770       0xbc ../../../../../../../../../lib/ksdk_platform_lib/armgcc/KL46Z4/debug/libksdk_platform.a(fsl_mcg_hal.c.obj)
                0x00007770                CLOCK_HAL_UpdateFastClkInternalRefDiv
 .text.CLOCK_HAL_UpdateInternalRefClk
                0x0000782c       0x90 ../../../../../../../../../lib/ksdk_platform_lib/armgcc/KL46Z4/debug/libksdk_platform.a(fsl_mcg_hal.c.obj)
                0x0000782c                CLOCK_HAL_UpdateInternalRefClk
 .text.CLOCK_HAL_GetPll0RefFreq
                0x000078bc       0x1c ../../../../../../../../../lib/ksdk_platform_lib/armgcc/KL46Z4/debug/libksdk_platform.a(fsl_mcg_hal.c.obj)
                0x000078bc                CLOCK_HAL_GetPll0RefFreq
 .text.CLOCK_HAL_GetPll0Clk
                0x000078d8       0x98 ../../../../../../../../../lib/ksdk_platform_lib/armgcc/KL46Z4/debug/libksdk_platform.a(fsl_mcg_hal.c.obj)
                0x000078d8                CLOCK_HAL_GetPll0Clk
 .text.CLOCK_HAL_GetInternalRefClk
                0x00007970       0x68 ../../../../../../../../../lib/ksdk_platform_lib/armgcc/KL46Z4/debug/libksdk_platform.a(fsl_mcg_hal.c.obj)
                0x00007970                CLOCK_HAL_GetInternalRefClk
 .text.CLOCK_HAL_GetOutClk
                0x000079d8       0x7c ../../../../../../../../../lib/ksdk_platform_lib/armgcc/KL46Z4/debug/libksdk_platform.a(fsl_mcg_hal.c.obj)
                0x000079d8                CLOCK_HAL_GetOutClk
 .text.CLOCK_HAL_SetOsc0Mode
                0x00007a54       0x70 ../../../../../../../../../lib/ksdk_platform_lib/armgcc/KL46Z4/debug/libksdk_platform.a(fsl_mcg_hal.c.obj)
                0x00007a54                CLOCK_HAL_SetOsc0Mode
 .text.CLOCK_HAL_GetClkOutStat
                0x00007ac4       0x24 ../../../../../../../../../lib/ksdk_platform_lib/armgcc/KL46Z4/debug/libksdk_platform.a(fsl_mcg_hal_modes.c.obj)
 .text.CLOCK_HAL_SetPll0EnableCmd
                0x00007ae8       0x30 ../../../../../../../../../lib/ksdk_platform_lib/armgcc/KL46Z4/debug/libksdk_platform.a(fsl_mcg_hal_modes.c.obj)
 .text.CLOCK_HAL_IsPll0Locked
                0x00007b18       0x28 ../../../../../../../../../lib/ksdk_platform_lib/armgcc/KL46Z4/debug/libksdk_platform.a(fsl_mcg_hal_modes.c.obj)
 .text.CLOCK_HAL_IsPllSelected
                0x00007b40       0x28 ../../../../../../../../../lib/ksdk_platform_lib/armgcc/KL46Z4/debug/libksdk_platform.a(fsl_mcg_hal_modes.c.obj)
 .text.CLOCK_HAL_SetPbeMode
                0x00007b68      0x110 ../../../../../../../../../lib/ksdk_platform_lib/armgcc/KL46Z4/debug/libksdk_platform.a(fsl_mcg_hal_modes.c.obj)
                0x00007b68                CLOCK_HAL_SetPbeMode
 .text.OSC_HAL_SetCapacitor
                0x00007c78       0x2c ../../../../../../../../../lib/ksdk_platform_lib/armgcc/KL46Z4/debug/libksdk_platform.a(fsl_osc_hal.c.obj)
                0x00007c78                OSC_HAL_SetCapacitor
 .text.CLOCK_HAL_SetOutDiv
                0x00007ca4       0x58 ../../../../../../../../../lib/ksdk_platform_lib/armgcc/KL46Z4/debug/libksdk_platform.a(fsl_sim_hal_MKL46Z4.c.obj)
                0x00007ca4                CLOCK_HAL_SetOutDiv
 .text.UART_HAL_SetBaudRate
                0x00007cfc       0x70 ../../../../../../../../../lib/ksdk_platform_lib/armgcc/KL46Z4/debug/libksdk_platform.a(fsl_uart_hal.c.obj)
                0x00007cfc                UART_HAL_SetBaudRate
 .text.UART_HAL_SetParityMode
                0x00007d6c       0x4c ../../../../../../../../../lib/ksdk_platform_lib/armgcc/KL46Z4/debug/libksdk_platform.a(fsl_uart_hal.c.obj)
                0x00007d6c                UART_HAL_SetParityMode
 .text.UART_HAL_Putchar
                0x00007db8       0x38 ../../../../../../../../../lib/ksdk_platform_lib/armgcc/KL46Z4/debug/libksdk_platform.a(fsl_uart_hal.c.obj)
                0x00007db8                UART_HAL_Putchar
 .text.UART_HAL_Getchar
                0x00007df0       0x34 ../../../../../../../../../lib/ksdk_platform_lib/armgcc/KL46Z4/debug/libksdk_platform.a(fsl_uart_hal.c.obj)
                0x00007df0                UART_HAL_Getchar
 .text.UART_HAL_SendDataPolling
                0x00007e24       0x48 ../../../../../../../../../lib/ksdk_platform_lib/armgcc/KL46Z4/debug/libksdk_platform.a(fsl_uart_hal.c.obj)
                0x00007e24                UART_HAL_SendDataPolling
 .text.UART_HAL_ReceiveDataPolling
                0x00007e6c       0xa8 ../../../../../../../../../lib/ksdk_platform_lib/armgcc/KL46Z4/debug/libksdk_platform.a(fsl_uart_hal.c.obj)
                0x00007e6c                UART_HAL_ReceiveDataPolling
 .text.__assert_func
                0x00007f14       0x40 /home/laurie/gcc-arm/bin/../lib/gcc/arm-none-eabi/5.4.1/../../../../arm-none-eabi/lib/armv6-m/libc_nano.a(lib_a-assert.o)
                0x00007f14                __assert_func
 .text.calloc   0x00007f54       0x14 /home/laurie/gcc-arm/bin/../lib/gcc/arm-none-eabi/5.4.1/../../../../arm-none-eabi/lib/armv6-m/libc_nano.a(lib_a-calloc.o)
                0x00007f54                calloc
 .text.__errno  0x00007f68        0xc /home/laurie/gcc-arm/bin/../lib/gcc/arm-none-eabi/5.4.1/../../../../arm-none-eabi/lib/armv6-m/libc_nano.a(lib_a-errno.o)
                0x00007f68                __errno
 .text.exit     0x00007f74       0x2c /home/laurie/gcc-arm/bin/../lib/gcc/arm-none-eabi/5.4.1/../../../../arm-none-eabi/lib/armv6-m/libc_nano.a(lib_a-exit.o)
                0x00007f74                exit
 .text.fprintf  0x00007fa0       0x20 /home/laurie/gcc-arm/bin/../lib/gcc/arm-none-eabi/5.4.1/../../../../arm-none-eabi/lib/armv6-m/libc_nano.a(lib_a-fprintf.o)
                0x00007fa0                fprintf
                0x00007fa0                fiprintf
 .text.__libc_init_array
                0x00007fc0       0x4c /home/laurie/gcc-arm/bin/../lib/gcc/arm-none-eabi/5.4.1/../../../../arm-none-eabi/lib/armv6-m/libc_nano.a(lib_a-init.o)
                0x00007fc0                __libc_init_array
 .text.free     0x0000800c       0x14 /home/laurie/gcc-arm/bin/../lib/gcc/arm-none-eabi/5.4.1/../../../../arm-none-eabi/lib/armv6-m/libc_nano.a(lib_a-malloc.o)
                0x0000800c                free
 .text.memcpy   0x00008020       0x12 /home/laurie/gcc-arm/bin/../lib/gcc/arm-none-eabi/5.4.1/../../../../arm-none-eabi/lib/armv6-m/libc_nano.a(lib_a-memcpy-stub.o)
                0x00008020                memcpy
 .text.memset   0x00008032       0x10 /home/laurie/gcc-arm/bin/../lib/gcc/arm-none-eabi/5.4.1/../../../../arm-none-eabi/lib/armv6-m/libc_nano.a(lib_a-memset.o)
                0x00008032                memset
 .text._calloc_r
                0x00008042       0x1c /home/laurie/gcc-arm/bin/../lib/gcc/arm-none-eabi/5.4.1/../../../../arm-none-eabi/lib/armv6-m/libc_nano.a(lib_a-nano-callocr.o)
                0x00008042                _calloc_r
 *fill*         0x0000805e        0x2 
 .text._free_r  0x00008060       0x98 /home/laurie/gcc-arm/bin/../lib/gcc/arm-none-eabi/5.4.1/../../../../arm-none-eabi/lib/armv6-m/libc_nano.a(lib_a-nano-freer.o)
                0x00008060                _free_r
 .text._malloc_r
                0x000080f8       0xc0 /home/laurie/gcc-arm/bin/../lib/gcc/arm-none-eabi/5.4.1/../../../../arm-none-eabi/lib/armv6-m/libc_nano.a(lib_a-nano-mallocr.o)
                0x000080f8                _malloc_r
 .text.__sfputc_r
                0x000081b8       0x2a /home/laurie/gcc-arm/bin/../lib/gcc/arm-none-eabi/5.4.1/../../../../arm-none-eabi/lib/armv6-m/libc_nano.a(lib_a-nano-vfprintf.o)
 .text.__sfputs_r
                0x000081e2       0x24 /home/laurie/gcc-arm/bin/../lib/gcc/arm-none-eabi/5.4.1/../../../../arm-none-eabi/lib/armv6-m/libc_nano.a(lib_a-nano-vfprintf.o)
                0x000081e2                __sfputs_r
 *fill*         0x00008206        0x2 
 .text._vfprintf_r
                0x00008208      0x238 /home/laurie/gcc-arm/bin/../lib/gcc/arm-none-eabi/5.4.1/../../../../arm-none-eabi/lib/armv6-m/libc_nano.a(lib_a-nano-vfprintf.o)
                0x00008208                _vfiprintf_r
                0x00008208                _vfprintf_r
 .text._printf_common
                0x00008440       0xdc /home/laurie/gcc-arm/bin/../lib/gcc/arm-none-eabi/5.4.1/../../../../arm-none-eabi/lib/armv6-m/libc_nano.a(lib_a-nano-vfprintf_i.o)
                0x00008440                _printf_common
 .text._printf_i
                0x0000851c      0x244 /home/laurie/gcc-arm/bin/../lib/gcc/arm-none-eabi/5.4.1/../../../../arm-none-eabi/lib/armv6-m/libc_nano.a(lib_a-nano-vfprintf_i.o)
                0x0000851c                _printf_i
 .text._sbrk_r  0x00008760       0x24 /home/laurie/gcc-arm/bin/../lib/gcc/arm-none-eabi/5.4.1/../../../../arm-none-eabi/lib/armv6-m/libc_nano.a(lib_a-sbrkr.o)
                0x00008760                _sbrk_r
 .text.__swbuf_r
                0x00008784       0xac /home/laurie/gcc-arm/bin/../lib/gcc/arm-none-eabi/5.4.1/../../../../arm-none-eabi/lib/armv6-m/libc_nano.a(lib_a-wbuf.o)
                0x00008784                __swbuf_r
 .text.__swsetup_r
                0x00008830       0xec /home/laurie/gcc-arm/bin/../lib/gcc/arm-none-eabi/5.4.1/../../../../arm-none-eabi/lib/armv6-m/libc_nano.a(lib_a-wsetup.o)
                0x00008830                __swsetup_r
 .text.abort    0x0000891c        0xe /home/laurie/gcc-arm/bin/../lib/gcc/arm-none-eabi/5.4.1/../../../../arm-none-eabi/lib/armv6-m/libc_nano.a(lib_a-abort.o)
                0x0000891c                abort
 *fill*         0x0000892a        0x2 
 .text.__sflush_r
                0x0000892c      0x10c /home/laurie/gcc-arm/bin/../lib/gcc/arm-none-eabi/5.4.1/../../../../arm-none-eabi/lib/armv6-m/libc_nano.a(lib_a-fflush.o)
                0x0000892c                __sflush_r
 .text._fflush_r
                0x00008a38       0x58 /home/laurie/gcc-arm/bin/../lib/gcc/arm-none-eabi/5.4.1/../../../../arm-none-eabi/lib/armv6-m/libc_nano.a(lib_a-fflush.o)
                0x00008a38                _fflush_r
 .text._cleanup_r
                0x00008a90       0x10 /home/laurie/gcc-arm/bin/../lib/gcc/arm-none-eabi/5.4.1/../../../../arm-none-eabi/lib/armv6-m/libc_nano.a(lib_a-findfp.o)
                0x00008a90                _cleanup_r
 .text.std.isra.0
                0x00008aa0       0x48 /home/laurie/gcc-arm/bin/../lib/gcc/arm-none-eabi/5.4.1/../../../../arm-none-eabi/lib/armv6-m/libc_nano.a(lib_a-findfp.o)
 .text.__sfmoreglue
                0x00008ae8       0x2c /home/laurie/gcc-arm/bin/../lib/gcc/arm-none-eabi/5.4.1/../../../../arm-none-eabi/lib/armv6-m/libc_nano.a(lib_a-findfp.o)
                0x00008ae8                __sfmoreglue
 .text.__sinit  0x00008b14       0x68 /home/laurie/gcc-arm/bin/../lib/gcc/arm-none-eabi/5.4.1/../../../../arm-none-eabi/lib/armv6-m/libc_nano.a(lib_a-findfp.o)
                0x00008b14                __sinit
 .text.__sfp    0x00008b7c       0x7c /home/laurie/gcc-arm/bin/../lib/gcc/arm-none-eabi/5.4.1/../../../../arm-none-eabi/lib/armv6-m/libc_nano.a(lib_a-findfp.o)
                0x00008b7c                __sfp
 .text._fwalk_reent
                0x00008bf8       0x42 /home/laurie/gcc-arm/bin/../lib/gcc/arm-none-eabi/5.4.1/../../../../arm-none-eabi/lib/armv6-m/libc_nano.a(lib_a-fwalk.o)
                0x00008bf8                _fwalk_reent
 *fill*         0x00008c3a        0x2 
 .text.__swhatbuf_r
                0x00008c3c       0x4c /home/laurie/gcc-arm/bin/../lib/gcc/arm-none-eabi/5.4.1/../../../../arm-none-eabi/lib/armv6-m/libc_nano.a(lib_a-makebuf.o)
                0x00008c3c                __swhatbuf_r
 .text.__smakebuf_r
                0x00008c88       0x7c /home/laurie/gcc-arm/bin/../lib/gcc/arm-none-eabi/5.4.1/../../../../arm-none-eabi/lib/armv6-m/libc_nano.a(lib_a-makebuf.o)
                0x00008c88                __smakebuf_r
 .text.memchr   0x00008d04       0x16 /home/laurie/gcc-arm/bin/../lib/gcc/arm-none-eabi/5.4.1/../../../../arm-none-eabi/lib/armv6-m/libc_nano.a(lib_a-memchr-stub.o)
                0x00008d04                memchr
 .text.__malloc_lock
                0x00008d1a        0x2 /home/laurie/gcc-arm/bin/../lib/gcc/arm-none-eabi/5.4.1/../../../../arm-none-eabi/lib/armv6-m/libc_nano.a(lib_a-mlock.o)
                0x00008d1a                __malloc_lock
 .text.__malloc_unlock
                0x00008d1c        0x2 /home/laurie/gcc-arm/bin/../lib/gcc/arm-none-eabi/5.4.1/../../../../arm-none-eabi/lib/armv6-m/libc_nano.a(lib_a-mlock.o)
                0x00008d1c                __malloc_unlock
 .text._raise_r
                0x00008d1e       0x54 /home/laurie/gcc-arm/bin/../lib/gcc/arm-none-eabi/5.4.1/../../../../arm-none-eabi/lib/armv6-m/libc_nano.a(lib_a-signal.o)
                0x00008d1e                _raise_r
 *fill*         0x00008d72        0x2 
 .text.raise    0x00008d74       0x14 /home/laurie/gcc-arm/bin/../lib/gcc/arm-none-eabi/5.4.1/../../../../arm-none-eabi/lib/armv6-m/libc_nano.a(lib_a-signal.o)
                0x00008d74                raise
 .text._kill_r  0x00008d88       0x24 /home/laurie/gcc-arm/bin/../lib/gcc/arm-none-eabi/5.4.1/../../../../arm-none-eabi/lib/armv6-m/libc_nano.a(lib_a-signalr.o)
                0x00008d88                _kill_r
 .text._getpid_r
                0x00008dac        0x8 /home/laurie/gcc-arm/bin/../lib/gcc/arm-none-eabi/5.4.1/../../../../arm-none-eabi/lib/armv6-m/libc_nano.a(lib_a-signalr.o)
                0x00008dac                _getpid_r
 .text.__sread  0x00008db4       0x28 /home/laurie/gcc-arm/bin/../lib/gcc/arm-none-eabi/5.4.1/../../../../arm-none-eabi/lib/armv6-m/libc_nano.a(lib_a-stdio.o)
                0x00008db4                __sread
 .text.__swrite
                0x00008ddc       0x38 /home/laurie/gcc-arm/bin/../lib/gcc/arm-none-eabi/5.4.1/../../../../arm-none-eabi/lib/armv6-m/libc_nano.a(lib_a-stdio.o)
                0x00008ddc                __swrite
 .text.__sseek  0x00008e14       0x2c /home/laurie/gcc-arm/bin/../lib/gcc/arm-none-eabi/5.4.1/../../../../arm-none-eabi/lib/armv6-m/libc_nano.a(lib_a-stdio.o)
                0x00008e14                __sseek
 .text.__sclose
                0x00008e40        0xc /home/laurie/gcc-arm/bin/../lib/gcc/arm-none-eabi/5.4.1/../../../../arm-none-eabi/lib/armv6-m/libc_nano.a(lib_a-stdio.o)
                0x00008e40                __sclose
 .text._write_r
                0x00008e4c       0x28 /home/laurie/gcc-arm/bin/../lib/gcc/arm-none-eabi/5.4.1/../../../../arm-none-eabi/lib/armv6-m/libc_nano.a(lib_a-writer.o)
                0x00008e4c                _write_r
 .text._close_r
                0x00008e74       0x24 /home/laurie/gcc-arm/bin/../lib/gcc/arm-none-eabi/5.4.1/../../../../arm-none-eabi/lib/armv6-m/libc_nano.a(lib_a-closer.o)
                0x00008e74                _close_r
 .text._fstat_r
                0x00008e98       0x24 /home/laurie/gcc-arm/bin/../lib/gcc/arm-none-eabi/5.4.1/../../../../arm-none-eabi/lib/armv6-m/libc_nano.a(lib_a-fstatr.o)
                0x00008e98                _fstat_r
 .text._isatty_r
                0x00008ebc       0x24 /home/laurie/gcc-arm/bin/../lib/gcc/arm-none-eabi/5.4.1/../../../../arm-none-eabi/lib/armv6-m/libc_nano.a(lib_a-isattyr.o)
                0x00008ebc                _isatty_r
 .text._lseek_r
                0x00008ee0       0x28 /home/laurie/gcc-arm/bin/../lib/gcc/arm-none-eabi/5.4.1/../../../../arm-none-eabi/lib/armv6-m/libc_nano.a(lib_a-lseekr.o)
                0x00008ee0                _lseek_r
 .text._read_r  0x00008f08       0x28 /home/laurie/gcc-arm/bin/../lib/gcc/arm-none-eabi/5.4.1/../../../../arm-none-eabi/lib/armv6-m/libc_nano.a(lib_a-readr.o)
                0x00008f08                _read_r
 .text._close   0x00008f30       0x10 /home/laurie/gcc-arm/bin/../lib/gcc/arm-none-eabi/5.4.1/../../../../arm-none-eabi/lib/armv6-m/libnosys.a(close.o)
                0x00008f30                _close
 .text._fstat   0x00008f40       0x10 /home/laurie/gcc-arm/bin/../lib/gcc/arm-none-eabi/5.4.1/../../../../arm-none-eabi/lib/armv6-m/libnosys.a(fstat.o)
                0x00008f40                _fstat
 .text._getpid  0x00008f50       0x10 /home/laurie/gcc-arm/bin/../lib/gcc/arm-none-eabi/5.4.1/../../../../arm-none-eabi/lib/armv6-m/libnosys.a(getpid.o)
                0x00008f50                _getpid
 .text._isatty  0x00008f60       0x10 /home/laurie/gcc-arm/bin/../lib/gcc/arm-none-eabi/5.4.1/../../../../arm-none-eabi/lib/armv6-m/libnosys.a(isatty.o)
                0x00008f60                _isatty
 .text._kill    0x00008f70       0x10 /home/laurie/gcc-arm/bin/../lib/gcc/arm-none-eabi/5.4.1/../../../../arm-none-eabi/lib/armv6-m/libnosys.a(kill.o)
                0x00008f70                _kill
 .text._lseek   0x00008f80       0x10 /home/laurie/gcc-arm/bin/../lib/gcc/arm-none-eabi/5.4.1/../../../../arm-none-eabi/lib/armv6-m/libnosys.a(lseek.o)
                0x00008f80                _lseek
 .text._exit    0x00008f90        0x4 /home/laurie/gcc-arm/bin/../lib/gcc/arm-none-eabi/5.4.1/../../../../arm-none-eabi/lib/armv6-m/libnosys.a(_exit.o)
                0x00008f90                _exit
 *(.rodata)
 .rodata        0x00008f94       0x23 CMakeFiles/dev_hid_mouse_bm.dir/home/laurie/RTES/KSDK_1.3.0/examples/frdmkl46z/demo_apps/usb/device/hid/hid_mouse/mouse.c.obj
 *fill*         0x00008fb7        0x1 
 .rodata        0x00008fb8       0xa4 CMakeFiles/dev_hid_mouse_bm.dir/home/laurie/RTES/KSDK_1.3.0/examples/frdmkl46z/pin_mux.c.obj
 .rodata        0x0000905c       0xa4 CMakeFiles/dev_hid_mouse_bm.dir/home/laurie/RTES/KSDK_1.3.0/examples/frdmkl46z/board.c.obj
 .rodata        0x00009100        0xc CMakeFiles/dev_hid_mouse_bm.dir/home/laurie/RTES/KSDK_1.3.0/platform/utilities/src/fsl_debug_console.c.obj
 .rodata        0x0000910c       0x60 ../../../../../../../../../usb/usb_core/device/lib/bm/armgcc/MKL46Z4/debug/libusbd_bm.a(usb_hid.c.obj)
 .rodata        0x0000916c      0x4b5 ../../../../../../../../../usb/usb_core/device/lib/bm/armgcc/MKL46Z4/debug/libusbd_bm.a(usb_dev.c.obj)
 *fill*         0x00009621        0x3 
 .rodata        0x00009624       0x54 ../../../../../../../../../usb/usb_core/device/lib/bm/armgcc/MKL46Z4/debug/libusbd_bm.a(usb_framework.c.obj)
 .rodata        0x00009678       0x7a ../../../../../../../../../lib/ksdk_platform_lib/armgcc/KL46Z4/debug/libksdk_platform.a(fsl_os_abstraction_bm.c.obj)
 *fill*         0x000096f2        0x2 
 .rodata        0x000096f4       0xce ../../../../../../../../../lib/ksdk_platform_lib/armgcc/KL46Z4/debug/libksdk_platform.a(fsl_clock_manager.c.obj)
 *fill*         0x000097c2        0x2 
 .rodata        0x000097c4      0x230 ../../../../../../../../../lib/ksdk_platform_lib/armgcc/KL46Z4/debug/libksdk_platform.a(fsl_clock_MKL46Z4.c.obj)
 .rodata        0x000099f4       0xab ../../../../../../../../../lib/ksdk_platform_lib/armgcc/KL46Z4/debug/libksdk_platform.a(fsl_interrupt_manager.c.obj)
 *(.rodata*)
 *fill*         0x00009a9f        0x1 
 .rodata.USB_App_Class_Callback
                0x00009aa0       0x30 CMakeFiles/dev_hid_mouse_bm.dir/home/laurie/RTES/KSDK_1.3.0/examples/frdmkl46z/demo_apps/usb/device/hid/hid_mouse/mouse.c.obj
 .rodata.__func__.5119
                0x00009ad0       0x14 CMakeFiles/dev_hid_mouse_bm.dir/home/laurie/RTES/KSDK_1.3.0/examples/frdmkl46z/pin_mux.c.obj
 .rodata.g_defaultClockConfigRun
                0x00009ae4       0x14 CMakeFiles/dev_hid_mouse_bm.dir/home/laurie/RTES/KSDK_1.3.0/examples/frdmkl46z/board.c.obj
                0x00009ae4                g_defaultClockConfigRun
 .rodata.__func__.5143
                0x00009af8       0x14 CMakeFiles/dev_hid_mouse_bm.dir/home/laurie/RTES/KSDK_1.3.0/examples/frdmkl46z/board.c.obj
 .rodata._doprint
                0x00009b0c       0xc8 CMakeFiles/dev_hid_mouse_bm.dir/home/laurie/RTES/KSDK_1.3.0/platform/utilities/src/print_scan.c.obj
 .rodata._usb_khci_dev_function_table
                0x00009bd4       0x50 ../../../../../../../../../usb/usb_core/device/lib/bm/armgcc/MKL46Z4/debug/libusbd_bm.a(device_khci_interface.c.obj)
                0x00009bd4                _usb_khci_dev_function_table
 .rodata.usb_dci_khci_set_status
                0x00009c24       0x1c ../../../../../../../../../usb/usb_core/device/lib/bm/armgcc/MKL46Z4/debug/libusbd_bm.a(khci_dev.c.obj)
 .rodata.usb_dci_khci_get_status
                0x00009c40       0x24 ../../../../../../../../../usb/usb_core/device/lib/bm/armgcc/MKL46Z4/debug/libusbd_bm.a(khci_dev.c.obj)
 .rodata.__func__.6649
                0x00009c64       0x10 ../../../../../../../../../lib/ksdk_platform_lib/armgcc/KL46Z4/debug/libksdk_platform.a(fsl_os_abstraction_bm.c.obj)
 .rodata.__func__.6655
                0x00009c74        0xe ../../../../../../../../../lib/ksdk_platform_lib/armgcc/KL46Z4/debug/libksdk_platform.a(fsl_os_abstraction_bm.c.obj)
 *fill*         0x00009c82        0x2 
 .rodata.__func__.6659
                0x00009c84       0x10 ../../../../../../../../../lib/ksdk_platform_lib/armgcc/KL46Z4/debug/libksdk_platform.a(fsl_os_abstraction_bm.c.obj)
 .rodata.__func__.6663
                0x00009c94       0x11 ../../../../../../../../../lib/ksdk_platform_lib/armgcc/KL46Z4/debug/libksdk_platform.a(fsl_os_abstraction_bm.c.obj)
 *fill*         0x00009ca5        0x3 
 .rodata.__func__.6789
                0x00009ca8       0x12 ../../../../../../../../../lib/ksdk_platform_lib/armgcc/KL46Z4/debug/libksdk_platform.a(fsl_clock_manager.c.obj)
 *fill*         0x00009cba        0x2 
 .rodata.g_oscBase
                0x00009cbc        0x4 ../../../../../../../../../lib/ksdk_platform_lib/armgcc/KL46Z4/debug/libksdk_platform.a(fsl_clock_manager_common.c.obj)
                0x00009cbc                g_oscBase
 .rodata.portGateTable
                0x00009cc0        0x5 ../../../../../../../../../lib/ksdk_platform_lib/armgcc/KL46Z4/debug/libksdk_platform.a(fsl_clock_MKL46Z4.c.obj)
 *fill*         0x00009cc5        0x3 
 .rodata.uartGateTable
                0x00009cc8        0x3 ../../../../../../../../../lib/ksdk_platform_lib/armgcc/KL46Z4/debug/libksdk_platform.a(fsl_clock_MKL46Z4.c.obj)
 *fill*         0x00009ccb        0x1 
 .rodata.__func__.6488
                0x00009ccc       0x1a ../../../../../../../../../lib/ksdk_platform_lib/armgcc/KL46Z4/debug/libksdk_platform.a(fsl_clock_MKL46Z4.c.obj)
 *fill*         0x00009ce6        0x2 
 .rodata.__func__.6561
                0x00009ce8       0x1b ../../../../../../../../../lib/ksdk_platform_lib/armgcc/KL46Z4/debug/libksdk_platform.a(fsl_clock_MKL46Z4.c.obj)
 *fill*         0x00009d03        0x1 
 .rodata.__func__.6566
                0x00009d04       0x1a ../../../../../../../../../lib/ksdk_platform_lib/armgcc/KL46Z4/debug/libksdk_platform.a(fsl_clock_MKL46Z4.c.obj)
 *fill*         0x00009d1e        0x2 
 .rodata.__func__.5087
                0x00009d20       0x17 ../../../../../../../../../lib/ksdk_platform_lib/armgcc/KL46Z4/debug/libksdk_platform.a(fsl_interrupt_manager.c.obj)
 *fill*         0x00009d37        0x1 
 .rodata.fllFactorTable.5344
                0x00009d38       0x10 ../../../../../../../../../lib/ksdk_platform_lib/armgcc/KL46Z4/debug/libksdk_platform.a(fsl_mcg_hal.c.obj)
 .rodata.str1.1
                0x00009d48       0x3c /home/laurie/gcc-arm/bin/../lib/gcc/arm-none-eabi/5.4.1/../../../../arm-none-eabi/lib/armv6-m/libc_nano.a(lib_a-assert.o)
                                 0x3d (size before relaxing)
 .rodata._global_impure_ptr
                0x00009d84        0x4 /home/laurie/gcc-arm/bin/../lib/gcc/arm-none-eabi/5.4.1/../../../../arm-none-eabi/lib/armv6-m/libc_nano.a(lib_a-impure.o)
                0x00009d84                _global_impure_ptr
 .rodata.str1.1
                0x00009d88       0x11 /home/laurie/gcc-arm/bin/../lib/gcc/arm-none-eabi/5.4.1/../../../../arm-none-eabi/lib/armv6-m/libc_nano.a(lib_a-nano-vfprintf.o)
 .rodata.str1.1
                0x00009d99       0x22 /home/laurie/gcc-arm/bin/../lib/gcc/arm-none-eabi/5.4.1/../../../../arm-none-eabi/lib/armv6-m/libc_nano.a(lib_a-nano-vfprintf_i.o)
 *fill*         0x00009dbb        0x1 
 .rodata.__sf_fake_stdin
                0x00009dbc       0x20 /home/laurie/gcc-arm/bin/../lib/gcc/arm-none-eabi/5.4.1/../../../../arm-none-eabi/lib/armv6-m/libc_nano.a(lib_a-findfp.o)
                0x00009dbc                __sf_fake_stdin
 .rodata.__sf_fake_stdout
                0x00009ddc       0x20 /home/laurie/gcc-arm/bin/../lib/gcc/arm-none-eabi/5.4.1/../../../../arm-none-eabi/lib/armv6-m/libc_nano.a(lib_a-findfp.o)
                0x00009ddc                __sf_fake_stdout
 .rodata.__sf_fake_stderr
                0x00009dfc       0x20 /home/laurie/gcc-arm/bin/../lib/gcc/arm-none-eabi/5.4.1/../../../../arm-none-eabi/lib/armv6-m/libc_nano.a(lib_a-findfp.o)
                0x00009dfc                __sf_fake_stderr
 *(.glue_7)
 .glue_7        0x00009e1c        0x0 linker stubs
 *(.glue_7t)
 .glue_7t       0x00009e1c        0x0 linker stubs
 *(.eh_frame)
 .eh_frame      0x00009e1c        0x0 /home/laurie/gcc-arm/bin/../lib/gcc/arm-none-eabi/5.4.1/armv6-m/crtbegin.o
 *(.init)
 .init          0x00009e1c        0x4 /home/laurie/gcc-arm/bin/../lib/gcc/arm-none-eabi/5.4.1/armv6-m/crti.o
                0x00009e1c                _init
 .init          0x00009e20        0x8 /home/laurie/gcc-arm/bin/../lib/gcc/arm-none-eabi/5.4.1/armv6-m/crtn.o
 *(.fini)
 .fini          0x00009e28        0x4 /home/laurie/gcc-arm/bin/../lib/gcc/arm-none-eabi/5.4.1/armv6-m/crti.o
                0x00009e28                _fini
 .fini          0x00009e2c        0x8 /home/laurie/gcc-arm/bin/../lib/gcc/arm-none-eabi/5.4.1/armv6-m/crtn.o
                0x00009e34                . = ALIGN (0x4)

.vfp11_veneer   0x00009e34        0x0
 .vfp11_veneer  0x00009e34        0x0 linker stubs

.v4_bx          0x00009e34        0x0
 .v4_bx         0x00009e34        0x0 linker stubs

.iplt           0x00009e34        0x0
 .iplt          0x00009e34        0x0 /home/laurie/gcc-arm/bin/../lib/gcc/arm-none-eabi/5.4.1/armv6-m/crtbegin.o

.ARM.extab
 *(.ARM.extab* .gnu.linkonce.armextab.*)

.ARM            0x00009e34        0x8
                0x00009e34                __exidx_start = .
 *(.ARM.exidx*)
 .ARM.exidx     0x00009e34        0x8 /home/laurie/gcc-arm/bin/../lib/gcc/arm-none-eabi/5.4.1/../../../../arm-none-eabi/lib/armv6-m/crt0.o
                0x00009e3c                __exidx_end = .

.rel.dyn        0x00009e3c        0x0
 .rel.iplt      0x00009e3c        0x0 /home/laurie/gcc-arm/bin/../lib/gcc/arm-none-eabi/5.4.1/armv6-m/crtbegin.o

.ctors          0x00009e3c        0x0
                0x00009e3c                __CTOR_LIST__ = .
 *crtbegin.o(.ctors)
 *crtbegin?.o(.ctors)
 *(EXCLUDE_FILE(*crtend.o *crtend?.o) .ctors)
 *(SORT(.ctors.*))
 *(.ctors)
                0x00009e3c                __CTOR_END__ = .

.dtors          0x00009e3c        0x0
                0x00009e3c                __DTOR_LIST__ = .
 *crtbegin.o(.dtors)
 *crtbegin?.o(.dtors)
 *(EXCLUDE_FILE(*crtend.o *crtend?.o) .dtors)
 *(SORT(.dtors.*))
 *(.dtors)
                0x00009e3c                __DTOR_END__ = .

.preinit_array  0x00009e3c        0x0
                0x00009e3c                PROVIDE (__preinit_array_start, .)
 *(.preinit_array*)
                0x00009e3c                PROVIDE (__preinit_array_end, .)

.init_array     0x00009e3c        0x4
                0x00009e3c                PROVIDE (__init_array_start, .)
 *(SORT(.init_array.*))
 *(.init_array*)
 .init_array    0x00009e3c        0x4 /home/laurie/gcc-arm/bin/../lib/gcc/arm-none-eabi/5.4.1/armv6-m/crtbegin.o
                0x00009e40                PROVIDE (__init_array_end, .)

.fini_array     0x00009e40        0x4
                [!provide]                PROVIDE (__fini_array_start, .)
 *(SORT(.fini_array.*))
 *(.fini_array*)
 .fini_array    0x00009e40        0x4 /home/laurie/gcc-arm/bin/../lib/gcc/arm-none-eabi/5.4.1/armv6-m/crtbegin.o
                [!provide]                PROVIDE (__fini_array_end, .)
                0x00009e44                __etext = .
                0x00009e44                __DATA_ROM = .

.mtb            0x1fffe000        0x0
                0x1fffe000                . = ALIGN (0x8)
                0x1fffe000                _mtb_start = .
 *(.mtb_buf)
                0x1fffe000                . = ALIGN (0x8)
                0x1fffe000                _mtb_end = .

.interrupts_ram
                0x1fffe000      0x100
                0x1fffe000                . = ALIGN (0x4)
                0x1fffe000                __VECTOR_RAM__ = .
                0x1fffe000                __interrupts_ram_start__ = .
 *(.m_interrupts_ram)
                0x1fffe100                . = (. + M_VECTOR_RAM_SIZE)
 *fill*         0x1fffe000      0x100 
                0x1fffe100                . = ALIGN (0x4)
                0x1fffe100                __interrupts_ram_end__ = .
                0x00000000                __VECTOR_RAM = DEFINED (__ram_vector_table__)?__VECTOR_RAM__:ORIGIN (m_interrupts)
                0x00000000                __RAM_VECTOR_TABLE_SIZE_BYTES = DEFINED (__ram_vector_table__)?(__interrupts_ram_end__ - __interrupts_ram_start__):0x0

.data           0x1fffe100      0x250 load address 0x00009e44
                0x1fffe100                . = ALIGN (0x4)
                0x1fffe100                __DATA_RAM = .
                0x1fffe100                __data_start__ = .
 *(.data)
 *(.data*)
 .data.g_ep     0x1fffe100        0x8 CMakeFiles/dev_hid_mouse_bm.dir/home/laurie/RTES/KSDK_1.3.0/examples/frdmkl46z/demo_apps/usb/device/hid/hid_mouse/usb_descriptor.c.obj
                0x1fffe100                g_ep
 .data.g_usb_desc_ep
                0x1fffe108        0x8 CMakeFiles/dev_hid_mouse_bm.dir/home/laurie/RTES/KSDK_1.3.0/examples/frdmkl46z/demo_apps/usb/device/hid/hid_mouse/usb_descriptor.c.obj
                0x1fffe108                g_usb_desc_ep
 .data.g_usb_dec_class
                0x1fffe110        0xc CMakeFiles/dev_hid_mouse_bm.dir/home/laurie/RTES/KSDK_1.3.0/examples/frdmkl46z/demo_apps/usb/device/hid/hid_mouse/usb_descriptor.c.obj
                0x1fffe110                g_usb_dec_class
 .data.g_device_descriptor
                0x1fffe11c       0x12 CMakeFiles/dev_hid_mouse_bm.dir/home/laurie/RTES/KSDK_1.3.0/examples/frdmkl46z/demo_apps/usb/device/hid/hid_mouse/usb_descriptor.c.obj
                0x1fffe11c                g_device_descriptor
 *fill*         0x1fffe12e        0x2 
 .data.g_config_descriptor
                0x1fffe130       0x22 CMakeFiles/dev_hid_mouse_bm.dir/home/laurie/RTES/KSDK_1.3.0/examples/frdmkl46z/demo_apps/usb/device/hid/hid_mouse/usb_descriptor.c.obj
                0x1fffe130                g_config_descriptor
 *fill*         0x1fffe152        0x2 
 .data.g_report_descriptor
                0x1fffe154       0x34 CMakeFiles/dev_hid_mouse_bm.dir/home/laurie/RTES/KSDK_1.3.0/examples/frdmkl46z/demo_apps/usb/device/hid/hid_mouse/usb_descriptor.c.obj
                0x1fffe154                g_report_descriptor
 .data.g_usb_str_0
                0x1fffe188        0x4 CMakeFiles/dev_hid_mouse_bm.dir/home/laurie/RTES/KSDK_1.3.0/examples/frdmkl46z/demo_apps/usb/device/hid/hid_mouse/usb_descriptor.c.obj
                0x1fffe188                g_usb_str_0
 .data.g_usb_str_1
                0x1fffe18c       0x3a CMakeFiles/dev_hid_mouse_bm.dir/home/laurie/RTES/KSDK_1.3.0/examples/frdmkl46z/demo_apps/usb/device/hid/hid_mouse/usb_descriptor.c.obj
                0x1fffe18c                g_usb_str_1
 *fill*         0x1fffe1c6        0x2 
 .data.g_usb_str_2
                0x1fffe1c8       0x24 CMakeFiles/dev_hid_mouse_bm.dir/home/laurie/RTES/KSDK_1.3.0/examples/frdmkl46z/demo_apps/usb/device/hid/hid_mouse/usb_descriptor.c.obj
                0x1fffe1c8                g_usb_str_2
 .data.g_usb_str_n
                0x1fffe1ec       0x22 CMakeFiles/dev_hid_mouse_bm.dir/home/laurie/RTES/KSDK_1.3.0/examples/frdmkl46z/demo_apps/usb/device/hid/hid_mouse/usb_descriptor.c.obj
                0x1fffe1ec                g_usb_str_n
 *fill*         0x1fffe20e        0x2 
 .data.g_std_desc_size
                0x1fffe210        0x9 CMakeFiles/dev_hid_mouse_bm.dir/home/laurie/RTES/KSDK_1.3.0/examples/frdmkl46z/demo_apps/usb/device/hid/hid_mouse/usb_descriptor.c.obj
                0x1fffe210                g_std_desc_size
 *fill*         0x1fffe219        0x3 
 .data.g_std_descriptors
                0x1fffe21c       0x24 CMakeFiles/dev_hid_mouse_bm.dir/home/laurie/RTES/KSDK_1.3.0/examples/frdmkl46z/demo_apps/usb/device/hid/hid_mouse/usb_descriptor.c.obj
                0x1fffe21c                g_std_descriptors
 .data.g_string_desc_size
                0x1fffe240        0x4 CMakeFiles/dev_hid_mouse_bm.dir/home/laurie/RTES/KSDK_1.3.0/examples/frdmkl46z/demo_apps/usb/device/hid/hid_mouse/usb_descriptor.c.obj
                0x1fffe240                g_string_desc_size
 .data.g_string_descriptors
                0x1fffe244       0x10 CMakeFiles/dev_hid_mouse_bm.dir/home/laurie/RTES/KSDK_1.3.0/examples/frdmkl46z/demo_apps/usb/device/hid/hid_mouse/usb_descriptor.c.obj
                0x1fffe244                g_string_descriptors
 .data.g_usb_lang
                0x1fffe254        0xc CMakeFiles/dev_hid_mouse_bm.dir/home/laurie/RTES/KSDK_1.3.0/examples/frdmkl46z/demo_apps/usb/device/hid/hid_mouse/usb_descriptor.c.obj
                0x1fffe254                g_usb_lang
 .data.g_languages
                0x1fffe260        0xc CMakeFiles/dev_hid_mouse_bm.dir/home/laurie/RTES/KSDK_1.3.0/examples/frdmkl46z/demo_apps/usb/device/hid/hid_mouse/usb_descriptor.c.obj
                0x1fffe260                g_languages
 .data.g_desc_callback
                0x1fffe26c       0x14 CMakeFiles/dev_hid_mouse_bm.dir/home/laurie/RTES/KSDK_1.3.0/examples/frdmkl46z/demo_apps/usb/device/hid/hid_mouse/usb_descriptor.c.obj
                0x1fffe26c                g_desc_callback
 .data.SystemCoreClock
                0x1fffe280        0x4 CMakeFiles/dev_hid_mouse_bm.dir/home/laurie/RTES/KSDK_1.3.0/platform/devices/MKL46Z4/startup/system_MKL46Z4.c.obj
                0x1fffe280                SystemCoreClock
 .data.g_validate_request
                0x1fffe284       0x27 ../../../../../../../../../usb/usb_core/device/lib/bm/armgcc/MKL46Z4/debug/libusbd_bm.a(usb_framework.c.obj)
 *fill*         0x1fffe2ab        0x1 
 .data.g_standard_request
                0x1fffe2ac       0x34 ../../../../../../../../../usb/usb_core/device/lib/bm/armgcc/MKL46Z4/debug/libusbd_bm.a(usb_framework.c.obj)
 .data.g_fastInternalRefClkFreq
                0x1fffe2e0        0x4 ../../../../../../../../../lib/ksdk_platform_lib/armgcc/KL46Z4/debug/libksdk_platform.a(fsl_mcg_hal.c.obj)
                0x1fffe2e0                g_fastInternalRefClkFreq
 .data.g_slowInternalRefClkFreq
                0x1fffe2e4        0x4 ../../../../../../../../../lib/ksdk_platform_lib/armgcc/KL46Z4/debug/libksdk_platform.a(fsl_mcg_hal.c.obj)
                0x1fffe2e4                g_slowInternalRefClkFreq
 .data.impure_data
                0x1fffe2e8       0x60 /home/laurie/gcc-arm/bin/../lib/gcc/arm-none-eabi/5.4.1/../../../../arm-none-eabi/lib/armv6-m/libc_nano.a(lib_a-impure.o)
 .data._impure_ptr
                0x1fffe348        0x4 /home/laurie/gcc-arm/bin/../lib/gcc/arm-none-eabi/5.4.1/../../../../arm-none-eabi/lib/armv6-m/libc_nano.a(lib_a-impure.o)
                0x1fffe348                _impure_ptr
 *(.jcr*)
 .jcr           0x1fffe34c        0x0 /home/laurie/gcc-arm/bin/../lib/gcc/arm-none-eabi/5.4.1/armv6-m/crtbegin.o
 .jcr           0x1fffe34c        0x4 /home/laurie/gcc-arm/bin/../lib/gcc/arm-none-eabi/5.4.1/armv6-m/crtend.o
                0x1fffe350                . = ALIGN (0x4)
                0x1fffe350                __data_end__ = .
                0x0000a094                __DATA_END = (__DATA_ROM + (__data_end__ - __data_start__))
                0x00040000                text_end = (ORIGIN (m_text) + LENGTH (m_text))
                0x00000001                ASSERT ((__DATA_END <= text_end), region m_text overflowed with text and data)

.igot.plt       0x1fffe350        0x0 load address 0x0000a094
 .igot.plt      0x1fffe350        0x0 /home/laurie/gcc-arm/bin/../lib/gcc/arm-none-eabi/5.4.1/armv6-m/crtbegin.o

.bss            0x1fffe400      0x6dc load address 0x0000a200
                0x1fffe400                . = ALIGN (0x4)
                0x1fffe400                __START_BSS = .
                0x1fffe400                __bss_start__ = .
 *(.bss)
 .bss           0x1fffe400       0x1c /home/laurie/gcc-arm/bin/../lib/gcc/arm-none-eabi/5.4.1/armv6-m/crtbegin.o
 *(.bss*)
 .bss.heap_end.5297
                0x1fffe41c        0x4 CMakeFiles/dev_hid_mouse_bm.dir/home/laurie/RTES/KSDK_1.3.0/platform/utilities/src/fsl_misc_utilities.c.obj
 .bss.g_mouse   0x1fffe420       0x10 CMakeFiles/dev_hid_mouse_bm.dir/home/laurie/RTES/KSDK_1.3.0/examples/frdmkl46z/demo_apps/usb/device/hid/hid_mouse/mouse.c.obj
 .bss.dir.8353  0x1fffe430        0x1 CMakeFiles/dev_hid_mouse_bm.dir/home/laurie/RTES/KSDK_1.3.0/examples/frdmkl46z/demo_apps/usb/device/hid/hid_mouse/mouse.c.obj
 .bss.x.8346    0x1fffe431        0x1 CMakeFiles/dev_hid_mouse_bm.dir/home/laurie/RTES/KSDK_1.3.0/examples/frdmkl46z/demo_apps/usb/device/hid/hid_mouse/mouse.c.obj
 .bss.y.8347    0x1fffe432        0x1 CMakeFiles/dev_hid_mouse_bm.dir/home/laurie/RTES/KSDK_1.3.0/examples/frdmkl46z/demo_apps/usb/device/hid/hid_mouse/mouse.c.obj
 *fill*         0x1fffe433        0x1 
 .bss.g_usb_if  0x1fffe434       0x10 CMakeFiles/dev_hid_mouse_bm.dir/home/laurie/RTES/KSDK_1.3.0/examples/frdmkl46z/demo_apps/usb/device/hid/hid_mouse/usb_descriptor.c.obj
 .bss.g_alternate_interface
                0x1fffe444        0x1 CMakeFiles/dev_hid_mouse_bm.dir/home/laurie/RTES/KSDK_1.3.0/examples/frdmkl46z/demo_apps/usb/device/hid/hid_mouse/usb_descriptor.c.obj
 *fill*         0x1fffe445        0x3 
 .bss.s_debugConsole
                0x1fffe448       0x10 CMakeFiles/dev_hid_mouse_bm.dir/home/laurie/RTES/KSDK_1.3.0/platform/utilities/src/fsl_debug_console.c.obj
 .bss.usb_class_object
                0x1fffe458       0x10 ../../../../../../../../../usb/usb_core/device/lib/bm/armgcc/MKL46Z4/debug/libusbd_bm.a(usb_class.c.obj)
 .bss.g_class_handle
                0x1fffe468        0x8 ../../../../../../../../../usb/usb_core/device/lib/bm/armgcc/MKL46Z4/debug/libusbd_bm.a(usb_class.c.obj)
                0x1fffe468                g_class_handle
 .bss.g_hid_class
                0x1fffe470       0x44 ../../../../../../../../../usb/usb_core/device/lib/bm/armgcc/MKL46Z4/debug/libusbd_bm.a(usb_hid.c.obj)
                0x1fffe470                g_hid_class
 *fill*         0x1fffe4b4        0xc 
 .bss.g_usb_dev_data
                0x1fffe4c0       0x60 ../../../../../../../../../usb/usb_core/device/lib/bm/armgcc/MKL46Z4/debug/libusbd_bm.a(usb_dev.c.obj)
                0x1fffe4c0                g_usb_dev_data
 .bss.g_usb_dev
                0x1fffe520       0xa4 ../../../../../../../../../usb/usb_core/device/lib/bm/armgcc/MKL46Z4/debug/libusbd_bm.a(usb_dev.c.obj)
 .bss.bdt       0x1fffe5c4        0x4 ../../../../../../../../../usb/usb_core/device/lib/bm/armgcc/MKL46Z4/debug/libusbd_bm.a(khci_dev.c.obj)
 *fill*         0x1fffe5c8       0x38 
 .bss.g_khci_bdt_buffer
                0x1fffe600      0x200 ../../../../../../../../../usb/usb_core/device/lib/bm/armgcc/MKL46Z4/debug/libusbd_bm.a(khci_dev.c.obj)
                0x1fffe600                g_khci_bdt_buffer
 .bss.g_khci_data
                0x1fffe800      0x1a0 ../../../../../../../../../usb/usb_core/device/lib/bm/armgcc/MKL46Z4/debug/libusbd_bm.a(khci_dev.c.obj)
 .bss.g_zero_pkt_send
                0x1fffe9a0        0x1 ../../../../../../../../../usb/usb_core/device/lib/bm/armgcc/MKL46Z4/debug/libusbd_bm.a(khci_dev.c.obj)
 *fill*         0x1fffe9a1        0x3 
 .bss.g_khci_dev
                0x1fffe9a4       0xb4 ../../../../../../../../../usb/usb_core/device/lib/bm/armgcc/MKL46Z4/debug/libusbd_bm.a(khci_dev.c.obj)
 .bss._usb_khci_dev_swap_buf_ptr
                0x1fffea58        0x4 ../../../../../../../../../usb/usb_core/device/lib/bm/armgcc/MKL46Z4/debug/libusbd_bm.a(khci_dev.c.obj)
 .bss.g_curTask
                0x1fffea5c        0x4 ../../../../../../../../../lib/ksdk_platform_lib/armgcc/KL46Z4/debug/libksdk_platform.a(fsl_os_abstraction_bm.c.obj)
 .bss.g_taskControlBlockPool
                0x1fffea60       0x50 ../../../../../../../../../lib/ksdk_platform_lib/armgcc/KL46Z4/debug/libksdk_platform.a(fsl_os_abstraction_bm.c.obj)
 .bss.g_freeTaskControlBlock
                0x1fffeab0        0x4 ../../../../../../../../../lib/ksdk_platform_lib/armgcc/KL46Z4/debug/libksdk_platform.a(fsl_os_abstraction_bm.c.obj)
 .bss.g_taskListHead
                0x1fffeab4       0x10 ../../../../../../../../../lib/ksdk_platform_lib/armgcc/KL46Z4/debug/libksdk_platform.a(fsl_os_abstraction_bm.c.obj)
 .bss.g_usbClkInFreq
                0x1fffeac4        0x4 ../../../../../../../../../lib/ksdk_platform_lib/armgcc/KL46Z4/debug/libksdk_platform.a(fsl_clock_MKL46Z4.c.obj)
                0x1fffeac4                g_usbClkInFreq
 .bss.g_interruptDisableCount
                0x1fffeac8        0x4 ../../../../../../../../../lib/ksdk_platform_lib/armgcc/KL46Z4/debug/libksdk_platform.a(fsl_interrupt_manager.c.obj)
                0x1fffeac8                g_interruptDisableCount
 .bss.g_xtal0ClkFreq
                0x1fffeacc        0x4 ../../../../../../../../../lib/ksdk_platform_lib/armgcc/KL46Z4/debug/libksdk_platform.a(fsl_mcg_hal.c.obj)
                0x1fffeacc                g_xtal0ClkFreq
 .bss.__malloc_sbrk_start
                0x1fffead0        0x4 /home/laurie/gcc-arm/bin/../lib/gcc/arm-none-eabi/5.4.1/../../../../arm-none-eabi/lib/armv6-m/libc_nano.a(lib_a-nano-mallocr.o)
                0x1fffead0                __malloc_sbrk_start
 .bss.__malloc_free_list
                0x1fffead4        0x4 /home/laurie/gcc-arm/bin/../lib/gcc/arm-none-eabi/5.4.1/../../../../arm-none-eabi/lib/armv6-m/libc_nano.a(lib_a-nano-mallocr.o)
                0x1fffead4                __malloc_free_list
 *(COMMON)
 COMMON         0x1fffead8        0x4 /home/laurie/gcc-arm/bin/../lib/gcc/arm-none-eabi/5.4.1/../../../../arm-none-eabi/lib/armv6-m/libc_nano.a(lib_a-reent.o)
                0x1fffead8                errno
                0x1fffeadc                . = ALIGN (0x4)
                0x1fffeadc                __bss_end__ = .
                0x1fffeadc                __END_BSS = .

.heap           0x1fffeadc      0x404 load address 0x0000a8dc
                0x1fffeae0                . = ALIGN (0x8)
 *fill*         0x1fffeadc        0x4 
                0x1fffeae0                __end__ = .
                0x1fffeae0                PROVIDE (end, .)
                0x1fffeae0                __HeapBase = .
                0x1fffeee0                . = (. + HEAP_SIZE)
 *fill*         0x1fffeae0      0x400 
                0x1fffeee0                __HeapLimit = .

.stack          0x1fffeee0      0x400 load address 0x0000ace0
                0x1fffeee0                . = ALIGN (0x8)
                0x1ffff2e0                . = (. + STACK_SIZE)
 *fill*         0x1fffeee0      0x400 
                0x20006000                __StackTop = (ORIGIN (m_data) + LENGTH (m_data))
                0x20005c00                __StackLimit = (__StackTop - STACK_SIZE)
                0x20006000                PROVIDE (__stack, __StackTop)

.ARM.attributes
                0x00000000       0x28
 *(.ARM.attributes)
 .ARM.attributes
                0x00000000       0x1e /home/laurie/gcc-arm/bin/../lib/gcc/arm-none-eabi/5.4.1/armv6-m/crti.o
 .ARM.attributes
                0x0000001e       0x2c /home/laurie/gcc-arm/bin/../lib/gcc/arm-none-eabi/5.4.1/armv6-m/crtbegin.o
 .ARM.attributes
                0x0000004a       0x1b /home/laurie/gcc-arm/bin/../lib/gcc/arm-none-eabi/5.4.1/../../../../arm-none-eabi/lib/armv6-m/crt0.o
 .ARM.attributes
                0x00000065       0x32 CMakeFiles/dev_hid_mouse_bm.dir/home/laurie/RTES/KSDK_1.3.0/platform/utilities/src/fsl_misc_utilities.c.obj
 .ARM.attributes
                0x00000097       0x1b CMakeFiles/dev_hid_mouse_bm.dir/home/laurie/RTES/KSDK_1.3.0/platform/devices/MKL46Z4/startup/gcc/startup_MKL46Z4.S.obj
 .ARM.attributes
                0x000000b2       0x32 CMakeFiles/dev_hid_mouse_bm.dir/home/laurie/RTES/KSDK_1.3.0/examples/frdmkl46z/demo_apps/usb/device/hid/hid_mouse/mouse.c.obj
 .ARM.attributes
                0x000000e4       0x32 CMakeFiles/dev_hid_mouse_bm.dir/home/laurie/RTES/KSDK_1.3.0/examples/frdmkl46z/demo_apps/usb/device/hid/hid_mouse/usb_descriptor.c.obj
 .ARM.attributes
                0x00000116       0x32 CMakeFiles/dev_hid_mouse_bm.dir/home/laurie/RTES/KSDK_1.3.0/examples/frdmkl46z/demo_apps/usb/device/hid/hid_mouse/hardware_init.c.obj
 .ARM.attributes
                0x00000148       0x32 CMakeFiles/dev_hid_mouse_bm.dir/home/laurie/RTES/KSDK_1.3.0/examples/frdmkl46z/pin_mux.c.obj
 .ARM.attributes
                0x0000017a       0x32 CMakeFiles/dev_hid_mouse_bm.dir/home/laurie/RTES/KSDK_1.3.0/examples/frdmkl46z/board.c.obj
 .ARM.attributes
                0x000001ac       0x32 CMakeFiles/dev_hid_mouse_bm.dir/home/laurie/RTES/KSDK_1.3.0/platform/utilities/src/fsl_debug_console.c.obj
 .ARM.attributes
                0x000001de       0x32 CMakeFiles/dev_hid_mouse_bm.dir/home/laurie/RTES/KSDK_1.3.0/platform/utilities/src/print_scan.c.obj
 .ARM.attributes
                0x00000210       0x32 CMakeFiles/dev_hid_mouse_bm.dir/home/laurie/RTES/KSDK_1.3.0/platform/devices/MKL46Z4/startup/system_MKL46Z4.c.obj
 .ARM.attributes
                0x00000242       0x32 CMakeFiles/dev_hid_mouse_bm.dir/home/laurie/RTES/KSDK_1.3.0/platform/devices/startup.c.obj
 .ARM.attributes
                0x00000274       0x32 ../../../../../../../../../usb/usb_core/device/lib/bm/armgcc/MKL46Z4/debug/libusbd_bm.a(adapter_sdk.c.obj)
 .ARM.attributes
                0x000002a6       0x32 ../../../../../../../../../usb/usb_core/device/lib/bm/armgcc/MKL46Z4/debug/libusbd_bm.a(usb_class.c.obj)
 .ARM.attributes
                0x000002d8       0x32 ../../../../../../../../../usb/usb_core/device/lib/bm/armgcc/MKL46Z4/debug/libusbd_bm.a(usb_hid.c.obj)
 .ARM.attributes
                0x0000030a       0x32 ../../../../../../../../../usb/usb_core/device/lib/bm/armgcc/MKL46Z4/debug/libusbd_bm.a(usb_dev.c.obj)
 .ARM.attributes
                0x0000033c       0x32 ../../../../../../../../../usb/usb_core/device/lib/bm/armgcc/MKL46Z4/debug/libusbd_bm.a(usb_framework.c.obj)
 .ARM.attributes
                0x0000036e       0x32 ../../../../../../../../../usb/usb_core/device/lib/bm/armgcc/MKL46Z4/debug/libusbd_bm.a(device_khci_interface.c.obj)
 .ARM.attributes
                0x000003a0       0x32 ../../../../../../../../../usb/usb_core/device/lib/bm/armgcc/MKL46Z4/debug/libusbd_bm.a(khci_dev.c.obj)
 .ARM.attributes
                0x000003d2       0x32 ../../../../../../../../../usb/usb_core/device/lib/bm/armgcc/MKL46Z4/debug/libusbd_bm.a(usb_dev_bsp.c.obj)
 .ARM.attributes
                0x00000404       0x32 ../../../../../../../../../lib/ksdk_platform_lib/armgcc/KL46Z4/debug/libksdk_platform.a(fsl_os_abstraction_bm.c.obj)
 .ARM.attributes
                0x00000436       0x32 ../../../../../../../../../lib/ksdk_platform_lib/armgcc/KL46Z4/debug/libksdk_platform.a(fsl_clock_manager.c.obj)
 .ARM.attributes
                0x00000468       0x32 ../../../../../../../../../lib/ksdk_platform_lib/armgcc/KL46Z4/debug/libksdk_platform.a(fsl_clock_manager_common.c.obj)
 .ARM.attributes
                0x0000049a       0x32 ../../../../../../../../../lib/ksdk_platform_lib/armgcc/KL46Z4/debug/libksdk_platform.a(fsl_clock_MKL46Z4.c.obj)
 .ARM.attributes
                0x000004cc       0x32 ../../../../../../../../../lib/ksdk_platform_lib/armgcc/KL46Z4/debug/libksdk_platform.a(fsl_interrupt_manager.c.obj)
 .ARM.attributes
                0x000004fe       0x32 ../../../../../../../../../lib/ksdk_platform_lib/armgcc/KL46Z4/debug/libksdk_platform.a(fsl_lpsci_hal.c.obj)
 .ARM.attributes
                0x00000530       0x32 ../../../../../../../../../lib/ksdk_platform_lib/armgcc/KL46Z4/debug/libksdk_platform.a(fsl_lptmr_hal.c.obj)
 .ARM.attributes
                0x00000562       0x32 ../../../../../../../../../lib/ksdk_platform_lib/armgcc/KL46Z4/debug/libksdk_platform.a(fsl_mcg_hal.c.obj)
 .ARM.attributes
                0x00000594       0x32 ../../../../../../../../../lib/ksdk_platform_lib/armgcc/KL46Z4/debug/libksdk_platform.a(fsl_mcg_hal_modes.c.obj)
 .ARM.attributes
                0x000005c6       0x32 ../../../../../../../../../lib/ksdk_platform_lib/armgcc/KL46Z4/debug/libksdk_platform.a(fsl_osc_hal.c.obj)
 .ARM.attributes
                0x000005f8       0x32 ../../../../../../../../../lib/ksdk_platform_lib/armgcc/KL46Z4/debug/libksdk_platform.a(fsl_sim_hal_MKL46Z4.c.obj)
 .ARM.attributes
                0x0000062a       0x32 ../../../../../../../../../lib/ksdk_platform_lib/armgcc/KL46Z4/debug/libksdk_platform.a(fsl_uart_hal.c.obj)
 .ARM.attributes
                0x0000065c       0x2c /home/laurie/gcc-arm/bin/../lib/gcc/arm-none-eabi/5.4.1/../../../../arm-none-eabi/lib/armv6-m/libc_nano.a(lib_a-assert.o)
 .ARM.attributes
                0x00000688       0x2c /home/laurie/gcc-arm/bin/../lib/gcc/arm-none-eabi/5.4.1/../../../../arm-none-eabi/lib/armv6-m/libc_nano.a(lib_a-calloc.o)
 .ARM.attributes
                0x000006b4       0x2c /home/laurie/gcc-arm/bin/../lib/gcc/arm-none-eabi/5.4.1/../../../../arm-none-eabi/lib/armv6-m/libc_nano.a(lib_a-errno.o)
 .ARM.attributes
                0x000006e0       0x2c /home/laurie/gcc-arm/bin/../lib/gcc/arm-none-eabi/5.4.1/../../../../arm-none-eabi/lib/armv6-m/libc_nano.a(lib_a-exit.o)
 .ARM.attributes
                0x0000070c       0x2c /home/laurie/gcc-arm/bin/../lib/gcc/arm-none-eabi/5.4.1/../../../../arm-none-eabi/lib/armv6-m/libc_nano.a(lib_a-fprintf.o)
 .ARM.attributes
                0x00000738       0x2c /home/laurie/gcc-arm/bin/../lib/gcc/arm-none-eabi/5.4.1/../../../../arm-none-eabi/lib/armv6-m/libc_nano.a(lib_a-impure.o)
 .ARM.attributes
                0x00000764       0x2c /home/laurie/gcc-arm/bin/../lib/gcc/arm-none-eabi/5.4.1/../../../../arm-none-eabi/lib/armv6-m/libc_nano.a(lib_a-init.o)
 .ARM.attributes
                0x00000790       0x2c /home/laurie/gcc-arm/bin/../lib/gcc/arm-none-eabi/5.4.1/../../../../arm-none-eabi/lib/armv6-m/libc_nano.a(lib_a-malloc.o)
 .ARM.attributes
                0x000007bc       0x2c /home/laurie/gcc-arm/bin/../lib/gcc/arm-none-eabi/5.4.1/../../../../arm-none-eabi/lib/armv6-m/libc_nano.a(lib_a-memcpy-stub.o)
 .ARM.attributes
                0x000007e8       0x2c /home/laurie/gcc-arm/bin/../lib/gcc/arm-none-eabi/5.4.1/../../../../arm-none-eabi/lib/armv6-m/libc_nano.a(lib_a-memset.o)
 .ARM.attributes
                0x00000814       0x2c /home/laurie/gcc-arm/bin/../lib/gcc/arm-none-eabi/5.4.1/../../../../arm-none-eabi/lib/armv6-m/libc_nano.a(lib_a-nano-callocr.o)
 .ARM.attributes
                0x00000840       0x2c /home/laurie/gcc-arm/bin/../lib/gcc/arm-none-eabi/5.4.1/../../../../arm-none-eabi/lib/armv6-m/libc_nano.a(lib_a-nano-freer.o)
 .ARM.attributes
                0x0000086c       0x2c /home/laurie/gcc-arm/bin/../lib/gcc/arm-none-eabi/5.4.1/../../../../arm-none-eabi/lib/armv6-m/libc_nano.a(lib_a-nano-mallocr.o)
 .ARM.attributes
                0x00000898       0x2c /home/laurie/gcc-arm/bin/../lib/gcc/arm-none-eabi/5.4.1/../../../../arm-none-eabi/lib/armv6-m/libc_nano.a(lib_a-nano-vfprintf.o)
 .ARM.attributes
                0x000008c4       0x2c /home/laurie/gcc-arm/bin/../lib/gcc/arm-none-eabi/5.4.1/../../../../arm-none-eabi/lib/armv6-m/libc_nano.a(lib_a-nano-vfprintf_i.o)
 .ARM.attributes
                0x000008f0       0x2c /home/laurie/gcc-arm/bin/../lib/gcc/arm-none-eabi/5.4.1/../../../../arm-none-eabi/lib/armv6-m/libc_nano.a(lib_a-sbrkr.o)
 .ARM.attributes
                0x0000091c       0x1c /home/laurie/gcc-arm/bin/../lib/gcc/arm-none-eabi/5.4.1/../../../../arm-none-eabi/lib/armv6-m/libc_nano.a(lib_a-strlen.o)
 .ARM.attributes
                0x00000938       0x2c /home/laurie/gcc-arm/bin/../lib/gcc/arm-none-eabi/5.4.1/../../../../arm-none-eabi/lib/armv6-m/libc_nano.a(lib_a-wbuf.o)
 .ARM.attributes
                0x00000964       0x2c /home/laurie/gcc-arm/bin/../lib/gcc/arm-none-eabi/5.4.1/../../../../arm-none-eabi/lib/armv6-m/libc_nano.a(lib_a-wsetup.o)
 .ARM.attributes
                0x00000990       0x2c /home/laurie/gcc-arm/bin/../lib/gcc/arm-none-eabi/5.4.1/../../../../arm-none-eabi/lib/armv6-m/libc_nano.a(lib_a-abort.o)
 .ARM.attributes
                0x000009bc       0x2c /home/laurie/gcc-arm/bin/../lib/gcc/arm-none-eabi/5.4.1/../../../../arm-none-eabi/lib/armv6-m/libc_nano.a(lib_a-fflush.o)
 .ARM.attributes
                0x000009e8       0x2c /home/laurie/gcc-arm/bin/../lib/gcc/arm-none-eabi/5.4.1/../../../../arm-none-eabi/lib/armv6-m/libc_nano.a(lib_a-findfp.o)
 .ARM.attributes
                0x00000a14       0x2c /home/laurie/gcc-arm/bin/../lib/gcc/arm-none-eabi/5.4.1/../../../../arm-none-eabi/lib/armv6-m/libc_nano.a(lib_a-fwalk.o)
 .ARM.attributes
                0x00000a40       0x2c /home/laurie/gcc-arm/bin/../lib/gcc/arm-none-eabi/5.4.1/../../../../arm-none-eabi/lib/armv6-m/libc_nano.a(lib_a-makebuf.o)
 .ARM.attributes
                0x00000a6c       0x2c /home/laurie/gcc-arm/bin/../lib/gcc/arm-none-eabi/5.4.1/../../../../arm-none-eabi/lib/armv6-m/libc_nano.a(lib_a-memchr-stub.o)
 .ARM.attributes
                0x00000a98       0x2c /home/laurie/gcc-arm/bin/../lib/gcc/arm-none-eabi/5.4.1/../../../../arm-none-eabi/lib/armv6-m/libc_nano.a(lib_a-mlock.o)
 .ARM.attributes
                0x00000ac4       0x2c /home/laurie/gcc-arm/bin/../lib/gcc/arm-none-eabi/5.4.1/../../../../arm-none-eabi/lib/armv6-m/libc_nano.a(lib_a-reent.o)
 .ARM.attributes
                0x00000af0       0x2c /home/laurie/gcc-arm/bin/../lib/gcc/arm-none-eabi/5.4.1/../../../../arm-none-eabi/lib/armv6-m/libc_nano.a(lib_a-signal.o)
 .ARM.attributes
                0x00000b1c       0x2c /home/laurie/gcc-arm/bin/../lib/gcc/arm-none-eabi/5.4.1/../../../../arm-none-eabi/lib/armv6-m/libc_nano.a(lib_a-signalr.o)
 .ARM.attributes
                0x00000b48       0x2c /home/laurie/gcc-arm/bin/../lib/gcc/arm-none-eabi/5.4.1/../../../../arm-none-eabi/lib/armv6-m/libc_nano.a(lib_a-stdio.o)
 .ARM.attributes
                0x00000b74       0x2c /home/laurie/gcc-arm/bin/../lib/gcc/arm-none-eabi/5.4.1/../../../../arm-none-eabi/lib/armv6-m/libc_nano.a(lib_a-writer.o)
 .ARM.attributes
                0x00000ba0       0x2c /home/laurie/gcc-arm/bin/../lib/gcc/arm-none-eabi/5.4.1/../../../../arm-none-eabi/lib/armv6-m/libc_nano.a(lib_a-closer.o)
 .ARM.attributes
                0x00000bcc       0x2c /home/laurie/gcc-arm/bin/../lib/gcc/arm-none-eabi/5.4.1/../../../../arm-none-eabi/lib/armv6-m/libc_nano.a(lib_a-fstatr.o)
 .ARM.attributes
                0x00000bf8       0x2c /home/laurie/gcc-arm/bin/../lib/gcc/arm-none-eabi/5.4.1/../../../../arm-none-eabi/lib/armv6-m/libc_nano.a(lib_a-isattyr.o)
 .ARM.attributes
                0x00000c24       0x2c /home/laurie/gcc-arm/bin/../lib/gcc/arm-none-eabi/5.4.1/../../../../arm-none-eabi/lib/armv6-m/libc_nano.a(lib_a-lseekr.o)
 .ARM.attributes
                0x00000c50       0x2c /home/laurie/gcc-arm/bin/../lib/gcc/arm-none-eabi/5.4.1/../../../../arm-none-eabi/lib/armv6-m/libc_nano.a(lib_a-readr.o)
 .ARM.attributes
                0x00000c7c       0x1e /home/laurie/gcc-arm/bin/../lib/gcc/arm-none-eabi/5.4.1/armv6-m/libgcc.a(_udivsi3.o)
 .ARM.attributes
                0x00000c9a       0x1e /home/laurie/gcc-arm/bin/../lib/gcc/arm-none-eabi/5.4.1/armv6-m/libgcc.a(_divsi3.o)
 .ARM.attributes
                0x00000cb8       0x1e /home/laurie/gcc-arm/bin/../lib/gcc/arm-none-eabi/5.4.1/armv6-m/libgcc.a(_dvmd_tls.o)
 .ARM.attributes
                0x00000cd6       0x2c /home/laurie/gcc-arm/bin/../lib/gcc/arm-none-eabi/5.4.1/../../../../arm-none-eabi/lib/armv6-m/libnosys.a(close.o)
 .ARM.attributes
                0x00000d02       0x2c /home/laurie/gcc-arm/bin/../lib/gcc/arm-none-eabi/5.4.1/../../../../arm-none-eabi/lib/armv6-m/libnosys.a(fstat.o)
 .ARM.attributes
                0x00000d2e       0x2c /home/laurie/gcc-arm/bin/../lib/gcc/arm-none-eabi/5.4.1/../../../../arm-none-eabi/lib/armv6-m/libnosys.a(getpid.o)
 .ARM.attributes
                0x00000d5a       0x2c /home/laurie/gcc-arm/bin/../lib/gcc/arm-none-eabi/5.4.1/../../../../arm-none-eabi/lib/armv6-m/libnosys.a(isatty.o)
 .ARM.attributes
                0x00000d86       0x2c /home/laurie/gcc-arm/bin/../lib/gcc/arm-none-eabi/5.4.1/../../../../arm-none-eabi/lib/armv6-m/libnosys.a(kill.o)
 .ARM.attributes
                0x00000db2       0x2c /home/laurie/gcc-arm/bin/../lib/gcc/arm-none-eabi/5.4.1/../../../../arm-none-eabi/lib/armv6-m/libnosys.a(lseek.o)
 .ARM.attributes
                0x00000dde       0x2c /home/laurie/gcc-arm/bin/../lib/gcc/arm-none-eabi/5.4.1/../../../../arm-none-eabi/lib/armv6-m/libnosys.a(_exit.o)
 .ARM.attributes
                0x00000e0a       0x2c /home/laurie/gcc-arm/bin/../lib/gcc/arm-none-eabi/5.4.1/armv6-m/crtend.o
 .ARM.attributes
                0x00000e36       0x1e /home/laurie/gcc-arm/bin/../lib/gcc/arm-none-eabi/5.4.1/armv6-m/crtn.o
                0x00000001                ASSERT ((__StackLimit >= __HeapLimit), region m_data overflowed with stack and heap)
OUTPUT(debug/dev_hid_mouse_bm.elf elf32-littlearm)

.debug_info     0x00000000    0x12069
 .debug_info    0x00000000      0x16e CMakeFiles/dev_hid_mouse_bm.dir/home/laurie/RTES/KSDK_1.3.0/platform/utilities/src/fsl_misc_utilities.c.obj
 .debug_info    0x0000016e       0xd9 CMakeFiles/dev_hid_mouse_bm.dir/home/laurie/RTES/KSDK_1.3.0/platform/devices/MKL46Z4/startup/gcc/startup_MKL46Z4.S.obj
 .debug_info    0x00000247      0x6b5 CMakeFiles/dev_hid_mouse_bm.dir/home/laurie/RTES/KSDK_1.3.0/examples/frdmkl46z/demo_apps/usb/device/hid/hid_mouse/mouse.c.obj
 .debug_info    0x000008fc      0xc17 CMakeFiles/dev_hid_mouse_bm.dir/home/laurie/RTES/KSDK_1.3.0/examples/frdmkl46z/demo_apps/usb/device/hid/hid_mouse/usb_descriptor.c.obj
 .debug_info    0x00001513       0xeb CMakeFiles/dev_hid_mouse_bm.dir/home/laurie/RTES/KSDK_1.3.0/examples/frdmkl46z/demo_apps/usb/device/hid/hid_mouse/hardware_init.c.obj
 .debug_info    0x000015fe      0x4ca CMakeFiles/dev_hid_mouse_bm.dir/home/laurie/RTES/KSDK_1.3.0/examples/frdmkl46z/pin_mux.c.obj
 .debug_info    0x00001ac8      0xa76 CMakeFiles/dev_hid_mouse_bm.dir/home/laurie/RTES/KSDK_1.3.0/examples/frdmkl46z/board.c.obj
 .debug_info    0x0000253e      0xa95 CMakeFiles/dev_hid_mouse_bm.dir/home/laurie/RTES/KSDK_1.3.0/platform/utilities/src/fsl_debug_console.c.obj
 .debug_info    0x00002fd3      0x5e7 CMakeFiles/dev_hid_mouse_bm.dir/home/laurie/RTES/KSDK_1.3.0/platform/utilities/src/print_scan.c.obj
 .debug_info    0x000035ba      0x64e CMakeFiles/dev_hid_mouse_bm.dir/home/laurie/RTES/KSDK_1.3.0/platform/devices/MKL46Z4/startup/system_MKL46Z4.c.obj
 .debug_info    0x00003c08      0x278 CMakeFiles/dev_hid_mouse_bm.dir/home/laurie/RTES/KSDK_1.3.0/platform/devices/startup.c.obj
 .debug_info    0x00003e80      0xb30 ../../../../../../../../../usb/usb_core/device/lib/bm/armgcc/MKL46Z4/debug/libusbd_bm.a(adapter_sdk.c.obj)
 .debug_info    0x000049b0      0x647 ../../../../../../../../../usb/usb_core/device/lib/bm/armgcc/MKL46Z4/debug/libusbd_bm.a(usb_class.c.obj)
 .debug_info    0x00004ff7      0xc7a ../../../../../../../../../usb/usb_core/device/lib/bm/armgcc/MKL46Z4/debug/libusbd_bm.a(usb_hid.c.obj)
 .debug_info    0x00005c71     0x124e ../../../../../../../../../usb/usb_core/device/lib/bm/armgcc/MKL46Z4/debug/libusbd_bm.a(usb_dev.c.obj)
 .debug_info    0x00006ebf      0xac6 ../../../../../../../../../usb/usb_core/device/lib/bm/armgcc/MKL46Z4/debug/libusbd_bm.a(usb_framework.c.obj)
 .debug_info    0x00007985      0x3af ../../../../../../../../../usb/usb_core/device/lib/bm/armgcc/MKL46Z4/debug/libusbd_bm.a(device_khci_interface.c.obj)
 .debug_info    0x00007d34     0x1d0c ../../../../../../../../../usb/usb_core/device/lib/bm/armgcc/MKL46Z4/debug/libusbd_bm.a(khci_dev.c.obj)
 .debug_info    0x00009a40      0x69d ../../../../../../../../../usb/usb_core/device/lib/bm/armgcc/MKL46Z4/debug/libusbd_bm.a(usb_dev_bsp.c.obj)
 .debug_info    0x0000a0dd     0x14e0 ../../../../../../../../../lib/ksdk_platform_lib/armgcc/KL46Z4/debug/libksdk_platform.a(fsl_os_abstraction_bm.c.obj)
 .debug_info    0x0000b5bd     0x16d3 ../../../../../../../../../lib/ksdk_platform_lib/armgcc/KL46Z4/debug/libksdk_platform.a(fsl_clock_manager.c.obj)
 .debug_info    0x0000cc90      0x454 ../../../../../../../../../lib/ksdk_platform_lib/armgcc/KL46Z4/debug/libksdk_platform.a(fsl_clock_manager_common.c.obj)
 .debug_info    0x0000d0e4     0x185a ../../../../../../../../../lib/ksdk_platform_lib/armgcc/KL46Z4/debug/libksdk_platform.a(fsl_clock_MKL46Z4.c.obj)
 .debug_info    0x0000e93e      0x286 ../../../../../../../../../lib/ksdk_platform_lib/armgcc/KL46Z4/debug/libksdk_platform.a(fsl_interrupt_manager.c.obj)
 .debug_info    0x0000ebc4      0x92c ../../../../../../../../../lib/ksdk_platform_lib/armgcc/KL46Z4/debug/libksdk_platform.a(fsl_lpsci_hal.c.obj)
 .debug_info    0x0000f4f0      0x43b ../../../../../../../../../lib/ksdk_platform_lib/armgcc/KL46Z4/debug/libksdk_platform.a(fsl_lptmr_hal.c.obj)
 .debug_info    0x0000f92b      0xc5a ../../../../../../../../../lib/ksdk_platform_lib/armgcc/KL46Z4/debug/libksdk_platform.a(fsl_mcg_hal.c.obj)
 .debug_info    0x00010585      0x86e ../../../../../../../../../lib/ksdk_platform_lib/armgcc/KL46Z4/debug/libksdk_platform.a(fsl_mcg_hal_modes.c.obj)
 .debug_info    0x00010df3       0xeb ../../../../../../../../../lib/ksdk_platform_lib/armgcc/KL46Z4/debug/libksdk_platform.a(fsl_osc_hal.c.obj)
 .debug_info    0x00010ede      0x968 ../../../../../../../../../lib/ksdk_platform_lib/armgcc/KL46Z4/debug/libksdk_platform.a(fsl_sim_hal_MKL46Z4.c.obj)
 .debug_info    0x00011846      0x823 ../../../../../../../../../lib/ksdk_platform_lib/armgcc/KL46Z4/debug/libksdk_platform.a(fsl_uart_hal.c.obj)

.debug_abbrev   0x00000000     0x3241
 .debug_abbrev  0x00000000       0xc1 CMakeFiles/dev_hid_mouse_bm.dir/home/laurie/RTES/KSDK_1.3.0/platform/utilities/src/fsl_misc_utilities.c.obj
 .debug_abbrev  0x000000c1       0x14 CMakeFiles/dev_hid_mouse_bm.dir/home/laurie/RTES/KSDK_1.3.0/platform/devices/MKL46Z4/startup/gcc/startup_MKL46Z4.S.obj
 .debug_abbrev  0x000000d5      0x20e CMakeFiles/dev_hid_mouse_bm.dir/home/laurie/RTES/KSDK_1.3.0/examples/frdmkl46z/demo_apps/usb/device/hid/hid_mouse/mouse.c.obj
 .debug_abbrev  0x000002e3      0x187 CMakeFiles/dev_hid_mouse_bm.dir/home/laurie/RTES/KSDK_1.3.0/examples/frdmkl46z/demo_apps/usb/device/hid/hid_mouse/usb_descriptor.c.obj
 .debug_abbrev  0x0000046a       0x81 CMakeFiles/dev_hid_mouse_bm.dir/home/laurie/RTES/KSDK_1.3.0/examples/frdmkl46z/demo_apps/usb/device/hid/hid_mouse/hardware_init.c.obj
 .debug_abbrev  0x000004eb      0x125 CMakeFiles/dev_hid_mouse_bm.dir/home/laurie/RTES/KSDK_1.3.0/examples/frdmkl46z/pin_mux.c.obj
 .debug_abbrev  0x00000610      0x25c CMakeFiles/dev_hid_mouse_bm.dir/home/laurie/RTES/KSDK_1.3.0/examples/frdmkl46z/board.c.obj
 .debug_abbrev  0x0000086c      0x239 CMakeFiles/dev_hid_mouse_bm.dir/home/laurie/RTES/KSDK_1.3.0/platform/utilities/src/fsl_debug_console.c.obj
 .debug_abbrev  0x00000aa5      0x1b3 CMakeFiles/dev_hid_mouse_bm.dir/home/laurie/RTES/KSDK_1.3.0/platform/utilities/src/print_scan.c.obj
 .debug_abbrev  0x00000c58      0x127 CMakeFiles/dev_hid_mouse_bm.dir/home/laurie/RTES/KSDK_1.3.0/platform/devices/MKL46Z4/startup/system_MKL46Z4.c.obj
 .debug_abbrev  0x00000d7f       0xe4 CMakeFiles/dev_hid_mouse_bm.dir/home/laurie/RTES/KSDK_1.3.0/platform/devices/startup.c.obj
 .debug_abbrev  0x00000e63      0x185 ../../../../../../../../../usb/usb_core/device/lib/bm/armgcc/MKL46Z4/debug/libusbd_bm.a(adapter_sdk.c.obj)
 .debug_abbrev  0x00000fe8      0x1de ../../../../../../../../../usb/usb_core/device/lib/bm/armgcc/MKL46Z4/debug/libusbd_bm.a(usb_class.c.obj)
 .debug_abbrev  0x000011c6      0x1eb ../../../../../../../../../usb/usb_core/device/lib/bm/armgcc/MKL46Z4/debug/libusbd_bm.a(usb_hid.c.obj)
 .debug_abbrev  0x000013b1      0x1ef ../../../../../../../../../usb/usb_core/device/lib/bm/armgcc/MKL46Z4/debug/libusbd_bm.a(usb_dev.c.obj)
 .debug_abbrev  0x000015a0      0x19a ../../../../../../../../../usb/usb_core/device/lib/bm/armgcc/MKL46Z4/debug/libusbd_bm.a(usb_framework.c.obj)
 .debug_abbrev  0x0000173a       0x8b ../../../../../../../../../usb/usb_core/device/lib/bm/armgcc/MKL46Z4/debug/libusbd_bm.a(device_khci_interface.c.obj)
 .debug_abbrev  0x000017c5      0x296 ../../../../../../../../../usb/usb_core/device/lib/bm/armgcc/MKL46Z4/debug/libusbd_bm.a(khci_dev.c.obj)
 .debug_abbrev  0x00001a5b      0x1dc ../../../../../../../../../usb/usb_core/device/lib/bm/armgcc/MKL46Z4/debug/libusbd_bm.a(usb_dev_bsp.c.obj)
 .debug_abbrev  0x00001c37      0x2dd ../../../../../../../../../lib/ksdk_platform_lib/armgcc/KL46Z4/debug/libksdk_platform.a(fsl_os_abstraction_bm.c.obj)
 .debug_abbrev  0x00001f14      0x2b4 ../../../../../../../../../lib/ksdk_platform_lib/armgcc/KL46Z4/debug/libksdk_platform.a(fsl_clock_manager.c.obj)
 .debug_abbrev  0x000021c8       0xd9 ../../../../../../../../../lib/ksdk_platform_lib/armgcc/KL46Z4/debug/libksdk_platform.a(fsl_clock_manager_common.c.obj)
 .debug_abbrev  0x000022a1      0x309 ../../../../../../../../../lib/ksdk_platform_lib/armgcc/KL46Z4/debug/libksdk_platform.a(fsl_clock_MKL46Z4.c.obj)
 .debug_abbrev  0x000025aa      0x12e ../../../../../../../../../lib/ksdk_platform_lib/armgcc/KL46Z4/debug/libksdk_platform.a(fsl_interrupt_manager.c.obj)
 .debug_abbrev  0x000026d8      0x217 ../../../../../../../../../lib/ksdk_platform_lib/armgcc/KL46Z4/debug/libksdk_platform.a(fsl_lpsci_hal.c.obj)
 .debug_abbrev  0x000028ef      0x139 ../../../../../../../../../lib/ksdk_platform_lib/armgcc/KL46Z4/debug/libksdk_platform.a(fsl_lptmr_hal.c.obj)
 .debug_abbrev  0x00002a28      0x246 ../../../../../../../../../lib/ksdk_platform_lib/armgcc/KL46Z4/debug/libksdk_platform.a(fsl_mcg_hal.c.obj)
 .debug_abbrev  0x00002c6e      0x1ad ../../../../../../../../../lib/ksdk_platform_lib/armgcc/KL46Z4/debug/libksdk_platform.a(fsl_mcg_hal_modes.c.obj)
 .debug_abbrev  0x00002e1b       0x97 ../../../../../../../../../lib/ksdk_platform_lib/armgcc/KL46Z4/debug/libksdk_platform.a(fsl_osc_hal.c.obj)
 .debug_abbrev  0x00002eb2      0x199 ../../../../../../../../../lib/ksdk_platform_lib/armgcc/KL46Z4/debug/libksdk_platform.a(fsl_sim_hal_MKL46Z4.c.obj)
 .debug_abbrev  0x0000304b      0x1f6 ../../../../../../../../../lib/ksdk_platform_lib/armgcc/KL46Z4/debug/libksdk_platform.a(fsl_uart_hal.c.obj)

.debug_aranges  0x00000000     0x1238
 .debug_aranges
                0x00000000       0x28 CMakeFiles/dev_hid_mouse_bm.dir/home/laurie/RTES/KSDK_1.3.0/platform/utilities/src/fsl_misc_utilities.c.obj
 .debug_aranges
                0x00000028       0x20 CMakeFiles/dev_hid_mouse_bm.dir/home/laurie/RTES/KSDK_1.3.0/platform/devices/MKL46Z4/startup/gcc/startup_MKL46Z4.S.obj
 .debug_aranges
                0x00000048       0x50 CMakeFiles/dev_hid_mouse_bm.dir/home/laurie/RTES/KSDK_1.3.0/examples/frdmkl46z/demo_apps/usb/device/hid/hid_mouse/mouse.c.obj
 .debug_aranges
                0x00000098       0x48 CMakeFiles/dev_hid_mouse_bm.dir/home/laurie/RTES/KSDK_1.3.0/examples/frdmkl46z/demo_apps/usb/device/hid/hid_mouse/usb_descriptor.c.obj
 .debug_aranges
                0x000000e0       0x20 CMakeFiles/dev_hid_mouse_bm.dir/home/laurie/RTES/KSDK_1.3.0/examples/frdmkl46z/demo_apps/usb/device/hid/hid_mouse/hardware_init.c.obj
 .debug_aranges
                0x00000100       0x98 CMakeFiles/dev_hid_mouse_bm.dir/home/laurie/RTES/KSDK_1.3.0/examples/frdmkl46z/pin_mux.c.obj
 .debug_aranges
                0x00000198       0x70 CMakeFiles/dev_hid_mouse_bm.dir/home/laurie/RTES/KSDK_1.3.0/examples/frdmkl46z/board.c.obj
 .debug_aranges
                0x00000208       0xa0 CMakeFiles/dev_hid_mouse_bm.dir/home/laurie/RTES/KSDK_1.3.0/platform/utilities/src/fsl_debug_console.c.obj
 .debug_aranges
                0x000002a8       0x48 CMakeFiles/dev_hid_mouse_bm.dir/home/laurie/RTES/KSDK_1.3.0/platform/utilities/src/print_scan.c.obj
 .debug_aranges
                0x000002f0       0x28 CMakeFiles/dev_hid_mouse_bm.dir/home/laurie/RTES/KSDK_1.3.0/platform/devices/MKL46Z4/startup/system_MKL46Z4.c.obj
 .debug_aranges
                0x00000318       0x20 CMakeFiles/dev_hid_mouse_bm.dir/home/laurie/RTES/KSDK_1.3.0/platform/devices/startup.c.obj
 .debug_aranges
                0x00000338       0xf0 ../../../../../../../../../usb/usb_core/device/lib/bm/armgcc/MKL46Z4/debug/libusbd_bm.a(adapter_sdk.c.obj)
 .debug_aranges
                0x00000428       0x60 ../../../../../../../../../usb/usb_core/device/lib/bm/armgcc/MKL46Z4/debug/libusbd_bm.a(usb_class.c.obj)
 .debug_aranges
                0x00000488       0x80 ../../../../../../../../../usb/usb_core/device/lib/bm/armgcc/MKL46Z4/debug/libusbd_bm.a(usb_hid.c.obj)
 .debug_aranges
                0x00000508       0xe0 ../../../../../../../../../usb/usb_core/device/lib/bm/armgcc/MKL46Z4/debug/libusbd_bm.a(usb_dev.c.obj)
 .debug_aranges
                0x000005e8       0x88 ../../../../../../../../../usb/usb_core/device/lib/bm/armgcc/MKL46Z4/debug/libusbd_bm.a(usb_framework.c.obj)
 .debug_aranges
                0x00000670       0x18 ../../../../../../../../../usb/usb_core/device/lib/bm/armgcc/MKL46Z4/debug/libusbd_bm.a(device_khci_interface.c.obj)
 .debug_aranges
                0x00000688      0x210 ../../../../../../../../../usb/usb_core/device/lib/bm/armgcc/MKL46Z4/debug/libusbd_bm.a(khci_dev.c.obj)
 .debug_aranges
                0x00000898       0x78 ../../../../../../../../../usb/usb_core/device/lib/bm/armgcc/MKL46Z4/debug/libusbd_bm.a(usb_dev_bsp.c.obj)
 .debug_aranges
                0x00000910      0x170 ../../../../../../../../../lib/ksdk_platform_lib/armgcc/KL46Z4/debug/libksdk_platform.a(fsl_os_abstraction_bm.c.obj)
 .debug_aranges
                0x00000a80      0x150 ../../../../../../../../../lib/ksdk_platform_lib/armgcc/KL46Z4/debug/libksdk_platform.a(fsl_clock_manager.c.obj)
 .debug_aranges
                0x00000bd0       0x18 ../../../../../../../../../lib/ksdk_platform_lib/armgcc/KL46Z4/debug/libksdk_platform.a(fsl_clock_manager_common.c.obj)
 .debug_aranges
                0x00000be8      0x218 ../../../../../../../../../lib/ksdk_platform_lib/armgcc/KL46Z4/debug/libksdk_platform.a(fsl_clock_MKL46Z4.c.obj)
 .debug_aranges
                0x00000e00       0x30 ../../../../../../../../../lib/ksdk_platform_lib/armgcc/KL46Z4/debug/libksdk_platform.a(fsl_interrupt_manager.c.obj)
 .debug_aranges
                0x00000e30       0xc8 ../../../../../../../../../lib/ksdk_platform_lib/armgcc/KL46Z4/debug/libksdk_platform.a(fsl_lpsci_hal.c.obj)
 .debug_aranges
                0x00000ef8       0x58 ../../../../../../../../../lib/ksdk_platform_lib/armgcc/KL46Z4/debug/libksdk_platform.a(fsl_lptmr_hal.c.obj)
 .debug_aranges
                0x00000f50       0xf0 ../../../../../../../../../lib/ksdk_platform_lib/armgcc/KL46Z4/debug/libksdk_platform.a(fsl_mcg_hal.c.obj)
 .debug_aranges
                0x00001040       0x98 ../../../../../../../../../lib/ksdk_platform_lib/armgcc/KL46Z4/debug/libksdk_platform.a(fsl_mcg_hal_modes.c.obj)
 .debug_aranges
                0x000010d8       0x20 ../../../../../../../../../lib/ksdk_platform_lib/armgcc/KL46Z4/debug/libksdk_platform.a(fsl_osc_hal.c.obj)
 .debug_aranges
                0x000010f8       0x90 ../../../../../../../../../lib/ksdk_platform_lib/armgcc/KL46Z4/debug/libksdk_platform.a(fsl_sim_hal_MKL46Z4.c.obj)
 .debug_aranges
                0x00001188       0xb0 ../../../../../../../../../lib/ksdk_platform_lib/armgcc/KL46Z4/debug/libksdk_platform.a(fsl_uart_hal.c.obj)

.debug_ranges   0x00000000     0x1028
 .debug_ranges  0x00000000       0x18 CMakeFiles/dev_hid_mouse_bm.dir/home/laurie/RTES/KSDK_1.3.0/platform/utilities/src/fsl_misc_utilities.c.obj
 .debug_ranges  0x00000018       0x40 CMakeFiles/dev_hid_mouse_bm.dir/home/laurie/RTES/KSDK_1.3.0/examples/frdmkl46z/demo_apps/usb/device/hid/hid_mouse/mouse.c.obj
 .debug_ranges  0x00000058       0x38 CMakeFiles/dev_hid_mouse_bm.dir/home/laurie/RTES/KSDK_1.3.0/examples/frdmkl46z/demo_apps/usb/device/hid/hid_mouse/usb_descriptor.c.obj
 .debug_ranges  0x00000090       0x10 CMakeFiles/dev_hid_mouse_bm.dir/home/laurie/RTES/KSDK_1.3.0/examples/frdmkl46z/demo_apps/usb/device/hid/hid_mouse/hardware_init.c.obj
 .debug_ranges  0x000000a0       0x88 CMakeFiles/dev_hid_mouse_bm.dir/home/laurie/RTES/KSDK_1.3.0/examples/frdmkl46z/pin_mux.c.obj
 .debug_ranges  0x00000128       0x60 CMakeFiles/dev_hid_mouse_bm.dir/home/laurie/RTES/KSDK_1.3.0/examples/frdmkl46z/board.c.obj
 .debug_ranges  0x00000188       0x90 CMakeFiles/dev_hid_mouse_bm.dir/home/laurie/RTES/KSDK_1.3.0/platform/utilities/src/fsl_debug_console.c.obj
 .debug_ranges  0x00000218       0x38 CMakeFiles/dev_hid_mouse_bm.dir/home/laurie/RTES/KSDK_1.3.0/platform/utilities/src/print_scan.c.obj
 .debug_ranges  0x00000250       0x18 CMakeFiles/dev_hid_mouse_bm.dir/home/laurie/RTES/KSDK_1.3.0/platform/devices/MKL46Z4/startup/system_MKL46Z4.c.obj
 .debug_ranges  0x00000268       0x10 CMakeFiles/dev_hid_mouse_bm.dir/home/laurie/RTES/KSDK_1.3.0/platform/devices/startup.c.obj
 .debug_ranges  0x00000278       0xe0 ../../../../../../../../../usb/usb_core/device/lib/bm/armgcc/MKL46Z4/debug/libusbd_bm.a(adapter_sdk.c.obj)
 .debug_ranges  0x00000358       0x50 ../../../../../../../../../usb/usb_core/device/lib/bm/armgcc/MKL46Z4/debug/libusbd_bm.a(usb_class.c.obj)
 .debug_ranges  0x000003a8       0x70 ../../../../../../../../../usb/usb_core/device/lib/bm/armgcc/MKL46Z4/debug/libusbd_bm.a(usb_hid.c.obj)
 .debug_ranges  0x00000418       0xd0 ../../../../../../../../../usb/usb_core/device/lib/bm/armgcc/MKL46Z4/debug/libusbd_bm.a(usb_dev.c.obj)
 .debug_ranges  0x000004e8       0x78 ../../../../../../../../../usb/usb_core/device/lib/bm/armgcc/MKL46Z4/debug/libusbd_bm.a(usb_framework.c.obj)
 .debug_ranges  0x00000560      0x200 ../../../../../../../../../usb/usb_core/device/lib/bm/armgcc/MKL46Z4/debug/libusbd_bm.a(khci_dev.c.obj)
 .debug_ranges  0x00000760       0x68 ../../../../../../../../../usb/usb_core/device/lib/bm/armgcc/MKL46Z4/debug/libusbd_bm.a(usb_dev_bsp.c.obj)
 .debug_ranges  0x000007c8      0x160 ../../../../../../../../../lib/ksdk_platform_lib/armgcc/KL46Z4/debug/libksdk_platform.a(fsl_os_abstraction_bm.c.obj)
 .debug_ranges  0x00000928      0x140 ../../../../../../../../../lib/ksdk_platform_lib/armgcc/KL46Z4/debug/libksdk_platform.a(fsl_clock_manager.c.obj)
 .debug_ranges  0x00000a68      0x208 ../../../../../../../../../lib/ksdk_platform_lib/armgcc/KL46Z4/debug/libksdk_platform.a(fsl_clock_MKL46Z4.c.obj)
 .debug_ranges  0x00000c70       0x20 ../../../../../../../../../lib/ksdk_platform_lib/armgcc/KL46Z4/debug/libksdk_platform.a(fsl_interrupt_manager.c.obj)
 .debug_ranges  0x00000c90       0xb8 ../../../../../../../../../lib/ksdk_platform_lib/armgcc/KL46Z4/debug/libksdk_platform.a(fsl_lpsci_hal.c.obj)
 .debug_ranges  0x00000d48       0x48 ../../../../../../../../../lib/ksdk_platform_lib/armgcc/KL46Z4/debug/libksdk_platform.a(fsl_lptmr_hal.c.obj)
 .debug_ranges  0x00000d90       0xe0 ../../../../../../../../../lib/ksdk_platform_lib/armgcc/KL46Z4/debug/libksdk_platform.a(fsl_mcg_hal.c.obj)
 .debug_ranges  0x00000e70       0x88 ../../../../../../../../../lib/ksdk_platform_lib/armgcc/KL46Z4/debug/libksdk_platform.a(fsl_mcg_hal_modes.c.obj)
 .debug_ranges  0x00000ef8       0x10 ../../../../../../../../../lib/ksdk_platform_lib/armgcc/KL46Z4/debug/libksdk_platform.a(fsl_osc_hal.c.obj)
 .debug_ranges  0x00000f08       0x80 ../../../../../../../../../lib/ksdk_platform_lib/armgcc/KL46Z4/debug/libksdk_platform.a(fsl_sim_hal_MKL46Z4.c.obj)
 .debug_ranges  0x00000f88       0xa0 ../../../../../../../../../lib/ksdk_platform_lib/armgcc/KL46Z4/debug/libksdk_platform.a(fsl_uart_hal.c.obj)

.debug_line     0x00000000     0x8388
 .debug_line    0x00000000       0xd1 CMakeFiles/dev_hid_mouse_bm.dir/home/laurie/RTES/KSDK_1.3.0/platform/utilities/src/fsl_misc_utilities.c.obj
 .debug_line    0x000000d1       0x8d CMakeFiles/dev_hid_mouse_bm.dir/home/laurie/RTES/KSDK_1.3.0/platform/devices/MKL46Z4/startup/gcc/startup_MKL46Z4.S.obj
 .debug_line    0x0000015e      0x4b8 CMakeFiles/dev_hid_mouse_bm.dir/home/laurie/RTES/KSDK_1.3.0/examples/frdmkl46z/demo_apps/usb/device/hid/hid_mouse/mouse.c.obj
 .debug_line    0x00000616      0x3a4 CMakeFiles/dev_hid_mouse_bm.dir/home/laurie/RTES/KSDK_1.3.0/examples/frdmkl46z/demo_apps/usb/device/hid/hid_mouse/usb_descriptor.c.obj
 .debug_line    0x000009ba      0x1a8 CMakeFiles/dev_hid_mouse_bm.dir/home/laurie/RTES/KSDK_1.3.0/examples/frdmkl46z/demo_apps/usb/device/hid/hid_mouse/hardware_init.c.obj
 .debug_line    0x00000b62      0x395 CMakeFiles/dev_hid_mouse_bm.dir/home/laurie/RTES/KSDK_1.3.0/examples/frdmkl46z/pin_mux.c.obj
 .debug_line    0x00000ef7      0x671 CMakeFiles/dev_hid_mouse_bm.dir/home/laurie/RTES/KSDK_1.3.0/examples/frdmkl46z/board.c.obj
 .debug_line    0x00001568      0x5c6 CMakeFiles/dev_hid_mouse_bm.dir/home/laurie/RTES/KSDK_1.3.0/platform/utilities/src/fsl_debug_console.c.obj
 .debug_line    0x00001b2e      0x514 CMakeFiles/dev_hid_mouse_bm.dir/home/laurie/RTES/KSDK_1.3.0/platform/utilities/src/print_scan.c.obj
 .debug_line    0x00002042      0x201 CMakeFiles/dev_hid_mouse_bm.dir/home/laurie/RTES/KSDK_1.3.0/platform/devices/MKL46Z4/startup/system_MKL46Z4.c.obj
 .debug_line    0x00002243      0x17b CMakeFiles/dev_hid_mouse_bm.dir/home/laurie/RTES/KSDK_1.3.0/platform/devices/startup.c.obj
 .debug_line    0x000023be      0x52e ../../../../../../../../../usb/usb_core/device/lib/bm/armgcc/MKL46Z4/debug/libusbd_bm.a(adapter_sdk.c.obj)
 .debug_line    0x000028ec      0x32e ../../../../../../../../../usb/usb_core/device/lib/bm/armgcc/MKL46Z4/debug/libusbd_bm.a(usb_class.c.obj)
 .debug_line    0x00002c1a      0x42f ../../../../../../../../../usb/usb_core/device/lib/bm/armgcc/MKL46Z4/debug/libusbd_bm.a(usb_hid.c.obj)
 .debug_line    0x00003049      0x5d4 ../../../../../../../../../usb/usb_core/device/lib/bm/armgcc/MKL46Z4/debug/libusbd_bm.a(usb_dev.c.obj)
 .debug_line    0x0000361d      0x39a ../../../../../../../../../usb/usb_core/device/lib/bm/armgcc/MKL46Z4/debug/libusbd_bm.a(usb_framework.c.obj)
 .debug_line    0x000039b7      0x1b8 ../../../../../../../../../usb/usb_core/device/lib/bm/armgcc/MKL46Z4/debug/libusbd_bm.a(device_khci_interface.c.obj)
 .debug_line    0x00003b6f      0xc10 ../../../../../../../../../usb/usb_core/device/lib/bm/armgcc/MKL46Z4/debug/libusbd_bm.a(khci_dev.c.obj)
 .debug_line    0x0000477f      0x425 ../../../../../../../../../usb/usb_core/device/lib/bm/armgcc/MKL46Z4/debug/libusbd_bm.a(usb_dev_bsp.c.obj)
 .debug_line    0x00004ba4      0x82c ../../../../../../../../../lib/ksdk_platform_lib/armgcc/KL46Z4/debug/libksdk_platform.a(fsl_os_abstraction_bm.c.obj)
 .debug_line    0x000053d0      0x923 ../../../../../../../../../lib/ksdk_platform_lib/armgcc/KL46Z4/debug/libksdk_platform.a(fsl_clock_manager.c.obj)
 .debug_line    0x00005cf3      0x1c3 ../../../../../../../../../lib/ksdk_platform_lib/armgcc/KL46Z4/debug/libksdk_platform.a(fsl_clock_manager_common.c.obj)
 .debug_line    0x00005eb6      0xa22 ../../../../../../../../../lib/ksdk_platform_lib/armgcc/KL46Z4/debug/libksdk_platform.a(fsl_clock_MKL46Z4.c.obj)
 .debug_line    0x000068d8      0x20e ../../../../../../../../../lib/ksdk_platform_lib/armgcc/KL46Z4/debug/libksdk_platform.a(fsl_interrupt_manager.c.obj)
 .debug_line    0x00006ae6      0x445 ../../../../../../../../../lib/ksdk_platform_lib/armgcc/KL46Z4/debug/libksdk_platform.a(fsl_lpsci_hal.c.obj)
 .debug_line    0x00006f2b      0x248 ../../../../../../../../../lib/ksdk_platform_lib/armgcc/KL46Z4/debug/libksdk_platform.a(fsl_lptmr_hal.c.obj)
 .debug_line    0x00007173      0x4cf ../../../../../../../../../lib/ksdk_platform_lib/armgcc/KL46Z4/debug/libksdk_platform.a(fsl_mcg_hal.c.obj)
 .debug_line    0x00007642      0x43c ../../../../../../../../../lib/ksdk_platform_lib/armgcc/KL46Z4/debug/libksdk_platform.a(fsl_mcg_hal_modes.c.obj)
 .debug_line    0x00007a7e      0x135 ../../../../../../../../../lib/ksdk_platform_lib/armgcc/KL46Z4/debug/libksdk_platform.a(fsl_osc_hal.c.obj)
 .debug_line    0x00007bb3      0x3da ../../../../../../../../../lib/ksdk_platform_lib/armgcc/KL46Z4/debug/libksdk_platform.a(fsl_sim_hal_MKL46Z4.c.obj)
 .debug_line    0x00007f8d      0x3fb ../../../../../../../../../lib/ksdk_platform_lib/armgcc/KL46Z4/debug/libksdk_platform.a(fsl_uart_hal.c.obj)

.debug_str      0x00000000     0x8820
 .debug_str     0x00000000      0x275 CMakeFiles/dev_hid_mouse_bm.dir/home/laurie/RTES/KSDK_1.3.0/platform/utilities/src/fsl_misc_utilities.c.obj
                                0x2bc (size before relaxing)
 .debug_str     0x00000275      0x574 CMakeFiles/dev_hid_mouse_bm.dir/home/laurie/RTES/KSDK_1.3.0/examples/frdmkl46z/demo_apps/usb/device/hid/hid_mouse/mouse.c.obj
                                0x7da (size before relaxing)
 .debug_str     0x000007e9      0x6d6 CMakeFiles/dev_hid_mouse_bm.dir/home/laurie/RTES/KSDK_1.3.0/examples/frdmkl46z/demo_apps/usb/device/hid/hid_mouse/usb_descriptor.c.obj
                                0xafc (size before relaxing)
 .debug_str     0x00000ebf       0x71 CMakeFiles/dev_hid_mouse_bm.dir/home/laurie/RTES/KSDK_1.3.0/examples/frdmkl46z/demo_apps/usb/device/hid/hid_mouse/hardware_init.c.obj
                                0x24d (size before relaxing)
 .debug_str     0x00000f30      0x298 CMakeFiles/dev_hid_mouse_bm.dir/home/laurie/RTES/KSDK_1.3.0/examples/frdmkl46z/pin_mux.c.obj
                                0x467 (size before relaxing)
 .debug_str     0x000011c8      0x82b CMakeFiles/dev_hid_mouse_bm.dir/home/laurie/RTES/KSDK_1.3.0/examples/frdmkl46z/board.c.obj
                                0xb2d (size before relaxing)
 .debug_str     0x000019f3      0x941 CMakeFiles/dev_hid_mouse_bm.dir/home/laurie/RTES/KSDK_1.3.0/platform/utilities/src/fsl_debug_console.c.obj
                                0xc46 (size before relaxing)
 .debug_str     0x00002334      0x1a6 CMakeFiles/dev_hid_mouse_bm.dir/home/laurie/RTES/KSDK_1.3.0/platform/utilities/src/print_scan.c.obj
                                0x42f (size before relaxing)
 .debug_str     0x000024da      0x28b CMakeFiles/dev_hid_mouse_bm.dir/home/laurie/RTES/KSDK_1.3.0/platform/devices/MKL46Z4/startup/system_MKL46Z4.c.obj
                                0x57b (size before relaxing)
 .debug_str     0x00002765      0x12f CMakeFiles/dev_hid_mouse_bm.dir/home/laurie/RTES/KSDK_1.3.0/platform/devices/startup.c.obj
                                0x2e9 (size before relaxing)
 .debug_str     0x00002894      0x5ab ../../../../../../../../../usb/usb_core/device/lib/bm/armgcc/MKL46Z4/debug/libusbd_bm.a(adapter_sdk.c.obj)
                                0x89b (size before relaxing)
 .debug_str     0x00002e3f      0x21d ../../../../../../../../../usb/usb_core/device/lib/bm/armgcc/MKL46Z4/debug/libusbd_bm.a(usb_class.c.obj)
                                0x65a (size before relaxing)
 .debug_str     0x0000305c      0x324 ../../../../../../../../../usb/usb_core/device/lib/bm/armgcc/MKL46Z4/debug/libusbd_bm.a(usb_hid.c.obj)
                                0xa56 (size before relaxing)
 .debug_str     0x00003380      0x752 ../../../../../../../../../usb/usb_core/device/lib/bm/armgcc/MKL46Z4/debug/libusbd_bm.a(usb_dev.c.obj)
                                0xd33 (size before relaxing)
 .debug_str     0x00003ad2      0x221 ../../../../../../../../../usb/usb_core/device/lib/bm/armgcc/MKL46Z4/debug/libusbd_bm.a(usb_framework.c.obj)
                                0x7d3 (size before relaxing)
 .debug_str     0x00003cf3       0x61 ../../../../../../../../../usb/usb_core/device/lib/bm/armgcc/MKL46Z4/debug/libusbd_bm.a(device_khci_interface.c.obj)
                                0x4be (size before relaxing)
 .debug_str     0x00003d54      0xccf ../../../../../../../../../usb/usb_core/device/lib/bm/armgcc/MKL46Z4/debug/libusbd_bm.a(khci_dev.c.obj)
                               0x131f (size before relaxing)
 .debug_str     0x00004a23      0x40c ../../../../../../../../../usb/usb_core/device/lib/bm/armgcc/MKL46Z4/debug/libusbd_bm.a(usb_dev_bsp.c.obj)
                                0x7c8 (size before relaxing)
 .debug_str     0x00004e2f      0xb25 ../../../../../../../../../lib/ksdk_platform_lib/armgcc/KL46Z4/debug/libksdk_platform.a(fsl_os_abstraction_bm.c.obj)
                               0x136e (size before relaxing)
 .debug_str     0x00005954      0xca9 ../../../../../../../../../lib/ksdk_platform_lib/armgcc/KL46Z4/debug/libksdk_platform.a(fsl_clock_manager.c.obj)
                               0x16c6 (size before relaxing)
 .debug_str     0x000065fd       0x66 ../../../../../../../../../lib/ksdk_platform_lib/armgcc/KL46Z4/debug/libksdk_platform.a(fsl_clock_manager_common.c.obj)
                                0x301 (size before relaxing)
 .debug_str     0x00006663      0x9eb ../../../../../../../../../lib/ksdk_platform_lib/armgcc/KL46Z4/debug/libksdk_platform.a(fsl_clock_MKL46Z4.c.obj)
                               0x1557 (size before relaxing)
 .debug_str     0x0000704e       0xd8 ../../../../../../../../../lib/ksdk_platform_lib/armgcc/KL46Z4/debug/libksdk_platform.a(fsl_interrupt_manager.c.obj)
                                0x42e (size before relaxing)
 .debug_str     0x00007126      0x5bd ../../../../../../../../../lib/ksdk_platform_lib/armgcc/KL46Z4/debug/libksdk_platform.a(fsl_lpsci_hal.c.obj)
                                0x9c4 (size before relaxing)
 .debug_str     0x000076e3      0x102 ../../../../../../../../../lib/ksdk_platform_lib/armgcc/KL46Z4/debug/libksdk_platform.a(fsl_lptmr_hal.c.obj)
                                0x828 (size before relaxing)
 .debug_str     0x000077e5      0x5d6 ../../../../../../../../../lib/ksdk_platform_lib/armgcc/KL46Z4/debug/libksdk_platform.a(fsl_mcg_hal.c.obj)
                                0xb19 (size before relaxing)
 .debug_str     0x00007dbb      0x16a ../../../../../../../../../lib/ksdk_platform_lib/armgcc/KL46Z4/debug/libksdk_platform.a(fsl_mcg_hal_modes.c.obj)
                                0x892 (size before relaxing)
 .debug_str     0x00007f25       0x5d ../../../../../../../../../lib/ksdk_platform_lib/armgcc/KL46Z4/debug/libksdk_platform.a(fsl_osc_hal.c.obj)
                                0x1e6 (size before relaxing)
 .debug_str     0x00007f82      0x454 ../../../../../../../../../lib/ksdk_platform_lib/armgcc/KL46Z4/debug/libksdk_platform.a(fsl_sim_hal_MKL46Z4.c.obj)
                                0x72b (size before relaxing)
 .debug_str     0x000083d6      0x44a ../../../../../../../../../lib/ksdk_platform_lib/armgcc/KL46Z4/debug/libksdk_platform.a(fsl_uart_hal.c.obj)
                                0x8be (size before relaxing)

.comment        0x00000000       0x6e
 .comment       0x00000000       0x6e CMakeFiles/dev_hid_mouse_bm.dir/home/laurie/RTES/KSDK_1.3.0/platform/utilities/src/fsl_misc_utilities.c.obj
                                 0x6f (size before relaxing)
 .comment       0x0000006e       0x6f CMakeFiles/dev_hid_mouse_bm.dir/home/laurie/RTES/KSDK_1.3.0/examples/frdmkl46z/demo_apps/usb/device/hid/hid_mouse/mouse.c.obj
 .comment       0x0000006e       0x6f CMakeFiles/dev_hid_mouse_bm.dir/home/laurie/RTES/KSDK_1.3.0/examples/frdmkl46z/demo_apps/usb/device/hid/hid_mouse/usb_descriptor.c.obj
 .comment       0x0000006e       0x6f CMakeFiles/dev_hid_mouse_bm.dir/home/laurie/RTES/KSDK_1.3.0/examples/frdmkl46z/demo_apps/usb/device/hid/hid_mouse/hardware_init.c.obj
 .comment       0x0000006e       0x6f CMakeFiles/dev_hid_mouse_bm.dir/home/laurie/RTES/KSDK_1.3.0/examples/frdmkl46z/pin_mux.c.obj
 .comment       0x0000006e       0x6f CMakeFiles/dev_hid_mouse_bm.dir/home/laurie/RTES/KSDK_1.3.0/examples/frdmkl46z/board.c.obj
 .comment       0x0000006e       0x6f CMakeFiles/dev_hid_mouse_bm.dir/home/laurie/RTES/KSDK_1.3.0/platform/utilities/src/fsl_debug_console.c.obj
 .comment       0x0000006e       0x6f CMakeFiles/dev_hid_mouse_bm.dir/home/laurie/RTES/KSDK_1.3.0/platform/utilities/src/print_scan.c.obj
 .comment       0x0000006e       0x6f CMakeFiles/dev_hid_mouse_bm.dir/home/laurie/RTES/KSDK_1.3.0/platform/devices/MKL46Z4/startup/system_MKL46Z4.c.obj
 .comment       0x0000006e       0x6f CMakeFiles/dev_hid_mouse_bm.dir/home/laurie/RTES/KSDK_1.3.0/platform/devices/startup.c.obj
 .comment       0x0000006e       0x6f ../../../../../../../../../usb/usb_core/device/lib/bm/armgcc/MKL46Z4/debug/libusbd_bm.a(adapter_sdk.c.obj)
 .comment       0x0000006e       0x6f ../../../../../../../../../usb/usb_core/device/lib/bm/armgcc/MKL46Z4/debug/libusbd_bm.a(usb_class.c.obj)
 .comment       0x0000006e       0x6f ../../../../../../../../../usb/usb_core/device/lib/bm/armgcc/MKL46Z4/debug/libusbd_bm.a(usb_hid.c.obj)
 .comment       0x0000006e       0x6f ../../../../../../../../../usb/usb_core/device/lib/bm/armgcc/MKL46Z4/debug/libusbd_bm.a(usb_dev.c.obj)
 .comment       0x0000006e       0x6f ../../../../../../../../../usb/usb_core/device/lib/bm/armgcc/MKL46Z4/debug/libusbd_bm.a(usb_framework.c.obj)
 .comment       0x0000006e       0x6f ../../../../../../../../../usb/usb_core/device/lib/bm/armgcc/MKL46Z4/debug/libusbd_bm.a(device_khci_interface.c.obj)
 .comment       0x0000006e       0x6f ../../../../../../../../../usb/usb_core/device/lib/bm/armgcc/MKL46Z4/debug/libusbd_bm.a(khci_dev.c.obj)
 .comment       0x0000006e       0x6f ../../../../../../../../../usb/usb_core/device/lib/bm/armgcc/MKL46Z4/debug/libusbd_bm.a(usb_dev_bsp.c.obj)
 .comment       0x0000006e       0x6f ../../../../../../../../../lib/ksdk_platform_lib/armgcc/KL46Z4/debug/libksdk_platform.a(fsl_os_abstraction_bm.c.obj)
 .comment       0x0000006e       0x6f ../../../../../../../../../lib/ksdk_platform_lib/armgcc/KL46Z4/debug/libksdk_platform.a(fsl_clock_manager.c.obj)
 .comment       0x0000006e       0x6f ../../../../../../../../../lib/ksdk_platform_lib/armgcc/KL46Z4/debug/libksdk_platform.a(fsl_clock_manager_common.c.obj)
 .comment       0x0000006e       0x6f ../../../../../../../../../lib/ksdk_platform_lib/armgcc/KL46Z4/debug/libksdk_platform.a(fsl_clock_MKL46Z4.c.obj)
 .comment       0x0000006e       0x6f ../../../../../../../../../lib/ksdk_platform_lib/armgcc/KL46Z4/debug/libksdk_platform.a(fsl_interrupt_manager.c.obj)
 .comment       0x0000006e       0x6f ../../../../../../../../../lib/ksdk_platform_lib/armgcc/KL46Z4/debug/libksdk_platform.a(fsl_lpsci_hal.c.obj)
 .comment       0x0000006e       0x6f ../../../../../../../../../lib/ksdk_platform_lib/armgcc/KL46Z4/debug/libksdk_platform.a(fsl_lptmr_hal.c.obj)
 .comment       0x0000006e       0x6f ../../../../../../../../../lib/ksdk_platform_lib/armgcc/KL46Z4/debug/libksdk_platform.a(fsl_mcg_hal.c.obj)
 .comment       0x0000006e       0x6f ../../../../../../../../../lib/ksdk_platform_lib/armgcc/KL46Z4/debug/libksdk_platform.a(fsl_mcg_hal_modes.c.obj)
 .comment       0x0000006e       0x6f ../../../../../../../../../lib/ksdk_platform_lib/armgcc/KL46Z4/debug/libksdk_platform.a(fsl_osc_hal.c.obj)
 .comment       0x0000006e       0x6f ../../../../../../../../../lib/ksdk_platform_lib/armgcc/KL46Z4/debug/libksdk_platform.a(fsl_sim_hal_MKL46Z4.c.obj)
 .comment       0x0000006e       0x6f ../../../../../../../../../lib/ksdk_platform_lib/armgcc/KL46Z4/debug/libksdk_platform.a(fsl_uart_hal.c.obj)

.debug_frame    0x00000000     0x4984
 .debug_frame   0x00000000       0x50 CMakeFiles/dev_hid_mouse_bm.dir/home/laurie/RTES/KSDK_1.3.0/platform/utilities/src/fsl_misc_utilities.c.obj
 .debug_frame   0x00000050       0xe8 CMakeFiles/dev_hid_mouse_bm.dir/home/laurie/RTES/KSDK_1.3.0/examples/frdmkl46z/demo_apps/usb/device/hid/hid_mouse/mouse.c.obj
 .debug_frame   0x00000138       0xd0 CMakeFiles/dev_hid_mouse_bm.dir/home/laurie/RTES/KSDK_1.3.0/examples/frdmkl46z/demo_apps/usb/device/hid/hid_mouse/usb_descriptor.c.obj
 .debug_frame   0x00000208       0x30 CMakeFiles/dev_hid_mouse_bm.dir/home/laurie/RTES/KSDK_1.3.0/examples/frdmkl46z/demo_apps/usb/device/hid/hid_mouse/hardware_init.c.obj
 .debug_frame   0x00000238      0x210 CMakeFiles/dev_hid_mouse_bm.dir/home/laurie/RTES/KSDK_1.3.0/examples/frdmkl46z/pin_mux.c.obj
 .debug_frame   0x00000448      0x164 CMakeFiles/dev_hid_mouse_bm.dir/home/laurie/RTES/KSDK_1.3.0/examples/frdmkl46z/board.c.obj
 .debug_frame   0x000005ac      0x230 CMakeFiles/dev_hid_mouse_bm.dir/home/laurie/RTES/KSDK_1.3.0/platform/utilities/src/fsl_debug_console.c.obj
 .debug_frame   0x000007dc       0xd4 CMakeFiles/dev_hid_mouse_bm.dir/home/laurie/RTES/KSDK_1.3.0/platform/utilities/src/print_scan.c.obj
 .debug_frame   0x000008b0       0x4c CMakeFiles/dev_hid_mouse_bm.dir/home/laurie/RTES/KSDK_1.3.0/platform/devices/MKL46Z4/startup/system_MKL46Z4.c.obj
 .debug_frame   0x000008fc       0x30 CMakeFiles/dev_hid_mouse_bm.dir/home/laurie/RTES/KSDK_1.3.0/platform/devices/startup.c.obj
 .debug_frame   0x0000092c      0x378 ../../../../../../../../../usb/usb_core/device/lib/bm/armgcc/MKL46Z4/debug/libusbd_bm.a(adapter_sdk.c.obj)
 .debug_frame   0x00000ca4      0x12c ../../../../../../../../../usb/usb_core/device/lib/bm/armgcc/MKL46Z4/debug/libusbd_bm.a(usb_class.c.obj)
 .debug_frame   0x00000dd0      0x1b8 ../../../../../../../../../usb/usb_core/device/lib/bm/armgcc/MKL46Z4/debug/libusbd_bm.a(usb_hid.c.obj)
 .debug_frame   0x00000f88      0x330 ../../../../../../../../../usb/usb_core/device/lib/bm/armgcc/MKL46Z4/debug/libusbd_bm.a(usb_dev.c.obj)
 .debug_frame   0x000012b8      0x1e0 ../../../../../../../../../usb/usb_core/device/lib/bm/armgcc/MKL46Z4/debug/libusbd_bm.a(usb_framework.c.obj)
 .debug_frame   0x00001498      0x7fc ../../../../../../../../../usb/usb_core/device/lib/bm/armgcc/MKL46Z4/debug/libusbd_bm.a(khci_dev.c.obj)
 .debug_frame   0x00001c94      0x190 ../../../../../../../../../usb/usb_core/device/lib/bm/armgcc/MKL46Z4/debug/libusbd_bm.a(usb_dev_bsp.c.obj)
 .debug_frame   0x00001e24      0x55c ../../../../../../../../../lib/ksdk_platform_lib/armgcc/KL46Z4/debug/libksdk_platform.a(fsl_os_abstraction_bm.c.obj)
 .debug_frame   0x00002380      0x4f0 ../../../../../../../../../lib/ksdk_platform_lib/armgcc/KL46Z4/debug/libksdk_platform.a(fsl_clock_manager.c.obj)
 .debug_frame   0x00002870      0x7fc ../../../../../../../../../lib/ksdk_platform_lib/armgcc/KL46Z4/debug/libksdk_platform.a(fsl_clock_MKL46Z4.c.obj)
 .debug_frame   0x0000306c       0x68 ../../../../../../../../../lib/ksdk_platform_lib/armgcc/KL46Z4/debug/libksdk_platform.a(fsl_interrupt_manager.c.obj)
 .debug_frame   0x000030d4      0x2d0 ../../../../../../../../../lib/ksdk_platform_lib/armgcc/KL46Z4/debug/libksdk_platform.a(fsl_lpsci_hal.c.obj)
 .debug_frame   0x000033a4      0x110 ../../../../../../../../../lib/ksdk_platform_lib/armgcc/KL46Z4/debug/libksdk_platform.a(fsl_lptmr_hal.c.obj)
 .debug_frame   0x000034b4      0x370 ../../../../../../../../../lib/ksdk_platform_lib/armgcc/KL46Z4/debug/libksdk_platform.a(fsl_mcg_hal.c.obj)
 .debug_frame   0x00003824      0x210 ../../../../../../../../../lib/ksdk_platform_lib/armgcc/KL46Z4/debug/libksdk_platform.a(fsl_mcg_hal_modes.c.obj)
 .debug_frame   0x00003a34       0x30 ../../../../../../../../../lib/ksdk_platform_lib/armgcc/KL46Z4/debug/libksdk_platform.a(fsl_osc_hal.c.obj)
 .debug_frame   0x00003a64      0x1f0 ../../../../../../../../../lib/ksdk_platform_lib/armgcc/KL46Z4/debug/libksdk_platform.a(fsl_sim_hal_MKL46Z4.c.obj)
 .debug_frame   0x00003c54      0x270 ../../../../../../../../../lib/ksdk_platform_lib/armgcc/KL46Z4/debug/libksdk_platform.a(fsl_uart_hal.c.obj)
 .debug_frame   0x00003ec4       0x4c /home/laurie/gcc-arm/bin/../lib/gcc/arm-none-eabi/5.4.1/../../../../arm-none-eabi/lib/armv6-m/libc_nano.a(lib_a-assert.o)
 .debug_frame   0x00003f10       0x28 /home/laurie/gcc-arm/bin/../lib/gcc/arm-none-eabi/5.4.1/../../../../arm-none-eabi/lib/armv6-m/libc_nano.a(lib_a-calloc.o)
 .debug_frame   0x00003f38       0x20 /home/laurie/gcc-arm/bin/../lib/gcc/arm-none-eabi/5.4.1/../../../../arm-none-eabi/lib/armv6-m/libc_nano.a(lib_a-errno.o)
 .debug_frame   0x00003f58       0x28 /home/laurie/gcc-arm/bin/../lib/gcc/arm-none-eabi/5.4.1/../../../../arm-none-eabi/lib/armv6-m/libc_nano.a(lib_a-exit.o)
 .debug_frame   0x00003f80       0x4c /home/laurie/gcc-arm/bin/../lib/gcc/arm-none-eabi/5.4.1/../../../../arm-none-eabi/lib/armv6-m/libc_nano.a(lib_a-fprintf.o)
 .debug_frame   0x00003fcc       0x2c /home/laurie/gcc-arm/bin/../lib/gcc/arm-none-eabi/5.4.1/../../../../arm-none-eabi/lib/armv6-m/libc_nano.a(lib_a-init.o)
 .debug_frame   0x00003ff8       0x40 /home/laurie/gcc-arm/bin/../lib/gcc/arm-none-eabi/5.4.1/../../../../arm-none-eabi/lib/armv6-m/libc_nano.a(lib_a-malloc.o)
 .debug_frame   0x00004038       0x28 /home/laurie/gcc-arm/bin/../lib/gcc/arm-none-eabi/5.4.1/../../../../arm-none-eabi/lib/armv6-m/libc_nano.a(lib_a-memcpy-stub.o)
 .debug_frame   0x00004060       0x20 /home/laurie/gcc-arm/bin/../lib/gcc/arm-none-eabi/5.4.1/../../../../arm-none-eabi/lib/armv6-m/libc_nano.a(lib_a-memset.o)
 .debug_frame   0x00004080       0x2c /home/laurie/gcc-arm/bin/../lib/gcc/arm-none-eabi/5.4.1/../../../../arm-none-eabi/lib/armv6-m/libc_nano.a(lib_a-nano-callocr.o)
 .debug_frame   0x000040ac       0x2c /home/laurie/gcc-arm/bin/../lib/gcc/arm-none-eabi/5.4.1/../../../../arm-none-eabi/lib/armv6-m/libc_nano.a(lib_a-nano-freer.o)
 .debug_frame   0x000040d8       0x2c /home/laurie/gcc-arm/bin/../lib/gcc/arm-none-eabi/5.4.1/../../../../arm-none-eabi/lib/armv6-m/libc_nano.a(lib_a-nano-mallocr.o)
 .debug_frame   0x00004104       0x9c /home/laurie/gcc-arm/bin/../lib/gcc/arm-none-eabi/5.4.1/../../../../arm-none-eabi/lib/armv6-m/libc_nano.a(lib_a-nano-vfprintf.o)
 .debug_frame   0x000041a0       0x54 /home/laurie/gcc-arm/bin/../lib/gcc/arm-none-eabi/5.4.1/../../../../arm-none-eabi/lib/armv6-m/libc_nano.a(lib_a-nano-vfprintf_i.o)
 .debug_frame   0x000041f4       0x2c /home/laurie/gcc-arm/bin/../lib/gcc/arm-none-eabi/5.4.1/../../../../arm-none-eabi/lib/armv6-m/libc_nano.a(lib_a-sbrkr.o)
 .debug_frame   0x00004220       0x48 /home/laurie/gcc-arm/bin/../lib/gcc/arm-none-eabi/5.4.1/../../../../arm-none-eabi/lib/armv6-m/libc_nano.a(lib_a-wbuf.o)
 .debug_frame   0x00004268       0x2c /home/laurie/gcc-arm/bin/../lib/gcc/arm-none-eabi/5.4.1/../../../../arm-none-eabi/lib/armv6-m/libc_nano.a(lib_a-wsetup.o)
 .debug_frame   0x00004294       0x28 /home/laurie/gcc-arm/bin/../lib/gcc/arm-none-eabi/5.4.1/../../../../arm-none-eabi/lib/armv6-m/libc_nano.a(lib_a-abort.o)
 .debug_frame   0x000042bc       0x68 /home/laurie/gcc-arm/bin/../lib/gcc/arm-none-eabi/5.4.1/../../../../arm-none-eabi/lib/armv6-m/libc_nano.a(lib_a-fflush.o)
 .debug_frame   0x00004324      0x140 /home/laurie/gcc-arm/bin/../lib/gcc/arm-none-eabi/5.4.1/../../../../arm-none-eabi/lib/armv6-m/libc_nano.a(lib_a-findfp.o)
 .debug_frame   0x00004464       0x58 /home/laurie/gcc-arm/bin/../lib/gcc/arm-none-eabi/5.4.1/../../../../arm-none-eabi/lib/armv6-m/libc_nano.a(lib_a-fwalk.o)
 .debug_frame   0x000044bc       0x54 /home/laurie/gcc-arm/bin/../lib/gcc/arm-none-eabi/5.4.1/../../../../arm-none-eabi/lib/armv6-m/libc_nano.a(lib_a-makebuf.o)
 .debug_frame   0x00004510       0x20 /home/laurie/gcc-arm/bin/../lib/gcc/arm-none-eabi/5.4.1/../../../../arm-none-eabi/lib/armv6-m/libc_nano.a(lib_a-memchr-stub.o)
 .debug_frame   0x00004530       0x30 /home/laurie/gcc-arm/bin/../lib/gcc/arm-none-eabi/5.4.1/../../../../arm-none-eabi/lib/armv6-m/libc_nano.a(lib_a-mlock.o)
 .debug_frame   0x00004560       0x48 /home/laurie/gcc-arm/bin/../lib/gcc/arm-none-eabi/5.4.1/../../../../arm-none-eabi/lib/armv6-m/libc_nano.a(lib_a-reent.o)
 .debug_frame   0x000045a8       0xe0 /home/laurie/gcc-arm/bin/../lib/gcc/arm-none-eabi/5.4.1/../../../../arm-none-eabi/lib/armv6-m/libc_nano.a(lib_a-signal.o)
 .debug_frame   0x00004688       0x44 /home/laurie/gcc-arm/bin/../lib/gcc/arm-none-eabi/5.4.1/../../../../arm-none-eabi/lib/armv6-m/libc_nano.a(lib_a-signalr.o)
 .debug_frame   0x000046cc       0x90 /home/laurie/gcc-arm/bin/../lib/gcc/arm-none-eabi/5.4.1/../../../../arm-none-eabi/lib/armv6-m/libc_nano.a(lib_a-stdio.o)
 .debug_frame   0x0000475c       0x2c /home/laurie/gcc-arm/bin/../lib/gcc/arm-none-eabi/5.4.1/../../../../arm-none-eabi/lib/armv6-m/libc_nano.a(lib_a-writer.o)
 .debug_frame   0x00004788       0x2c /home/laurie/gcc-arm/bin/../lib/gcc/arm-none-eabi/5.4.1/../../../../arm-none-eabi/lib/armv6-m/libc_nano.a(lib_a-closer.o)
 .debug_frame   0x000047b4       0x2c /home/laurie/gcc-arm/bin/../lib/gcc/arm-none-eabi/5.4.1/../../../../arm-none-eabi/lib/armv6-m/libc_nano.a(lib_a-fstatr.o)
 .debug_frame   0x000047e0       0x2c /home/laurie/gcc-arm/bin/../lib/gcc/arm-none-eabi/5.4.1/../../../../arm-none-eabi/lib/armv6-m/libc_nano.a(lib_a-isattyr.o)
 .debug_frame   0x0000480c       0x2c /home/laurie/gcc-arm/bin/../lib/gcc/arm-none-eabi/5.4.1/../../../../arm-none-eabi/lib/armv6-m/libc_nano.a(lib_a-lseekr.o)
 .debug_frame   0x00004838       0x2c /home/laurie/gcc-arm/bin/../lib/gcc/arm-none-eabi/5.4.1/../../../../arm-none-eabi/lib/armv6-m/libc_nano.a(lib_a-readr.o)
 .debug_frame   0x00004864       0x20 /home/laurie/gcc-arm/bin/../lib/gcc/arm-none-eabi/5.4.1/armv6-m/libgcc.a(_udivsi3.o)
 .debug_frame   0x00004884       0x20 /home/laurie/gcc-arm/bin/../lib/gcc/arm-none-eabi/5.4.1/armv6-m/libgcc.a(_divsi3.o)
 .debug_frame   0x000048a4       0x20 /home/laurie/gcc-arm/bin/../lib/gcc/arm-none-eabi/5.4.1/../../../../arm-none-eabi/lib/armv6-m/libnosys.a(close.o)
 .debug_frame   0x000048c4       0x20 /home/laurie/gcc-arm/bin/../lib/gcc/arm-none-eabi/5.4.1/../../../../arm-none-eabi/lib/armv6-m/libnosys.a(fstat.o)
 .debug_frame   0x000048e4       0x20 /home/laurie/gcc-arm/bin/../lib/gcc/arm-none-eabi/5.4.1/../../../../arm-none-eabi/lib/armv6-m/libnosys.a(getpid.o)
 .debug_frame   0x00004904       0x20 /home/laurie/gcc-arm/bin/../lib/gcc/arm-none-eabi/5.4.1/../../../../arm-none-eabi/lib/armv6-m/libnosys.a(isatty.o)
 .debug_frame   0x00004924       0x20 /home/laurie/gcc-arm/bin/../lib/gcc/arm-none-eabi/5.4.1/../../../../arm-none-eabi/lib/armv6-m/libnosys.a(kill.o)
 .debug_frame   0x00004944       0x20 /home/laurie/gcc-arm/bin/../lib/gcc/arm-none-eabi/5.4.1/../../../../arm-none-eabi/lib/armv6-m/libnosys.a(lseek.o)
 .debug_frame   0x00004964       0x20 /home/laurie/gcc-arm/bin/../lib/gcc/arm-none-eabi/5.4.1/../../../../arm-none-eabi/lib/armv6-m/libnosys.a(_exit.o)

.stab           0x00000000       0x9c
 .stab          0x00000000       0x24 /home/laurie/gcc-arm/bin/../lib/gcc/arm-none-eabi/5.4.1/../../../../arm-none-eabi/lib/armv6-m/libnosys.a(close.o)
 .stab          0x00000024       0x18 /home/laurie/gcc-arm/bin/../lib/gcc/arm-none-eabi/5.4.1/../../../../arm-none-eabi/lib/armv6-m/libnosys.a(fstat.o)
                                 0x24 (size before relaxing)
 .stab          0x0000003c       0x18 /home/laurie/gcc-arm/bin/../lib/gcc/arm-none-eabi/5.4.1/../../../../arm-none-eabi/lib/armv6-m/libnosys.a(getpid.o)
                                 0x24 (size before relaxing)
 .stab          0x00000054       0x18 /home/laurie/gcc-arm/bin/../lib/gcc/arm-none-eabi/5.4.1/../../../../arm-none-eabi/lib/armv6-m/libnosys.a(isatty.o)
                                 0x24 (size before relaxing)
 .stab          0x0000006c       0x18 /home/laurie/gcc-arm/bin/../lib/gcc/arm-none-eabi/5.4.1/../../../../arm-none-eabi/lib/armv6-m/libnosys.a(kill.o)
                                 0x24 (size before relaxing)
 .stab          0x00000084       0x18 /home/laurie/gcc-arm/bin/../lib/gcc/arm-none-eabi/5.4.1/../../../../arm-none-eabi/lib/armv6-m/libnosys.a(lseek.o)
                                 0x24 (size before relaxing)

.stabstr        0x00000000      0x14f
 .stabstr       0x00000000      0x14f /home/laurie/gcc-arm/bin/../lib/gcc/arm-none-eabi/5.4.1/../../../../arm-none-eabi/lib/armv6-m/libnosys.a(close.o)
